

Microchip MPLAB XC8 Assembler V3.00 build 20241204225717 
                                                                                               Tue Apr 29 01:55:26 2025

Microchip MPLAB XC8 C Compiler v3.00 (Free license) build 20241204225717 Og1 
     1                           	processor	18F46K22
     2                           	fnconf	rparam,??,?,0
     3                           	pagewidth 120
     4                           	opt	flic
     5                           	psect	idataCOMRAM,global,class=CODE,space=0,delta=1,noexec
     6                           	psect	mediumconst,global,reloc=2,class=MEDIUMCONST,space=0,delta=1,noexec
     7                           	psect	cinit,global,reloc=2,class=CODE,space=0,delta=1
     8                           	psect	bssCOMRAM,global,class=COMRAM,space=1,delta=1,lowdata,noexec
     9                           	psect	dataCOMRAM,global,class=COMRAM,space=1,delta=1,lowdata,noexec
    10                           	psect	bssBANK0,global,class=BANK0,space=1,delta=1,lowdata,noexec
    11                           	psect	cstackCOMRAM,global,class=COMRAM,space=1,delta=1,lowdata,noexec
    12                           	psect	text0,global,reloc=2,class=CODE,space=0,delta=1
    13                           	psect	text1,global,reloc=2,class=CODE,space=0,delta=1
    14                           	psect	text2,global,reloc=2,class=CODE,space=0,delta=1
    15                           	psect	text3,global,reloc=2,class=CODE,space=0,delta=1
    16                           	psect	text4,global,reloc=2,class=CODE,space=0,delta=1
    17                           	psect	text5,global,reloc=2,class=CODE,space=0,delta=1,group=2
    18                           	psect	text6,global,reloc=2,class=CODE,space=0,delta=1,group=2
    19                           	psect	text7,global,reloc=2,class=CODE,space=0,delta=1,group=2
    20                           	psect	text8,global,reloc=2,class=CODE,space=0,delta=1
    21                           	psect	text9,global,reloc=2,class=CODE,space=0,delta=1
    22                           	psect	text10,global,reloc=2,class=CODE,space=0,delta=1
    23                           	psect	text11,global,reloc=2,class=CODE,space=0,delta=1,group=3
    24                           	psect	text12,global,reloc=2,class=CODE,space=0,delta=1
    25                           	psect	text13,global,reloc=2,class=CODE,space=0,delta=1
    26                           	psect	text14,global,reloc=2,class=CODE,space=0,delta=1,group=3
    27                           	psect	text15,global,reloc=2,class=CODE,space=0,delta=1,group=1
    28                           	psect	text16,global,reloc=2,class=CODE,space=0,delta=1,group=1
    29                           	psect	text17,global,reloc=2,class=CODE,space=0,delta=1,group=3
    30                           	psect	text18,global,reloc=2,class=CODE,space=0,delta=1,group=3
    31                           	psect	text19,global,reloc=2,class=CODE,space=0,delta=1,group=2
    32                           	psect	text20,global,reloc=2,class=CODE,space=0,delta=1,group=2
    33                           	psect	text21,global,reloc=2,class=CODE,space=0,delta=1
    34                           	psect	text22,global,reloc=2,class=CODE,space=0,delta=1
    35                           	psect	text23,global,reloc=2,class=CODE,space=0,delta=1
    36                           	psect	text24,global,reloc=2,class=CODE,space=0,delta=1
    37                           	psect	text25,global,reloc=2,class=CODE,space=0,delta=1
    38                           	psect	text26,global,reloc=2,class=CODE,space=0,delta=1
    39                           	psect	text27,global,reloc=2,class=CODE,space=0,delta=1
    40                           	psect	text28,global,reloc=2,class=CODE,space=0,delta=1
    41                           	psect	text29,global,reloc=2,class=CODE,space=0,delta=1
    42                           	psect	text30,global,reloc=2,class=CODE,space=0,delta=1
    43                           	psect	text31,global,reloc=2,class=CODE,space=0,delta=1
    44                           	psect	text32,global,reloc=2,class=CODE,space=0,delta=1
    45                           	psect	text33,global,reloc=2,class=CODE,space=0,delta=1
    46                           	psect	text34,global,reloc=2,class=CODE,space=0,delta=1
    47                           	psect	text35,global,reloc=2,class=CODE,space=0,delta=1
    48                           	psect	text36,global,reloc=2,class=CODE,space=0,delta=1
    49                           	psect	text37,global,reloc=2,class=CODE,space=0,delta=1
    50                           	psect	text38,global,reloc=2,class=CODE,space=0,delta=1
    51                           	psect	text39,global,reloc=2,class=CODE,space=0,delta=1
    52                           	psect	text40,global,reloc=2,class=CODE,space=0,delta=1
    53                           	psect	text41,global,reloc=2,class=CODE,space=0,delta=1
    54                           	psect	text42,global,reloc=2,class=CODE,space=0,delta=1
    55                           	psect	intcode,global,reloc=2,class=CODE,space=0,delta=1
    56                           	psect	intsave_regs,global,class=BIGRAM,space=1,delta=1,noexec
    57                           	psect	rparam,global,class=COMRAM,space=1,delta=1,noexec
    58                           	psect	temp,global,ovrld,common,class=COMRAM,space=1,delta=1,lowdata
    59                           	psect	config,global,abs,ovrld,class=CONFIG,space=4,delta=1,noexec
    60   000000                     
    61                           ; Generated 12/10/2023 GMT
    62                           ; 
    63                           ; Copyright © 2023, Microchip Technology Inc. and its subsidiaries ("Microchip")
    64                           ; All rights reserved.
    65                           ; 
    66                           ; This software is developed by Microchip Technology Inc. and its subsidiaries ("Microch
      +                          ip").
    67                           ; 
    68                           ; Redistribution and use in source and binary forms, with or without modification, are
    69                           ; permitted provided that the following conditions are met:
    70                           ; 
    71                           ;     1. Redistributions of source code must retain the above copyright notice, this lis
      +                          t of
    72                           ;        conditions and the following disclaimer.
    73                           ; 
    74                           ;     2. Redistributions in binary form must reproduce the above copyright notice, this 
      +                          list
    75                           ;        of conditions and the following disclaimer in the documentation and/or other
    76                           ;        materials provided with the distribution. Publication is not required when
    77                           ;        this file is used in an embedded application.
    78                           ; 
    79                           ;     3. Microchip's name may not be used to endorse or promote products derived from th
      +                          is
    80                           ;        software without specific prior written permission.
    81                           ; 
    82                           ; THIS SOFTWARE IS PROVIDED BY MICROCHIP "AS IS" AND ANY EXPRESS OR IMPLIED WARRANTIES,
    83                           ; INCLUDING, BUT NOT LIMITED TO, THE IMPLIED WARRANTIES OF MERCHANTABILITY AND FITNESS F
      +                          OR
    84                           ; PURPOSE ARE DISCLAIMED.  IN NO EVENT SHALL MICROCHIP BE LIABLE FOR ANY DIRECT, INDIREC
      +                          T,
    85                           ; INCIDENTAL, SPECIAL, EXEMPLARY, OR CONSEQUENTIAL DAMAGES (INCLUDING BUT NOT LIMITED TO
    86                           ; PROCUREMENT OF SUBSTITUTE GOODS OR SERVICES; LOSS OF USE, DATA OR PROFITS; OR BUSINESS
    87                           ; INTERRUPTION) HOWSOEVER CAUSED AND ON ANY THEORY OF LIABILITY, WHETHER IN CONTRACT, ST
      +                          RICT
    88                           ; LIABILITY, OR TORT (INCLUDING NEGLIGENCE OR OTHERWISE) ARISING IN ANY WAY OUT OF THE U
      +                          SE OF
    89                           ; THIS SOFTWARE, EVEN IF ADVISED OF THE POSSIBILITY OF SUCH DAMAGE.
    90                           ; 
    91                           ; 
    92                           ; Code-generator required, PIC18F46K22 Definitions
    93                           ; 
    94                           ; SFR Addresses
    95   000FE0                     bsr             equ	4064
    96   000FE9                     fsr0            equ	4073
    97   000FEA                     fsr0h           equ	4074
    98   000FE9                     fsr0l           equ	4073
    99   000FE1                     fsr1            equ	4065
   100   000FE2                     fsr1h           equ	4066
   101   000FE1                     fsr1l           equ	4065
   102   000FD9                     fsr2            equ	4057
   103   000FDA                     fsr2h           equ	4058
   104   000FD9                     fsr2l           equ	4057
   105   000FEF                     indf0           equ	4079
   106   000FE7                     indf1           equ	4071
   107   000FDF                     indf2           equ	4063
   108   000FF2                     intcon          equ	4082
   109   000000                     nvmcon          equ	0
   110   000FF9                     pcl             equ	4089
   111   000FFA                     pclath          equ	4090
   112   000FFB                     pclatu          equ	4091
   113   000FEB                     plusw0          equ	4075
   114   000FE3                     plusw1          equ	4067
   115   000FDB                     plusw2          equ	4059
   116   000FED                     postdec0        equ	4077
   117   000FE5                     postdec1        equ	4069
   118   000FDD                     postdec2        equ	4061
   119   000FEE                     postinc0        equ	4078
   120   000FE6                     postinc1        equ	4070
   121   000FDE                     postinc2        equ	4062
   122   000FEC                     preinc0         equ	4076
   123   000FE4                     preinc1         equ	4068
   124   000FDC                     preinc2         equ	4060
   125   000FF3                     prod            equ	4083
   126   000FF4                     prodh           equ	4084
   127   000FF3                     prodl           equ	4083
   128   000FD8                     status          equ	4056
   129   000FF5                     tablat          equ	4085
   130   000FF6                     tblptr          equ	4086
   131   000FF7                     tblptrh         equ	4087
   132   000FF6                     tblptrl         equ	4086
   133   000FF8                     tblptru         equ	4088
   134   000FFD                     tosl            equ	4093
   135   000FE8                     wreg            equ	4072
   136   000F38                     ANSELA          equ	3896	;# 
   137   000F39                     ANSELB          equ	3897	;# 
   138   000F3A                     ANSELC          equ	3898	;# 
   139   000F3B                     ANSELD          equ	3899	;# 
   140   000F3C                     ANSELE          equ	3900	;# 
   141   000F3D                     PMD2            equ	3901	;# 
   142   000F3E                     PMD1            equ	3902	;# 
   143   000F3F                     PMD0            equ	3903	;# 
   144   000F40                     VREFCON2        equ	3904	;# 
   145   000F40                     DACCON1         equ	3904	;# 
   146   000F41                     VREFCON1        equ	3905	;# 
   147   000F41                     DACCON0         equ	3905	;# 
   148   000F42                     VREFCON0        equ	3906	;# 
   149   000F42                     FVRCON          equ	3906	;# 
   150   000F43                     CTMUICON        equ	3907	;# 
   151   000F43                     CTMUICONH       equ	3907	;# 
   152   000F44                     CTMUCONL        equ	3908	;# 
   153   000F44                     CTMUCON1        equ	3908	;# 
   154   000F45                     CTMUCONH        equ	3909	;# 
   155   000F45                     CTMUCON0        equ	3909	;# 
   156   000F46                     SRCON1          equ	3910	;# 
   157   000F47                     SRCON0          equ	3911	;# 
   158   000F48                     CCPTMRS1        equ	3912	;# 
   159   000F49                     CCPTMRS0        equ	3913	;# 
   160   000F4A                     T6CON           equ	3914	;# 
   161   000F4B                     PR6             equ	3915	;# 
   162   000F4C                     TMR6            equ	3916	;# 
   163   000F4D                     T5GCON          equ	3917	;# 
   164   000F4E                     T5CON           equ	3918	;# 
   165   000F4F                     TMR5            equ	3919	;# 
   166   000F4F                     TMR5L           equ	3919	;# 
   167   000F50                     TMR5H           equ	3920	;# 
   168   000F51                     T4CON           equ	3921	;# 
   169   000F52                     PR4             equ	3922	;# 
   170   000F53                     TMR4            equ	3923	;# 
   171   000F54                     CCP5CON         equ	3924	;# 
   172   000F55                     CCPR5           equ	3925	;# 
   173   000F55                     CCPR5L          equ	3925	;# 
   174   000F56                     CCPR5H          equ	3926	;# 
   175   000F57                     CCP4CON         equ	3927	;# 
   176   000F58                     CCPR4           equ	3928	;# 
   177   000F58                     CCPR4L          equ	3928	;# 
   178   000F59                     CCPR4H          equ	3929	;# 
   179   000F5A                     PSTR3CON        equ	3930	;# 
   180   000F5B                     ECCP3AS         equ	3931	;# 
   181   000F5B                     CCP3AS          equ	3931	;# 
   182   000F5C                     PWM3CON         equ	3932	;# 
   183   000F5D                     CCP3CON         equ	3933	;# 
   184   000F5E                     CCPR3           equ	3934	;# 
   185   000F5E                     CCPR3L          equ	3934	;# 
   186   000F5F                     CCPR3H          equ	3935	;# 
   187   000F60                     SLRCON          equ	3936	;# 
   188   000F61                     WPUB            equ	3937	;# 
   189   000F62                     IOCB            equ	3938	;# 
   190   000F63                     PSTR2CON        equ	3939	;# 
   191   000F64                     ECCP2AS         equ	3940	;# 
   192   000F64                     CCP2AS          equ	3940	;# 
   193   000F65                     PWM2CON         equ	3941	;# 
   194   000F66                     CCP2CON         equ	3942	;# 
   195   000F67                     CCPR2           equ	3943	;# 
   196   000F67                     CCPR2L          equ	3943	;# 
   197   000F68                     CCPR2H          equ	3944	;# 
   198   000F69                     SSP2CON3        equ	3945	;# 
   199   000F6A                     SSP2MSK         equ	3946	;# 
   200   000F6B                     SSP2CON2        equ	3947	;# 
   201   000F6C                     SSP2CON1        equ	3948	;# 
   202   000F6D                     SSP2STAT        equ	3949	;# 
   203   000F6E                     SSP2ADD         equ	3950	;# 
   204   000F6F                     SSP2BUF         equ	3951	;# 
   205   000F70                     BAUDCON2        equ	3952	;# 
   206   000F70                     BAUD2CON        equ	3952	;# 
   207   000F71                     RCSTA2          equ	3953	;# 
   208   000F71                     RC2STA          equ	3953	;# 
   209   000F72                     TXSTA2          equ	3954	;# 
   210   000F72                     TX2STA          equ	3954	;# 
   211   000F73                     TXREG2          equ	3955	;# 
   212   000F73                     TX2REG          equ	3955	;# 
   213   000F74                     RCREG2          equ	3956	;# 
   214   000F74                     RC2REG          equ	3956	;# 
   215   000F75                     SPBRG2          equ	3957	;# 
   216   000F75                     SP2BRG          equ	3957	;# 
   217   000F76                     SPBRGH2         equ	3958	;# 
   218   000F76                     SP2BRGH         equ	3958	;# 
   219   000F77                     CM2CON1         equ	3959	;# 
   220   000F77                     CM12CON         equ	3959	;# 
   221   000F78                     CM2CON0         equ	3960	;# 
   222   000F78                     CM2CON          equ	3960	;# 
   223   000F79                     CM1CON0         equ	3961	;# 
   224   000F79                     CM1CON          equ	3961	;# 
   225   000F7A                     PIE4            equ	3962	;# 
   226   000F7B                     PIR4            equ	3963	;# 
   227   000F7C                     IPR4            equ	3964	;# 
   228   000F7D                     PIE5            equ	3965	;# 
   229   000F7E                     PIR5            equ	3966	;# 
   230   000F7F                     IPR5            equ	3967	;# 
   231   000F80                     PORTA           equ	3968	;# 
   232   000F81                     PORTB           equ	3969	;# 
   233   000F82                     PORTC           equ	3970	;# 
   234   000F83                     PORTD           equ	3971	;# 
   235   000F84                     PORTE           equ	3972	;# 
   236   000F89                     LATA            equ	3977	;# 
   237   000F8A                     LATB            equ	3978	;# 
   238   000F8B                     LATC            equ	3979	;# 
   239   000F8C                     LATD            equ	3980	;# 
   240   000F8D                     LATE            equ	3981	;# 
   241   000F92                     TRISA           equ	3986	;# 
   242   000F92                     DDRA            equ	3986	;# 
   243   000F93                     TRISB           equ	3987	;# 
   244   000F93                     DDRB            equ	3987	;# 
   245   000F94                     TRISC           equ	3988	;# 
   246   000F94                     DDRC            equ	3988	;# 
   247   000F95                     TRISD           equ	3989	;# 
   248   000F95                     DDRD            equ	3989	;# 
   249   000F96                     TRISE           equ	3990	;# 
   250   000F96                     DDRE            equ	3990	;# 
   251   000F9B                     OSCTUNE         equ	3995	;# 
   252   000F9C                     HLVDCON         equ	3996	;# 
   253   000F9C                     LVDCON          equ	3996	;# 
   254   000F9D                     PIE1            equ	3997	;# 
   255   000F9E                     PIR1            equ	3998	;# 
   256   000F9F                     IPR1            equ	3999	;# 
   257   000FA0                     PIE2            equ	4000	;# 
   258   000FA1                     PIR2            equ	4001	;# 
   259   000FA2                     IPR2            equ	4002	;# 
   260   000FA3                     PIE3            equ	4003	;# 
   261   000FA4                     PIR3            equ	4004	;# 
   262   000FA5                     IPR3            equ	4005	;# 
   263   000FA6                     EECON1          equ	4006	;# 
   264   000FA7                     EECON2          equ	4007	;# 
   265   000FA8                     EEDATA          equ	4008	;# 
   266   000FA9                     EEADR           equ	4009	;# 
   267   000FAA                     EEADRH          equ	4010	;# 
   268   000FAB                     RCSTA1          equ	4011	;# 
   269   000FAB                     RCSTA           equ	4011	;# 
   270   000FAB                     RC1STA          equ	4011	;# 
   271   000FAC                     TXSTA1          equ	4012	;# 
   272   000FAC                     TXSTA           equ	4012	;# 
   273   000FAC                     TX1STA          equ	4012	;# 
   274   000FAD                     TXREG1          equ	4013	;# 
   275   000FAD                     TXREG           equ	4013	;# 
   276   000FAD                     TX1REG          equ	4013	;# 
   277   000FAE                     RCREG1          equ	4014	;# 
   278   000FAE                     RCREG           equ	4014	;# 
   279   000FAE                     RC1REG          equ	4014	;# 
   280   000FAF                     SPBRG1          equ	4015	;# 
   281   000FAF                     SPBRG           equ	4015	;# 
   282   000FAF                     SP1BRG          equ	4015	;# 
   283   000FB0                     SPBRGH1         equ	4016	;# 
   284   000FB0                     SPBRGH          equ	4016	;# 
   285   000FB0                     SP1BRGH         equ	4016	;# 
   286   000FB1                     T3CON           equ	4017	;# 
   287   000FB2                     TMR3            equ	4018	;# 
   288   000FB2                     TMR3L           equ	4018	;# 
   289   000FB3                     TMR3H           equ	4019	;# 
   290   000FB4                     T3GCON          equ	4020	;# 
   291   000FB6                     ECCP1AS         equ	4022	;# 
   292   000FB6                     ECCPAS          equ	4022	;# 
   293   000FB7                     PWM1CON         equ	4023	;# 
   294   000FB7                     PWMCON          equ	4023	;# 
   295   000FB8                     BAUDCON1        equ	4024	;# 
   296   000FB8                     BAUDCON         equ	4024	;# 
   297   000FB8                     BAUDCTL         equ	4024	;# 
   298   000FB8                     BAUD1CON        equ	4024	;# 
   299   000FB9                     PSTR1CON        equ	4025	;# 
   300   000FB9                     PSTRCON         equ	4025	;# 
   301   000FBA                     T2CON           equ	4026	;# 
   302   000FBB                     PR2             equ	4027	;# 
   303   000FBC                     TMR2            equ	4028	;# 
   304   000FBD                     CCP1CON         equ	4029	;# 
   305   000FBE                     CCPR1           equ	4030	;# 
   306   000FBE                     CCPR1L          equ	4030	;# 
   307   000FBF                     CCPR1H          equ	4031	;# 
   308   000FC0                     ADCON2          equ	4032	;# 
   309   000FC1                     ADCON1          equ	4033	;# 
   310   000FC2                     ADCON0          equ	4034	;# 
   311   000FC3                     ADRES           equ	4035	;# 
   312   000FC3                     ADRESL          equ	4035	;# 
   313   000FC4                     ADRESH          equ	4036	;# 
   314   000FC5                     SSP1CON2        equ	4037	;# 
   315   000FC5                     SSPCON2         equ	4037	;# 
   316   000FC6                     SSP1CON1        equ	4038	;# 
   317   000FC6                     SSPCON1         equ	4038	;# 
   318   000FC7                     SSP1STAT        equ	4039	;# 
   319   000FC7                     SSPSTAT         equ	4039	;# 
   320   000FC8                     SSP1ADD         equ	4040	;# 
   321   000FC8                     SSPADD          equ	4040	;# 
   322   000FC9                     SSP1BUF         equ	4041	;# 
   323   000FC9                     SSPBUF          equ	4041	;# 
   324   000FCA                     SSP1MSK         equ	4042	;# 
   325   000FCA                     SSPMSK          equ	4042	;# 
   326   000FCB                     SSP1CON3        equ	4043	;# 
   327   000FCB                     SSPCON3         equ	4043	;# 
   328   000FCC                     T1GCON          equ	4044	;# 
   329   000FCD                     T1CON           equ	4045	;# 
   330   000FCE                     TMR1            equ	4046	;# 
   331   000FCE                     TMR1L           equ	4046	;# 
   332   000FCF                     TMR1H           equ	4047	;# 
   333   000FD0                     RCON            equ	4048	;# 
   334   000FD1                     WDTCON          equ	4049	;# 
   335   000FD2                     OSCCON2         equ	4050	;# 
   336   000FD3                     OSCCON          equ	4051	;# 
   337   000FD5                     T0CON           equ	4053	;# 
   338   000FD6                     TMR0            equ	4054	;# 
   339   000FD6                     TMR0L           equ	4054	;# 
   340   000FD7                     TMR0H           equ	4055	;# 
   341   000FD8                     STATUS          equ	4056	;# 
   342   000FD9                     FSR2            equ	4057	;# 
   343   000FD9                     FSR2L           equ	4057	;# 
   344   000FDA                     FSR2H           equ	4058	;# 
   345   000FDB                     PLUSW2          equ	4059	;# 
   346   000FDC                     PREINC2         equ	4060	;# 
   347   000FDD                     POSTDEC2        equ	4061	;# 
   348   000FDE                     POSTINC2        equ	4062	;# 
   349   000FDF                     INDF2           equ	4063	;# 
   350   000FE0                     BSR             equ	4064	;# 
   351   000FE1                     FSR1            equ	4065	;# 
   352   000FE1                     FSR1L           equ	4065	;# 
   353   000FE2                     FSR1H           equ	4066	;# 
   354   000FE3                     PLUSW1          equ	4067	;# 
   355   000FE4                     PREINC1         equ	4068	;# 
   356   000FE5                     POSTDEC1        equ	4069	;# 
   357   000FE6                     POSTINC1        equ	4070	;# 
   358   000FE7                     INDF1           equ	4071	;# 
   359   000FE8                     WREG            equ	4072	;# 
   360   000FE9                     FSR0            equ	4073	;# 
   361   000FE9                     FSR0L           equ	4073	;# 
   362   000FEA                     FSR0H           equ	4074	;# 
   363   000FEB                     PLUSW0          equ	4075	;# 
   364   000FEC                     PREINC0         equ	4076	;# 
   365   000FED                     POSTDEC0        equ	4077	;# 
   366   000FEE                     POSTINC0        equ	4078	;# 
   367   000FEF                     INDF0           equ	4079	;# 
   368   000FF0                     INTCON3         equ	4080	;# 
   369   000FF1                     INTCON2         equ	4081	;# 
   370   000FF2                     INTCON          equ	4082	;# 
   371   000FF3                     PROD            equ	4083	;# 
   372   000FF3                     PRODL           equ	4083	;# 
   373   000FF4                     PRODH           equ	4084	;# 
   374   000FF5                     TABLAT          equ	4085	;# 
   375   000FF6                     TBLPTR          equ	4086	;# 
   376   000FF6                     TBLPTRL         equ	4086	;# 
   377   000FF7                     TBLPTRH         equ	4087	;# 
   378   000FF8                     TBLPTRU         equ	4088	;# 
   379   000FF9                     PCLAT           equ	4089	;# 
   380   000FF9                     PC              equ	4089	;# 
   381   000FF9                     PCL             equ	4089	;# 
   382   000FFA                     PCLATH          equ	4090	;# 
   383   000FFB                     PCLATU          equ	4091	;# 
   384   000FFC                     STKPTR          equ	4092	;# 
   385   000FFD                     TOS             equ	4093	;# 
   386   000FFD                     TOSL            equ	4093	;# 
   387   000FFE                     TOSH            equ	4094	;# 
   388   000FFF                     TOSU            equ	4095	;# 
   389   000F38                     ANSELA          equ	3896	;# 
   390   000F39                     ANSELB          equ	3897	;# 
   391   000F3A                     ANSELC          equ	3898	;# 
   392   000F3B                     ANSELD          equ	3899	;# 
   393   000F3C                     ANSELE          equ	3900	;# 
   394   000F3D                     PMD2            equ	3901	;# 
   395   000F3E                     PMD1            equ	3902	;# 
   396   000F3F                     PMD0            equ	3903	;# 
   397   000F40                     VREFCON2        equ	3904	;# 
   398   000F40                     DACCON1         equ	3904	;# 
   399   000F41                     VREFCON1        equ	3905	;# 
   400   000F41                     DACCON0         equ	3905	;# 
   401   000F42                     VREFCON0        equ	3906	;# 
   402   000F42                     FVRCON          equ	3906	;# 
   403   000F43                     CTMUICON        equ	3907	;# 
   404   000F43                     CTMUICONH       equ	3907	;# 
   405   000F44                     CTMUCONL        equ	3908	;# 
   406   000F44                     CTMUCON1        equ	3908	;# 
   407   000F45                     CTMUCONH        equ	3909	;# 
   408   000F45                     CTMUCON0        equ	3909	;# 
   409   000F46                     SRCON1          equ	3910	;# 
   410   000F47                     SRCON0          equ	3911	;# 
   411   000F48                     CCPTMRS1        equ	3912	;# 
   412   000F49                     CCPTMRS0        equ	3913	;# 
   413   000F4A                     T6CON           equ	3914	;# 
   414   000F4B                     PR6             equ	3915	;# 
   415   000F4C                     TMR6            equ	3916	;# 
   416   000F4D                     T5GCON          equ	3917	;# 
   417   000F4E                     T5CON           equ	3918	;# 
   418   000F4F                     TMR5            equ	3919	;# 
   419   000F4F                     TMR5L           equ	3919	;# 
   420   000F50                     TMR5H           equ	3920	;# 
   421   000F51                     T4CON           equ	3921	;# 
   422   000F52                     PR4             equ	3922	;# 
   423   000F53                     TMR4            equ	3923	;# 
   424   000F54                     CCP5CON         equ	3924	;# 
   425   000F55                     CCPR5           equ	3925	;# 
   426   000F55                     CCPR5L          equ	3925	;# 
   427   000F56                     CCPR5H          equ	3926	;# 
   428   000F57                     CCP4CON         equ	3927	;# 
   429   000F58                     CCPR4           equ	3928	;# 
   430   000F58                     CCPR4L          equ	3928	;# 
   431   000F59                     CCPR4H          equ	3929	;# 
   432   000F5A                     PSTR3CON        equ	3930	;# 
   433   000F5B                     ECCP3AS         equ	3931	;# 
   434   000F5B                     CCP3AS          equ	3931	;# 
   435   000F5C                     PWM3CON         equ	3932	;# 
   436   000F5D                     CCP3CON         equ	3933	;# 
   437   000F5E                     CCPR3           equ	3934	;# 
   438   000F5E                     CCPR3L          equ	3934	;# 
   439   000F5F                     CCPR3H          equ	3935	;# 
   440   000F60                     SLRCON          equ	3936	;# 
   441   000F61                     WPUB            equ	3937	;# 
   442   000F62                     IOCB            equ	3938	;# 
   443   000F63                     PSTR2CON        equ	3939	;# 
   444   000F64                     ECCP2AS         equ	3940	;# 
   445   000F64                     CCP2AS          equ	3940	;# 
   446   000F65                     PWM2CON         equ	3941	;# 
   447   000F66                     CCP2CON         equ	3942	;# 
   448   000F67                     CCPR2           equ	3943	;# 
   449   000F67                     CCPR2L          equ	3943	;# 
   450   000F68                     CCPR2H          equ	3944	;# 
   451   000F69                     SSP2CON3        equ	3945	;# 
   452   000F6A                     SSP2MSK         equ	3946	;# 
   453   000F6B                     SSP2CON2        equ	3947	;# 
   454   000F6C                     SSP2CON1        equ	3948	;# 
   455   000F6D                     SSP2STAT        equ	3949	;# 
   456   000F6E                     SSP2ADD         equ	3950	;# 
   457   000F6F                     SSP2BUF         equ	3951	;# 
   458   000F70                     BAUDCON2        equ	3952	;# 
   459   000F70                     BAUD2CON        equ	3952	;# 
   460   000F71                     RCSTA2          equ	3953	;# 
   461   000F71                     RC2STA          equ	3953	;# 
   462   000F72                     TXSTA2          equ	3954	;# 
   463   000F72                     TX2STA          equ	3954	;# 
   464   000F73                     TXREG2          equ	3955	;# 
   465   000F73                     TX2REG          equ	3955	;# 
   466   000F74                     RCREG2          equ	3956	;# 
   467   000F74                     RC2REG          equ	3956	;# 
   468   000F75                     SPBRG2          equ	3957	;# 
   469   000F75                     SP2BRG          equ	3957	;# 
   470   000F76                     SPBRGH2         equ	3958	;# 
   471   000F76                     SP2BRGH         equ	3958	;# 
   472   000F77                     CM2CON1         equ	3959	;# 
   473   000F77                     CM12CON         equ	3959	;# 
   474   000F78                     CM2CON0         equ	3960	;# 
   475   000F78                     CM2CON          equ	3960	;# 
   476   000F79                     CM1CON0         equ	3961	;# 
   477   000F79                     CM1CON          equ	3961	;# 
   478   000F7A                     PIE4            equ	3962	;# 
   479   000F7B                     PIR4            equ	3963	;# 
   480   000F7C                     IPR4            equ	3964	;# 
   481   000F7D                     PIE5            equ	3965	;# 
   482   000F7E                     PIR5            equ	3966	;# 
   483   000F7F                     IPR5            equ	3967	;# 
   484   000F80                     PORTA           equ	3968	;# 
   485   000F81                     PORTB           equ	3969	;# 
   486   000F82                     PORTC           equ	3970	;# 
   487   000F83                     PORTD           equ	3971	;# 
   488   000F84                     PORTE           equ	3972	;# 
   489   000F89                     LATA            equ	3977	;# 
   490   000F8A                     LATB            equ	3978	;# 
   491   000F8B                     LATC            equ	3979	;# 
   492   000F8C                     LATD            equ	3980	;# 
   493   000F8D                     LATE            equ	3981	;# 
   494   000F92                     TRISA           equ	3986	;# 
   495   000F92                     DDRA            equ	3986	;# 
   496   000F93                     TRISB           equ	3987	;# 
   497   000F93                     DDRB            equ	3987	;# 
   498   000F94                     TRISC           equ	3988	;# 
   499   000F94                     DDRC            equ	3988	;# 
   500   000F95                     TRISD           equ	3989	;# 
   501   000F95                     DDRD            equ	3989	;# 
   502   000F96                     TRISE           equ	3990	;# 
   503   000F96                     DDRE            equ	3990	;# 
   504   000F9B                     OSCTUNE         equ	3995	;# 
   505   000F9C                     HLVDCON         equ	3996	;# 
   506   000F9C                     LVDCON          equ	3996	;# 
   507   000F9D                     PIE1            equ	3997	;# 
   508   000F9E                     PIR1            equ	3998	;# 
   509   000F9F                     IPR1            equ	3999	;# 
   510   000FA0                     PIE2            equ	4000	;# 
   511   000FA1                     PIR2            equ	4001	;# 
   512   000FA2                     IPR2            equ	4002	;# 
   513   000FA3                     PIE3            equ	4003	;# 
   514   000FA4                     PIR3            equ	4004	;# 
   515   000FA5                     IPR3            equ	4005	;# 
   516   000FA6                     EECON1          equ	4006	;# 
   517   000FA7                     EECON2          equ	4007	;# 
   518   000FA8                     EEDATA          equ	4008	;# 
   519   000FA9                     EEADR           equ	4009	;# 
   520   000FAA                     EEADRH          equ	4010	;# 
   521   000FAB                     RCSTA1          equ	4011	;# 
   522   000FAB                     RCSTA           equ	4011	;# 
   523   000FAB                     RC1STA          equ	4011	;# 
   524   000FAC                     TXSTA1          equ	4012	;# 
   525   000FAC                     TXSTA           equ	4012	;# 
   526   000FAC                     TX1STA          equ	4012	;# 
   527   000FAD                     TXREG1          equ	4013	;# 
   528   000FAD                     TXREG           equ	4013	;# 
   529   000FAD                     TX1REG          equ	4013	;# 
   530   000FAE                     RCREG1          equ	4014	;# 
   531   000FAE                     RCREG           equ	4014	;# 
   532   000FAE                     RC1REG          equ	4014	;# 
   533   000FAF                     SPBRG1          equ	4015	;# 
   534   000FAF                     SPBRG           equ	4015	;# 
   535   000FAF                     SP1BRG          equ	4015	;# 
   536   000FB0                     SPBRGH1         equ	4016	;# 
   537   000FB0                     SPBRGH          equ	4016	;# 
   538   000FB0                     SP1BRGH         equ	4016	;# 
   539   000FB1                     T3CON           equ	4017	;# 
   540   000FB2                     TMR3            equ	4018	;# 
   541   000FB2                     TMR3L           equ	4018	;# 
   542   000FB3                     TMR3H           equ	4019	;# 
   543   000FB4                     T3GCON          equ	4020	;# 
   544   000FB6                     ECCP1AS         equ	4022	;# 
   545   000FB6                     ECCPAS          equ	4022	;# 
   546   000FB7                     PWM1CON         equ	4023	;# 
   547   000FB7                     PWMCON          equ	4023	;# 
   548   000FB8                     BAUDCON1        equ	4024	;# 
   549   000FB8                     BAUDCON         equ	4024	;# 
   550   000FB8                     BAUDCTL         equ	4024	;# 
   551   000FB8                     BAUD1CON        equ	4024	;# 
   552   000FB9                     PSTR1CON        equ	4025	;# 
   553   000FB9                     PSTRCON         equ	4025	;# 
   554   000FBA                     T2CON           equ	4026	;# 
   555   000FBB                     PR2             equ	4027	;# 
   556   000FBC                     TMR2            equ	4028	;# 
   557   000FBD                     CCP1CON         equ	4029	;# 
   558   000FBE                     CCPR1           equ	4030	;# 
   559   000FBE                     CCPR1L          equ	4030	;# 
   560   000FBF                     CCPR1H          equ	4031	;# 
   561   000FC0                     ADCON2          equ	4032	;# 
   562   000FC1                     ADCON1          equ	4033	;# 
   563   000FC2                     ADCON0          equ	4034	;# 
   564   000FC3                     ADRES           equ	4035	;# 
   565   000FC3                     ADRESL          equ	4035	;# 
   566   000FC4                     ADRESH          equ	4036	;# 
   567   000FC5                     SSP1CON2        equ	4037	;# 
   568   000FC5                     SSPCON2         equ	4037	;# 
   569   000FC6                     SSP1CON1        equ	4038	;# 
   570   000FC6                     SSPCON1         equ	4038	;# 
   571   000FC7                     SSP1STAT        equ	4039	;# 
   572   000FC7                     SSPSTAT         equ	4039	;# 
   573   000FC8                     SSP1ADD         equ	4040	;# 
   574   000FC8                     SSPADD          equ	4040	;# 
   575   000FC9                     SSP1BUF         equ	4041	;# 
   576   000FC9                     SSPBUF          equ	4041	;# 
   577   000FCA                     SSP1MSK         equ	4042	;# 
   578   000FCA                     SSPMSK          equ	4042	;# 
   579   000FCB                     SSP1CON3        equ	4043	;# 
   580   000FCB                     SSPCON3         equ	4043	;# 
   581   000FCC                     T1GCON          equ	4044	;# 
   582   000FCD                     T1CON           equ	4045	;# 
   583   000FCE                     TMR1            equ	4046	;# 
   584   000FCE                     TMR1L           equ	4046	;# 
   585   000FCF                     TMR1H           equ	4047	;# 
   586   000FD0                     RCON            equ	4048	;# 
   587   000FD1                     WDTCON          equ	4049	;# 
   588   000FD2                     OSCCON2         equ	4050	;# 
   589   000FD3                     OSCCON          equ	4051	;# 
   590   000FD5                     T0CON           equ	4053	;# 
   591   000FD6                     TMR0            equ	4054	;# 
   592   000FD6                     TMR0L           equ	4054	;# 
   593   000FD7                     TMR0H           equ	4055	;# 
   594   000FD8                     STATUS          equ	4056	;# 
   595   000FD9                     FSR2            equ	4057	;# 
   596   000FD9                     FSR2L           equ	4057	;# 
   597   000FDA                     FSR2H           equ	4058	;# 
   598   000FDB                     PLUSW2          equ	4059	;# 
   599   000FDC                     PREINC2         equ	4060	;# 
   600   000FDD                     POSTDEC2        equ	4061	;# 
   601   000FDE                     POSTINC2        equ	4062	;# 
   602   000FDF                     INDF2           equ	4063	;# 
   603   000FE0                     BSR             equ	4064	;# 
   604   000FE1                     FSR1            equ	4065	;# 
   605   000FE1                     FSR1L           equ	4065	;# 
   606   000FE2                     FSR1H           equ	4066	;# 
   607   000FE3                     PLUSW1          equ	4067	;# 
   608   000FE4                     PREINC1         equ	4068	;# 
   609   000FE5                     POSTDEC1        equ	4069	;# 
   610   000FE6                     POSTINC1        equ	4070	;# 
   611   000FE7                     INDF1           equ	4071	;# 
   612   000FE8                     WREG            equ	4072	;# 
   613   000FE9                     FSR0            equ	4073	;# 
   614   000FE9                     FSR0L           equ	4073	;# 
   615   000FEA                     FSR0H           equ	4074	;# 
   616   000FEB                     PLUSW0          equ	4075	;# 
   617   000FEC                     PREINC0         equ	4076	;# 
   618   000FED                     POSTDEC0        equ	4077	;# 
   619   000FEE                     POSTINC0        equ	4078	;# 
   620   000FEF                     INDF0           equ	4079	;# 
   621   000FF0                     INTCON3         equ	4080	;# 
   622   000FF1                     INTCON2         equ	4081	;# 
   623   000FF2                     INTCON          equ	4082	;# 
   624   000FF3                     PROD            equ	4083	;# 
   625   000FF3                     PRODL           equ	4083	;# 
   626   000FF4                     PRODH           equ	4084	;# 
   627   000FF5                     TABLAT          equ	4085	;# 
   628   000FF6                     TBLPTR          equ	4086	;# 
   629   000FF6                     TBLPTRL         equ	4086	;# 
   630   000FF7                     TBLPTRH         equ	4087	;# 
   631   000FF8                     TBLPTRU         equ	4088	;# 
   632   000FF9                     PCLAT           equ	4089	;# 
   633   000FF9                     PC              equ	4089	;# 
   634   000FF9                     PCL             equ	4089	;# 
   635   000FFA                     PCLATH          equ	4090	;# 
   636   000FFB                     PCLATU          equ	4091	;# 
   637   000FFC                     STKPTR          equ	4092	;# 
   638   000FFD                     TOS             equ	4093	;# 
   639   000FFD                     TOSL            equ	4093	;# 
   640   000FFE                     TOSH            equ	4094	;# 
   641   000FFF                     TOSU            equ	4095	;# 
   642                           
   643                           	psect	idataCOMRAM
   644   001910                     __pidataCOMRAM:
   645                           	callstack 0
   646                           
   647                           ;initializer for _menu_sel
   648   001910  FFFF               	dw	65535
   649                           
   650                           ;initializer for _LCD_entry_mode
   651   001912  06                 	db	6
   652                           
   653                           ;initializer for _LCD_display_control
   654   001913  0C                 	db	12
   655   000F3A                     _ANSELC         set	3898
   656   000F38                     _ANSELAbits     set	3896
   657   000F3A                     _ANSELCbits     set	3898
   658   000F39                     _ANSELBbits     set	3897
   659   000F95                     _TRISDbits      set	3989
   660   000F8C                     _LATDbits       set	3980
   661   000F82                     _PORTCbits      set	3970
   662   000F81                     _PORTBbits      set	3969
   663   000FC3                     _ADRESL         set	4035
   664   000FC4                     _ADRESH         set	4036
   665   000FC2                     _ADCON0bits     set	4034
   666   000FCD                     _T1CONbits      set	4045
   667   000FBE                     _CCPR1L         set	4030
   668   000FBF                     _CCPR1H         set	4031
   669   000FBD                     _CCP1CONbits    set	4029
   670   000FAD                     _TXREG          set	4013
   671   000FAC                     _TXSTAbits      set	4012
   672   000FAB                     _RCSTAbits      set	4011
   673   000FAE                     _RCREG1         set	4014
   674   000F9E                     _PIR1bits       set	3998
   675   000FF2                     _INTCONbits     set	4082
   676   000F9D                     _PIE1bits       set	3997
   677   000FAB                     _RCSTA1bits     set	4011
   678   000FAF                     _SPBRG1         set	4015
   679   000FB0                     _SPBRGH1        set	4016
   680   000FB8                     _BAUDCON1bits   set	4024
   681   000FAC                     _TXSTA1bits     set	4012
   682   000FC0                     _ADCON2         set	4032
   683   000FC1                     _ADCON1         set	4033
   684   000FC2                     _ADCON0         set	4034
   685   000F92                     _TRISAbits      set	3986
   686   000F94                     _TRISCbits      set	3988
   687   000F93                     _TRISBbits      set	3987
   688   000FD3                     _OSCCON         set	4051
   689                           
   690                           	psect	mediumconst
   691   00FEFE                     __pmediumconst:
   692                           	callstack 0
   693   00FEFE  00                 	db	0
   694   00FEFF                     STR_5:
   695   00FEFF  4F                 	db	79	;'O'
   696   00FF00  42                 	db	66	;'B'
   697   00FF01  44                 	db	68	;'D'
   698   00FF02  49                 	db	73	;'I'
   699   00FF03  49                 	db	73	;'I'
   700   00FF04  20                 	db	32
   701   00FF05  4E                 	db	78	;'N'
   702   00FF06  6F                 	db	111	;'o'
   703   00FF07  74                 	db	116	;'t'
   704   00FF08  20                 	db	32
   705   00FF09  46                 	db	70	;'F'
   706   00FF0A  6F                 	db	111	;'o'
   707   00FF0B  75                 	db	117	;'u'
   708   00FF0C  6E                 	db	110	;'n'
   709   00FF0D  64                 	db	100	;'d'
   710   00FF0E  20                 	db	32
   711   00FF0F  00                 	db	0
   712   00FF10                     STR_2:
   713   00FF10  3E                 	db	62	;'>'
   714   00FF11  3E                 	db	62	;'>'
   715   00FF12  3E                 	db	62	;'>'
   716   00FF13  20                 	db	32
   717   00FF14  4F                 	db	79	;'O'
   718   00FF15  42                 	db	66	;'B'
   719   00FF16  44                 	db	68	;'D'
   720   00FF17  49                 	db	73	;'I'
   721   00FF18  49                 	db	73	;'I'
   722   00FF19  50                 	db	80	;'P'
   723   00FF1A  49                 	db	73	;'I'
   724   00FF1B  43                 	db	67	;'C'
   725   00FF1C  20                 	db	32
   726   00FF1D  3C                 	db	60	;'<'
   727   00FF1E  3C                 	db	60	;'<'
   728   00FF1F  3C                 	db	60	;'<'
   729   00FF20  00                 	db	0
   730   00FF21                     STR_33:
   731   00FF21  59                 	db	89	;'Y'
   732   00FF22  2F                 	db	47
   733   00FF23  4E                 	db	78	;'N'
   734   00FF24  20                 	db	32
   735   00FF25  3C                 	db	60	;'<'
   736   00FF26  3C                 	db	60	;'<'
   737   00FF27  3C                 	db	60	;'<'
   738   00FF28  3C                 	db	60	;'<'
   739   00FF29  3C                 	db	60	;'<'
   740   00FF2A  3C                 	db	60	;'<'
   741   00FF2B  3C                 	db	60	;'<'
   742   00FF2C  3C                 	db	60	;'<'
   743   00FF2D  3C                 	db	60	;'<'
   744   00FF2E  3C                 	db	60	;'<'
   745   00FF2F  3C                 	db	60	;'<'
   746   00FF30  3C                 	db	60	;'<'
   747   00FF31  00                 	db	0
   748   00FF32                     STR_9:
   749   00FF32  4D                 	db	77	;'M'
   750   00FF33  45                 	db	69	;'E'
   751   00FF34  4E                 	db	78	;'N'
   752   00FF35  55                 	db	85	;'U'
   753   00FF36  20                 	db	32
   754   00FF37  3C                 	db	60	;'<'
   755   00FF38  4F                 	db	79	;'O'
   756   00FF39  42                 	db	66	;'B'
   757   00FF3A  44                 	db	68	;'D'
   758   00FF3B  49                 	db	73	;'I'
   759   00FF3C  49                 	db	73	;'I'
   760   00FF3D  50                 	db	80	;'P'
   761   00FF3E  49                 	db	73	;'I'
   762   00FF3F  43                 	db	67	;'C'
   763   00FF40  3E                 	db	62	;'>'
   764   00FF41  00                 	db	0
   765   00FF42                     STR_10:
   766   00FF42  4C                 	db	76	;'L'
   767   00FF43  52                 	db	82	;'R'
   768   00FF44  4D                 	db	77	;'M'
   769   00FF45  20                 	db	32
   770   00FF46  52                 	db	82	;'R'
   771   00FF47  44                 	db	68	;'D'
   772   00FF48  43                 	db	67	;'C'
   773   00FF49  20                 	db	32
   774   00FF4A  43                 	db	67	;'C'
   775   00FF4B  44                 	db	68	;'D'
   776   00FF4C  43                 	db	67	;'C'
   777   00FF4D  20                 	db	32
   778   00FF4E  44                 	db	68	;'D'
   779   00FF4F  53                 	db	83	;'S'
   780   00FF50  49                 	db	73	;'I'
   781   00FF51  00                 	db	0
   782   00FF52                     STR_37:
   783   00FF52  4E                 	db	78	;'N'
   784   00FF53  6F                 	db	111	;'o'
   785   00FF54  74                 	db	116	;'t'
   786   00FF55  68                 	db	104	;'h'
   787   00FF56  69                 	db	105	;'i'
   788   00FF57  6E                 	db	110	;'n'
   789   00FF58  67                 	db	103	;'g'
   790   00FF59  20                 	db	32
   791   00FF5A  43                 	db	67	;'C'
   792   00FF5B  6C                 	db	108	;'l'
   793   00FF5C  65                 	db	101	;'e'
   794   00FF5D  61                 	db	97	;'a'
   795   00FF5E  72                 	db	114	;'r'
   796   00FF5F  65                 	db	101	;'e'
   797   00FF60  64                 	db	100	;'d'
   798   00FF61  00                 	db	0
   799   00FF62                     STR_3:
   800   00FF62  3E                 	db	62	;'>'
   801   00FF63  3E                 	db	62	;'>'
   802   00FF64  3E                 	db	62	;'>'
   803   00FF65  3E                 	db	62	;'>'
   804   00FF66  20                 	db	32
   805   00FF67  56                 	db	86	;'V'
   806   00FF68  31                 	db	49	;'1'
   807   00FF69  2E                 	db	46
   808   00FF6A  30                 	db	48	;'0'
   809   00FF6B  20                 	db	32
   810   00FF6C  3C                 	db	60	;'<'
   811   00FF6D  3C                 	db	60	;'<'
   812   00FF6E  3C                 	db	60	;'<'
   813   00FF6F  3C                 	db	60	;'<'
   814   00FF70  00                 	db	0
   815   00FF71                     STR_32:
   816   00FF71  43                 	db	67	;'C'
   817   00FF72  6C                 	db	108	;'l'
   818   00FF73  65                 	db	101	;'e'
   819   00FF74  61                 	db	97	;'a'
   820   00FF75  72                 	db	114	;'r'
   821   00FF76  20                 	db	32
   822   00FF77  43                 	db	67	;'C'
   823   00FF78  6F                 	db	111	;'o'
   824   00FF79  64                 	db	100	;'d'
   825   00FF7A  65                 	db	101	;'e'
   826   00FF7B  28                 	db	40
   827   00FF7C  73                 	db	115	;'s'
   828   00FF7D  29                 	db	41
   829   00FF7E  3F                 	db	63	;'?'
   830   00FF7F  00                 	db	0
   831   00FF80                     STR_7:
   832   00FF80  4F                 	db	79	;'O'
   833   00FF81  42                 	db	66	;'B'
   834   00FF82  44                 	db	68	;'D'
   835   00FF83  49                 	db	73	;'I'
   836   00FF84  49                 	db	73	;'I'
   837   00FF85  20                 	db	32
   838   00FF86  44                 	db	68	;'D'
   839   00FF87  65                 	db	101	;'e'
   840   00FF88  74                 	db	116	;'t'
   841   00FF89  65                 	db	101	;'e'
   842   00FF8A  63                 	db	99	;'c'
   843   00FF8B  74                 	db	116	;'t'
   844   00FF8C  65                 	db	101	;'e'
   845   00FF8D  64                 	db	100	;'d'
   846   00FF8E  00                 	db	0
   847   00FF8F                     STR_31:
   848   00FF8F  20                 	db	32
   849   00FF90  20                 	db	32
   850   00FF91  20                 	db	32
   851   00FF92  20                 	db	32
   852   00FF93  20                 	db	32
   853   00FF94  20                 	db	32
   854   00FF95  20                 	db	32
   855   00FF96  20                 	db	32
   856   00FF97  20                 	db	32
   857   00FF98  20                 	db	32
   858   00FF99  20                 	db	32
   859   00FF9A  20                 	db	32
   860   00FF9B  20                 	db	32
   861   00FF9C  00                 	db	0
   862   00FF9D                     STR_35:
   863   00FF9D  43                 	db	67	;'C'
   864   00FF9E  6F                 	db	111	;'o'
   865   00FF9F  64                 	db	100	;'d'
   866   00FFA0  65                 	db	101	;'e'
   867   00FFA1  73                 	db	115	;'s'
   868   00FFA2  20                 	db	32
   869   00FFA3  43                 	db	67	;'C'
   870   00FFA4  6C                 	db	108	;'l'
   871   00FFA5  65                 	db	101	;'e'
   872   00FFA6  61                 	db	97	;'a'
   873   00FFA7  72                 	db	114	;'r'
   874   00FFA8  65                 	db	101	;'e'
   875   00FFA9  64                 	db	100	;'d'
   876   00FFAA  00                 	db	0
   877   00FFAB                     STR_36:
   878   00FFAB  54                 	db	84	;'T'
   879   00FFAC  6F                 	db	111	;'o'
   880   00FFAD  20                 	db	32
   881   00FFAE  4D                 	db	77	;'M'
   882   00FFAF  65                 	db	101	;'e'
   883   00FFB0  6E                 	db	110	;'n'
   884   00FFB1  75                 	db	117	;'u'
   885   00FFB2  2E                 	db	46
   886   00FFB3  2E                 	db	46
   887   00FFB4  2E                 	db	46
   888   00FFB5  00                 	db	0
   889   00FFB6                     STR_1:
   890   00FFB6  41                 	db	65	;'A'
   891   00FFB7  54                 	db	84	;'T'
   892   00FFB8  45                 	db	69	;'E'
   893   00FFB9  30                 	db	48	;'0'
   894   00FFBA  0D                 	db	13
   895   00FFBB  00                 	db	0
   896   00FFBC                     STR_28:
   897   00FFBC  30                 	db	48	;'0'
   898   00FFBD  31                 	db	49	;'1'
   899   00FFBE  30                 	db	48	;'0'
   900   00FFBF  38                 	db	56	;'8'
   901   00FFC0  0D                 	db	13
   902   00FFC1  00                 	db	0
   903   00FFC2                     STR_13:
   904   00FFC2  30                 	db	48	;'0'
   905   00FFC3  31                 	db	49	;'1'
   906   00FFC4  30                 	db	48	;'0'
   907   00FFC5  43                 	db	67	;'C'
   908   00FFC6  0D                 	db	13
   909   00FFC7  00                 	db	0
   910   00FFC8                     STR_21:
   911   00FFC8  30                 	db	48	;'0'
   912   00FFC9  31                 	db	49	;'1'
   913   00FFCA  30                 	db	48	;'0'
   914   00FFCB  46                 	db	70	;'F'
   915   00FFCC  0D                 	db	13
   916   00FFCD  00                 	db	0
   917   00FFCE                     STR_17:
   918   00FFCE  41                 	db	65	;'A'
   919   00FFCF  54                 	db	84	;'T'
   920   00FFD0  52                 	db	82	;'R'
   921   00FFD1  56                 	db	86	;'V'
   922   00FFD2  0D                 	db	13
   923   00FFD3  00                 	db	0
   924   00FFD4                     STR_19:
   925   00FFD4  56                 	db	86	;'V'
   926   00FFD5  42                 	db	66	;'B'
   927   00FFD6  61                 	db	97	;'a'
   928   00FFD7  74                 	db	116	;'t'
   929   00FFD8  74                 	db	116	;'t'
   930   00FFD9  00                 	db	0
   931   00FFDA                     STR_4:
   932   00FFDA  41                 	db	65	;'A'
   933   00FFDB  54                 	db	84	;'T'
   934   00FFDC  49                 	db	73	;'I'
   935   00FFDD  0D                 	db	13
   936   00FFDE  00                 	db	0
   937   00FFDF                     STR_29:
   938   00FFDF  53                 	db	83	;'S'
   939   00FFE0  41                 	db	65	;'A'
   940   00FFE1  45                 	db	69	;'E'
   941   00FFE2  3A                 	db	58	;':'
   942   00FFE3  00                 	db	0
   943   00FFE4                     STR_34:
   944   00FFE4  30                 	db	48	;'0'
   945   00FFE5  34                 	db	52	;'4'
   946   00FFE6  0D                 	db	13
   947   00FFE7  00                 	db	0
   948   00FFE8                     STR_27:
   949   00FFE8  4F                 	db	79	;'O'
   950   00FFE9  53                 	db	83	;'S'
   951   00FFEA  3A                 	db	58	;':'
   952   00FFEB  00                 	db	0
   953   00FFEC                     STR_20:
   954   00FFEC  4E                 	db	78	;'N'
   955   00FFED  2F                 	db	47
   956   00FFEE  41                 	db	65	;'A'
   957   00FFEF  00                 	db	0
   958   00FFF0                     STR_16:
   959   00FFF0  52                 	db	82	;'R'
   960   00FFF1  50                 	db	80	;'P'
   961   00FFF2  4D                 	db	77	;'M'
   962   00FFF3  00                 	db	0
   963   00FFF4                     STR_24:
   964   00FFF4  41                 	db	65	;'A'
   965   00FFF5  49                 	db	73	;'I'
   966   00FFF6  54                 	db	84	;'T'
   967   00FFF7  00                 	db	0
   968   00FFF8                     STR_14:
   969   00FFF8  25                 	db	37
   970   00FFF9  75                 	db	117	;'u'
   971   00FFFA  00                 	db	0
   972   00FFFB                     STR_11:
   973   00FFFB  40                 	db	64	;'@'
   974   00FFFC  00                 	db	0
   975   00FFFD                     STR_25:
   976   00FFFD  43                 	db	67	;'C'
   977   00FFFE  00                 	db	0
   978   00FFF8                     STR_23          equ	STR_14
   979   00FFAB                     STR_38          equ	STR_36
   980   00FF90                     STR_30          equ	STR_31+1
   981   00FF97                     STR_15          equ	STR_31+8
   982   00FF97                     STR_18          equ	STR_31+8
   983   00FF99                     STR_22          equ	STR_31+10
   984   00FF9B                     STR_12          equ	STR_31+12
   985   00FFDA                     STR_6           equ	STR_4
   986   00FFDA                     STR_26          equ	STR_4
   987   00FFB6                     STR_8           equ	STR_1
   988   00FFFF  00                 	db	0	; dummy byte at the end
   989   00FEFE                     __smallconst    set	__pmediumconst
   990   00FEFE                     __mediumconst   set	__pmediumconst
   991   000002                     __activetblptr  equ	2
   992                           
   993                           ; #config settings
   994                           
   995                           	psect	cinit
   996   00165C                     __pcinit:
   997                           	callstack 0
   998   00165C                     start_initialization:
   999                           	callstack 0
  1000   00165C                     __initialization:
  1001                           	callstack 0
  1002                           
  1003                           ; Initialize objects allocated to COMRAM (4 bytes)
  1004                           ; load TBLPTR registers with __pidataCOMRAM
  1005   00165C  0E10               	movlw	low __pidataCOMRAM
  1006   00165E  6EF6               	movwf	tblptrl,c
  1007   001660  0E19               	movlw	high __pidataCOMRAM
  1008   001662  6EF7               	movwf	tblptrh,c
  1009   001664  0E00               	movlw	low (__pidataCOMRAM shr (0+16))
  1010   001666  6EF8               	movwf	tblptru,c
  1011   001668  EE00  F04F         	lfsr	0,__pdataCOMRAM
  1012   00166C  EE10 F004          	lfsr	1,4
  1013   001670                     copy_data0:
  1014   001670  0009               	tblrd		*+
  1015   001672  CFF5 FFEE          	movff	tablat,postinc0
  1016   001676  50E5               	movf	postdec1,w,c
  1017   001678  50E1               	movf	fsr1l,w,c
  1018   00167A  E1FA               	bnz	copy_data0
  1019                           
  1020                           ; Clear objects allocated to BANK0 (96 bytes)
  1021   00167C  EE00  F060         	lfsr	0,__pbssBANK0
  1022   001680  0E60               	movlw	96
  1023   001682                     clear_0:
  1024   001682  6AEE               	clrf	postinc0,c
  1025   001684  06E8               	decf	wreg,f,c
  1026   001686  E1FD               	bnz	clear_0
  1027                           
  1028                           ; Clear objects allocated to COMRAM (24 bytes)
  1029   001688  EE00  F037         	lfsr	0,__pbssCOMRAM
  1030   00168C  0E18               	movlw	24
  1031   00168E                     clear_1:
  1032   00168E  6AEE               	clrf	postinc0,c
  1033   001690  06E8               	decf	wreg,f,c
  1034   001692  E1FD               	bnz	clear_1
  1035   001694                     end_of_initialization:
  1036                           	callstack 0
  1037   001694                     __end_of__initialization:
  1038                           	callstack 0
  1039   001694  9053               	bcf	int$flags,0,c	;clear compiler interrupt flag (level 1)
  1040   001696  9253               	bcf	int$flags,1,c	;clear compiler interrupt flag (level 2)
  1041   001698  0E00               	movlw	low (__Lmediumconst shr (0+16))
  1042   00169A  6EF8               	movwf	tblptru,c
  1043   00169C  0100               	movlb	0
  1044   00169E  EF6F  F00A         	goto	_main	;jump to C main() function
  1045                           
  1046                           	psect	bssCOMRAM
  1047   000037                     __pbssCOMRAM:
  1048                           	callstack 0
  1049   000037                     	ds	4
  1050   00003B                     _width:
  1051                           	callstack 0
  1052   00003B                     	ds	2
  1053   00003D                     _prec:
  1054                           	callstack 0
  1055   00003D                     	ds	2
  1056   00003F                     _air_intake_temp:
  1057                           	callstack 0
  1058   00003F                     	ds	2
  1059   000041                     _A_air_intake:
  1060                           	callstack 0
  1061   000041                     	ds	2
  1062   000043                     _RPM:
  1063                           	callstack 0
  1064   000043                     	ds	2
  1065   000045                     _B_rpm:
  1066                           	callstack 0
  1067   000045                     	ds	2
  1068   000047                     _A_rpm:
  1069                           	callstack 0
  1070   000047                     	ds	2
  1071   000049                     _result:
  1072                           	callstack 0
  1073   000049                     	ds	2
  1074   00004B                     _flags:
  1075                           	callstack 0
  1076   00004B                     	ds	1
  1077   00004C                     _message_complete:
  1078                           	callstack 0
  1079   00004C                     	ds	1
  1080   00004D                     _RX_char:
  1081                           	callstack 0
  1082   00004D                     	ds	1
  1083   00004E                     _buffer_count:
  1084                           	callstack 0
  1085   00004E                     	ds	1
  1086                           
  1087                           	psect	dataCOMRAM
  1088   00004F                     __pdataCOMRAM:
  1089                           	callstack 0
  1090   00004F                     _menu_sel:
  1091                           	callstack 0
  1092   00004F                     	ds	2
  1093   000051                     _LCD_entry_mode:
  1094                           	callstack 0
  1095   000051                     	ds	1
  1096   000052                     _LCD_display_control:
  1097                           	callstack 0
  1098   000052                     	ds	1
  1099                           
  1100                           	psect	bssBANK0
  1101   000060                     __pbssBANK0:
  1102                           	callstack 0
  1103   000060                     _dbuf:
  1104                           	callstack 0
  1105   000060                     	ds	32
  1106   000080                     _buffer:
  1107                           	callstack 0
  1108   000080                     	ds	32
  1109   0000A0                     _air_intake_string:
  1110                           	callstack 0
  1111   0000A0                     	ds	16
  1112   0000B0                     _rpm_string:
  1113                           	callstack 0
  1114   0000B0                     	ds	16
  1115                           
  1116                           	psect	cstackCOMRAM
  1117   000001                     __pcstackCOMRAM:
  1118                           	callstack 0
  1119   000001                     ??_UART_ISR:
  1120                           
  1121                           ; 1 bytes @ 0x0
  1122   000001                     	ds	2
  1123   000003                     ?_readADC:
  1124                           	callstack 0
  1125   000003                     ?___lwdiv:
  1126                           	callstack 0
  1127   000003                     ?___lwmod:
  1128                           	callstack 0
  1129   000003                     ?___lmul:
  1130                           	callstack 0
  1131   000003                     ?___aldiv:
  1132                           	callstack 0
  1133   000003                     ?___almod:
  1134                           	callstack 0
  1135   000003                     UART1_SendChar@c:
  1136                           	callstack 0
  1137   000003                     hex_char_to_value@c:
  1138                           	callstack 0
  1139   000003                     strchr@s:
  1140                           	callstack 0
  1141   000003                     ___lwdiv@dividend:
  1142                           	callstack 0
  1143   000003                     ___lwmod@dividend:
  1144                           	callstack 0
  1145   000003                     fputc@c:
  1146                           	callstack 0
  1147   000003                     ___lmul@multiplier:
  1148                           	callstack 0
  1149   000003                     ___aldiv@dividend:
  1150                           	callstack 0
  1151   000003                     ___almod@dividend:
  1152                           	callstack 0
  1153   000003                     ??_LCD_write_command:
  1154   000003                     ??_LCD_write_data:
  1155                           
  1156                           ; 1 bytes @ 0x2
  1157   000003                     	ds	1
  1158   000004                     UART1_SendString@string:
  1159                           	callstack 0
  1160   000004                     strchr@c:
  1161                           	callstack 0
  1162                           
  1163                           ; 2 bytes @ 0x3
  1164   000004                     	ds	1
  1165   000005                     LCD_write_command@command:
  1166                           	callstack 0
  1167   000005                     LCD_write_data@data:
  1168                           	callstack 0
  1169   000005                     fputc@fp:
  1170                           	callstack 0
  1171   000005                     ___lwdiv@divisor:
  1172                           	callstack 0
  1173   000005                     ___lwmod@divisor:
  1174                           	callstack 0
  1175   000005                     ??_readADC:
  1176                           
  1177                           ; 1 bytes @ 0x4
  1178   000005                     	ds	1
  1179   000006                     LCD_cursor_set@column:
  1180                           	callstack 0
  1181   000006                     LCD_configure_cursor_blink@state:
  1182                           	callstack 0
  1183   000006                     LCD_write_string@string:
  1184                           	callstack 0
  1185   000006                     ??_LCD_clear:
  1186   000006                     ??_UART1_SendString:
  1187   000006                     ??_fputc:
  1188                           
  1189                           ; 1 bytes @ 0x5
  1190   000006                     	ds	1
  1191   000007                     LCD_cursor_set@row:
  1192                           	callstack 0
  1193   000007                     ___lwmod@counter:
  1194                           	callstack 0
  1195   000007                     ___lwdiv@quotient:
  1196                           	callstack 0
  1197   000007                     ___lmul@multiplicand:
  1198                           	callstack 0
  1199   000007                     ___aldiv@divisor:
  1200                           	callstack 0
  1201   000007                     ___almod@divisor:
  1202                           	callstack 0
  1203   000007                     ??_LCD_init:
  1204   000007                     
  1205                           ; 1 bytes @ 0x6
  1206   000007                     	ds	1
  1207   000008                     UART1_SendString@i:
  1208                           	callstack 0
  1209   000008                     ??_LCD_write_string:
  1210                           
  1211                           ; 1 bytes @ 0x7
  1212   000008                     	ds	1
  1213   000009                     ___lwdiv@counter:
  1214                           	callstack 0
  1215                           
  1216                           ; 1 bytes @ 0x8
  1217   000009                     	ds	1
  1218   00000A                     LCD_write_string@i:
  1219                           	callstack 0
  1220                           
  1221                           ; 1 bytes @ 0x9
  1222   00000A                     	ds	1
  1223   00000B                     ___aldiv@counter:
  1224                           	callstack 0
  1225   00000B                     ___almod@counter:
  1226                           	callstack 0
  1227   00000B                     vfpfcnvrt@fp:
  1228                           	callstack 0
  1229   00000B                     ___lmul@product:
  1230                           	callstack 0
  1231   00000B                     ??_clear_diagnostic_codes:
  1232   00000B                     ??_print_Vbatt:
  1233   00000B                     ??_print_ELMVer:
  1234   00000B                     ??_print_SAEVer:
  1235   00000B                     
  1236                           ; 1 bytes @ 0xA
  1237   00000B                     	ds	1
  1238   00000C                     ___aldiv@sign:
  1239                           	callstack 0
  1240   00000C                     ___almod@sign:
  1241                           	callstack 0
  1242   00000C                     vfpfcnvrt@fmt:
  1243                           	callstack 0
  1244   00000C                     
  1245                           ; 1 bytes @ 0xB
  1246   00000C                     	ds	1
  1247   00000D                     vfpfcnvrt@ap:
  1248                           	callstack 0
  1249   00000D                     clear_diagnostic_codes@opt_sel:
  1250                           	callstack 0
  1251   00000D                     ___aldiv@quotient:
  1252                           	callstack 0
  1253                           
  1254                           ; 4 bytes @ 0xC
  1255   00000D                     	ds	1
  1256   00000E                     ??_vfpfcnvrt:
  1257                           
  1258                           ; 1 bytes @ 0xD
  1259   00000E                     	ds	2
  1260   000010                     vfpfcnvrt@cp:
  1261                           	callstack 0
  1262                           
  1263                           ; 2 bytes @ 0xF
  1264   000010                     	ds	1
  1265   000011                     LCD_write_variable@variable:
  1266                           	callstack 0
  1267                           
  1268                           ; 4 bytes @ 0x10
  1269   000011                     	ds	1
  1270   000012                     vfpfcnvrt@convarg:
  1271                           	callstack 0
  1272                           
  1273                           ; 4 bytes @ 0x11
  1274   000012                     	ds	3
  1275   000015                     LCD_write_variable@left_offset:
  1276                           	callstack 0
  1277                           
  1278                           ; 1 bytes @ 0x14
  1279   000015                     	ds	1
  1280   000016                     LCD_write_variable@i:
  1281                           	callstack 0
  1282   000016                     vfpfcnvrt@c:
  1283                           	callstack 0
  1284   000016                     
  1285                           ; 1 bytes @ 0x15
  1286   000016                     	ds	1
  1287   000017                     ?_vfprintf:
  1288                           	callstack 0
  1289   000017                     LCD_write_variable@digits:
  1290                           	callstack 0
  1291   000017                     vfprintf@fp:
  1292                           	callstack 0
  1293                           
  1294                           ; 1 bytes @ 0x16
  1295   000017                     	ds	1
  1296   000018                     vfprintf@fmt:
  1297                           	callstack 0
  1298   000018                     LCD_write_variable@temp_variable:
  1299                           	callstack 0
  1300                           
  1301                           ; 4 bytes @ 0x17
  1302   000018                     	ds	2
  1303   00001A                     vfprintf@ap:
  1304                           	callstack 0
  1305                           
  1306                           ; 1 bytes @ 0x19
  1307   00001A                     	ds	1
  1308   00001B                     vfprintf@cfmt:
  1309                           	callstack 0
  1310   00001B                     
  1311                           ; 1 bytes @ 0x1A
  1312   00001B                     	ds	1
  1313   00001C                     ??_welcome_splash:
  1314                           
  1315                           ; 1 bytes @ 0x1B
  1316   00001C                     	ds	1
  1317   00001D                     ?_sprintf:
  1318                           	callstack 0
  1319   00001D                     sprintf@s:
  1320                           	callstack 0
  1321                           
  1322                           ; 1 bytes @ 0x1C
  1323   00001D                     	ds	1
  1324   00001E                     welcome_splash@plug_flag:
  1325                           	callstack 0
  1326   00001E                     sprintf@fmt:
  1327                           	callstack 0
  1328                           
  1329                           ; 2 bytes @ 0x1D
  1330   00001E                     	ds	2
  1331   000020                     welcome_splash@CCP1IF_counter:
  1332                           	callstack 0
  1333                           
  1334                           ; 2 bytes @ 0x1F
  1335   000020                     	ds	2
  1336   000022                     sprintf@ap:
  1337                           	callstack 0
  1338   000022                     
  1339                           ; 1 bytes @ 0x21
  1340   000022                     	ds	1
  1341   000023                     sprintf@f:
  1342                           	callstack 0
  1343                           
  1344                           ; 11 bytes @ 0x22
  1345   000023                     	ds	11
  1346   00002E                     ??_print_RPM:
  1347   00002E                     ??_print_AI_Temp:
  1348                           
  1349                           ; 1 bytes @ 0x2D
  1350   00002E                     	ds	3
  1351   000031                     ??_live_reading_mode:
  1352                           
  1353                           ; 1 bytes @ 0x30
  1354   000031                     	ds	2
  1355   000033                     ??_main_menu:
  1356                           
  1357                           ; 1 bytes @ 0x32
  1358   000033                     	ds	2
  1359   000035                     ??_main:
  1360                           
  1361                           ; 1 bytes @ 0x34
  1362   000035                     	ds	2
  1363                           
  1364 ;;
  1365 ;;Main: autosize = 0, tempsize = 2, incstack = 0, save=0
  1366 ;;
  1367 ;; *************** function _main *****************
  1368 ;; Defined at:
  1369 ;;		line 69 in file "OBCII_PIC18F46K22.c"
  1370 ;; Parameters:    Size  Location     Type
  1371 ;;		None
  1372 ;; Auto vars:     Size  Location     Type
  1373 ;;		None
  1374 ;; Return value:  Size  Location     Type
  1375 ;;                  1    wreg      void 
  1376 ;; Registers used:
  1377 ;;		wreg, fsr0l, fsr0h, fsr1l, fsr1h, fsr2l, fsr2h, status,2, status,0, tblptrl, tblptrh, tblptru, cstack
  1378 ;; Tracked objects:
  1379 ;;		On entry : 0/0
  1380 ;;		On exit  : 0/0
  1381 ;;		Unchanged: 0/0
  1382 ;; Data sizes:     COMRAM   BANK0   BANK1   BANK2   BANK3   BANK4   BANK5   BANK6   BANK7   BANK8   BANK9  BANK10  BANK1
      +1  BANK12  BANK13  BANK14  BANK15
  1383 ;;      Params:         0       0       0       0       0       0       0       0       0       0       0       0       
      +0       0       0       0       0
  1384 ;;      Locals:         0       0       0       0       0       0       0       0       0       0       0       0       
      +0       0       0       0       0
  1385 ;;      Temps:          2       0       0       0       0       0       0       0       0       0       0       0       
      +0       0       0       0       0
  1386 ;;      Totals:         2       0       0       0       0       0       0       0       0       0       0       0       
      +0       0       0       0       0
  1387 ;;Total ram usage:        2 bytes
  1388 ;; Hardware stack levels required when called: 9
  1389 ;; This function calls:
  1390 ;;		_ADC_init
  1391 ;;		_LCD_clear
  1392 ;;		_LCD_init
  1393 ;;		_UART1_Init
  1394 ;;		_UART1_SendString
  1395 ;;		_input_init
  1396 ;;		_main_menu
  1397 ;;		_welcome_splash
  1398 ;; This function is called by:
  1399 ;;		Startup code after reset
  1400 ;; This function uses a non-reentrant model
  1401 ;;
  1402                           
  1403                           	psect	text0
  1404   0014DE                     __ptext0:
  1405                           	callstack 0
  1406   0014DE                     _main:
  1407                           	callstack 22
  1408   0014DE                     
  1409                           ;OBCII_PIC18F46K22.c: 72:     OSCCON = 0b01110000;
  1410   0014DE  0E70               	movlw	112
  1411   0014E0  6ED3               	movwf	211,c	;volatile
  1412   0014E2                     
  1413                           ;OBCII_PIC18F46K22.c: 76:     LCD_init();
  1414   0014E2  EC85  F009         	call	_LCD_init	;wreg free
  1415   0014E6                     
  1416                           ;OBCII_PIC18F46K22.c: 77:     LCD_clear();
  1417   0014E6  EC32  F00C         	call	_LCD_clear	;wreg free
  1418   0014EA                     
  1419                           ;OBCII_PIC18F46K22.c: 78:     input_init();
  1420   0014EA  EC74  F00C         	call	_input_init	;wreg free
  1421                           
  1422                           ;OBCII_PIC18F46K22.c: 79:     ADC_init();
  1423   0014EE  EC82  F00C         	call	_ADC_init	;wreg free
  1424                           
  1425                           ;OBCII_PIC18F46K22.c: 80:     UART1_Init();
  1426   0014F2  ECF8  F00B         	call	_UART1_Init	;wreg free
  1427   0014F6                     
  1428                           ;OBCII_PIC18F46K22.c: 82:     _delay((unsigned long)((2000)*(16000000/4000.0)));
  1429   0014F6  0E29               	movlw	41
  1430   0014F8  6E36               	movwf	(??_main+1)^0,c
  1431   0014FA  0E96               	movlw	150
  1432   0014FC  6E35               	movwf	??_main^0,c
  1433   0014FE  0E7F               	movlw	127
  1434   001500                     u2437:
  1435   001500  2EE8               	decfsz	wreg,f,c
  1436   001502  D7FE               	bra	u2437
  1437   001504  2E35               	decfsz	??_main^0,f,c
  1438   001506  D7FC               	bra	u2437
  1439   001508  2E36               	decfsz	(??_main+1)^0,f,c
  1440   00150A  D7FA               	bra	u2437
  1441   00150C  0000               	nop	
  1442   00150E                     
  1443                           ;OBCII_PIC18F46K22.c: 83:     UART1_SendString("ATE0\r");
  1444   00150E  0EB6               	movlw	low STR_1
  1445   001510  6E04               	movwf	UART1_SendString@string^0,c
  1446   001512  0EFF               	movlw	high STR_1
  1447   001514  6E05               	movwf	(UART1_SendString@string+1)^0,c
  1448   001516  EC03  F00B         	call	_UART1_SendString	;wreg free
  1449   00151A                     
  1450                           ;OBCII_PIC18F46K22.c: 84:     _delay((unsigned long)((50)*(16000000/4000.0)));
  1451   00151A  0E02               	movlw	2
  1452   00151C  6E36               	movwf	(??_main+1)^0,c
  1453   00151E  0E04               	movlw	4
  1454   001520  6E35               	movwf	??_main^0,c
  1455   001522  0EBA               	movlw	186
  1456   001524                     u2447:
  1457   001524  2EE8               	decfsz	wreg,f,c
  1458   001526  D7FE               	bra	u2447
  1459   001528  2E35               	decfsz	??_main^0,f,c
  1460   00152A  D7FC               	bra	u2447
  1461   00152C  2E36               	decfsz	(??_main+1)^0,f,c
  1462   00152E  D7FA               	bra	u2447
  1463   001530  D000               	nop2	
  1464   001532                     l3190:
  1465                           
  1466                           ;OBCII_PIC18F46K22.c: 87:                 welcome_splash();
  1467   001532  EC7C  F002         	call	_welcome_splash	;wreg free
  1468   001536                     
  1469                           ;OBCII_PIC18F46K22.c: 88:                 main_menu();
  1470   001536  EC6B  F000         	call	_main_menu	;wreg free
  1471   00153A  EF99  F00A         	goto	l3190
  1472   00153E  EF69  F000         	goto	start
  1473   001542                     __end_of_main:
  1474                           	callstack 0
  1475                           
  1476 ;; *************** function _welcome_splash *****************
  1477 ;; Defined at:
  1478 ;;		line 214 in file "OBCII_PIC18F46K22.c"
  1479 ;; Parameters:    Size  Location     Type
  1480 ;;		None
  1481 ;; Auto vars:     Size  Location     Type
  1482 ;;  CCP1IF_count    2   31[COMRAM] volatile unsigned int 
  1483 ;;  plug_flag       2   29[COMRAM] volatile int 
  1484 ;; Return value:  Size  Location     Type
  1485 ;;                  1    wreg      void 
  1486 ;; Registers used:
  1487 ;;		wreg, fsr0l, fsr0h, status,2, status,0, tblptrl, tblptrh, tblptru, cstack
  1488 ;; Tracked objects:
  1489 ;;		On entry : 0/0
  1490 ;;		On exit  : 0/0
  1491 ;;		Unchanged: 0/0
  1492 ;; Data sizes:     COMRAM   BANK0   BANK1   BANK2   BANK3   BANK4   BANK5   BANK6   BANK7   BANK8   BANK9  BANK10  BANK1
      +1  BANK12  BANK13  BANK14  BANK15
  1493 ;;      Params:         0       0       0       0       0       0       0       0       0       0       0       0       
      +0       0       0       0       0
  1494 ;;      Locals:         4       0       0       0       0       0       0       0       0       0       0       0       
      +0       0       0       0       0
  1495 ;;      Temps:          2       0       0       0       0       0       0       0       0       0       0       0       
      +0       0       0       0       0
  1496 ;;      Totals:         6       0       0       0       0       0       0       0       0       0       0       0       
      +0       0       0       0       0
  1497 ;;Total ram usage:        6 bytes
  1498 ;; Hardware stack levels used: 1
  1499 ;; Hardware stack levels required when called: 4
  1500 ;; This function calls:
  1501 ;;		_LCD_clear
  1502 ;;		_LCD_cursor_set
  1503 ;;		_LCD_write_string
  1504 ;;		_LCD_write_variable
  1505 ;;		_UART1_SendString
  1506 ;;		___lwdiv
  1507 ;;		___lwmod
  1508 ;;		_ccp1_init
  1509 ;;		_tmr1_init
  1510 ;; This function is called by:
  1511 ;;		_main
  1512 ;; This function uses a non-reentrant model
  1513 ;;
  1514                           
  1515                           	psect	text1
  1516   0004F8                     __ptext1:
  1517                           	callstack 0
  1518   0004F8                     _welcome_splash:
  1519                           	callstack 26
  1520   0004F8                     
  1521                           ;OBCII_PIC18F46K22.c: 215:     volatile int plug_flag = 0;
  1522   0004F8  0E00               	movlw	0
  1523   0004FA  6E1F               	movwf	(welcome_splash@plug_flag+1)^0,c	;volatile
  1524   0004FC  0E00               	movlw	0
  1525   0004FE  6E1E               	movwf	welcome_splash@plug_flag^0,c	;volatile
  1526                           
  1527                           ;OBCII_PIC18F46K22.c: 216:     volatile unsigned int CCP1IF_counter = 0;
  1528   000500  0E00               	movlw	0
  1529   000502  6E21               	movwf	(welcome_splash@CCP1IF_counter+1)^0,c	;volatile
  1530   000504  0E00               	movlw	0
  1531   000506  6E20               	movwf	welcome_splash@CCP1IF_counter^0,c	;volatile
  1532   000508                     
  1533                           ;OBCII_PIC18F46K22.c: 219:     LCD_clear();
  1534   000508  EC32  F00C         	call	_LCD_clear	;wreg free
  1535   00050C                     
  1536                           ;OBCII_PIC18F46K22.c: 220:     LCD_cursor_set(1, 1);
  1537   00050C  0E01               	movlw	1
  1538   00050E  6E06               	movwf	LCD_cursor_set@column^0,c
  1539   000510  0E01               	movlw	1
  1540   000512  ECD3  F00A         	call	_LCD_cursor_set
  1541   000516                     
  1542                           ;OBCII_PIC18F46K22.c: 221:     LCD_write_string(">>> OBDIIPIC <<<");
  1543   000516  0E10               	movlw	low STR_2
  1544   000518  6E06               	movwf	LCD_write_string@string^0,c
  1545   00051A  0EFF               	movlw	high STR_2
  1546   00051C  6E07               	movwf	(LCD_write_string@string+1)^0,c
  1547   00051E  ECC3  F009         	call	_LCD_write_string	;wreg free
  1548   000522                     
  1549                           ;OBCII_PIC18F46K22.c: 222:     LCD_cursor_set(2, 1);
  1550   000522  0E01               	movlw	1
  1551   000524  6E06               	movwf	LCD_cursor_set@column^0,c
  1552   000526  0E02               	movlw	2
  1553   000528  ECD3  F00A         	call	_LCD_cursor_set
  1554   00052C                     
  1555                           ;OBCII_PIC18F46K22.c: 223:     LCD_write_string(">>>> V1.0 <<<<");
  1556   00052C  0E62               	movlw	low STR_3
  1557   00052E  6E06               	movwf	LCD_write_string@string^0,c
  1558   000530  0EFF               	movlw	high STR_3
  1559   000532  6E07               	movwf	(LCD_write_string@string+1)^0,c
  1560   000534  ECC3  F009         	call	_LCD_write_string	;wreg free
  1561   000538                     
  1562                           ;OBCII_PIC18F46K22.c: 225:     ccp1_init();
  1563   000538  EC63  F00C         	call	_ccp1_init	;wreg free
  1564   00053C                     
  1565                           ;OBCII_PIC18F46K22.c: 226:     tmr1_init();
  1566   00053C  EC6C  F00C         	call	_tmr1_init	;wreg free
  1567   000540                     
  1568                           ;OBCII_PIC18F46K22.c: 228:     CCP1IF_counter = 0;
  1569   000540  0E00               	movlw	0
  1570   000542  6E21               	movwf	(welcome_splash@CCP1IF_counter+1)^0,c	;volatile
  1571   000544  0E00               	movlw	0
  1572   000546  6E20               	movwf	welcome_splash@CCP1IF_counter^0,c	;volatile
  1573   000548                     
  1574                           ;OBCII_PIC18F46K22.c: 229:     plug_flag = 0;
  1575   000548  0E00               	movlw	0
  1576   00054A  6E1F               	movwf	(welcome_splash@plug_flag+1)^0,c	;volatile
  1577   00054C  0E00               	movlw	0
  1578   00054E  6E1E               	movwf	welcome_splash@plug_flag^0,c	;volatile
  1579   000550                     l3014:
  1580                           
  1581                           ;OBCII_PIC18F46K22.c: 232:         if (PIR1bits.CCP1IF) {
  1582   000550  A49E               	btfss	158,2,c	;volatile
  1583   000552  EFAD  F002         	goto	u2061
  1584   000556  EFAF  F002         	goto	u2060
  1585   00055A                     u2061:
  1586   00055A  EFE5  F002         	goto	l3028
  1587   00055E                     u2060:
  1588   00055E                     
  1589                           ;OBCII_PIC18F46K22.c: 233:             PIR1bits.CCP1IF = 0;
  1590   00055E  949E               	bcf	158,2,c	;volatile
  1591                           
  1592                           ;OBCII_PIC18F46K22.c: 234:             T1CONbits.TMR1ON = 1;
  1593   000560  80CD               	bsf	205,0,c	;volatile
  1594   000562                     
  1595                           ;OBCII_PIC18F46K22.c: 235:             CCP1IF_counter++;
  1596   000562  4A20               	infsnz	welcome_splash@CCP1IF_counter^0,f,c	;volatile
  1597   000564  2A21               	incf	(welcome_splash@CCP1IF_counter+1)^0,f,c	;volatile
  1598   000566                     
  1599                           ;OBCII_PIC18F46K22.c: 237:             LCD_cursor_set(2, 16);
  1600   000566  0E10               	movlw	16
  1601   000568  6E06               	movwf	LCD_cursor_set@column^0,c
  1602   00056A  0E02               	movlw	2
  1603   00056C  ECD3  F00A         	call	_LCD_cursor_set
  1604   000570                     
  1605                           ;OBCII_PIC18F46K22.c: 238:             LCD_write_variable((CCP1IF_counter) / 10, 1);
  1606   000570  C020  F003         	movff	welcome_splash@CCP1IF_counter,___lwdiv@dividend	;volatile
  1607   000574  C021  F004         	movff	welcome_splash@CCP1IF_counter+1,___lwdiv@dividend+1	;volatile
  1608   000578  0E00               	movlw	0
  1609   00057A  6E06               	movwf	(___lwdiv@divisor+1)^0,c
  1610   00057C  0E0A               	movlw	10
  1611   00057E  6E05               	movwf	___lwdiv@divisor^0,c
  1612   000580  EC00  F00A         	call	___lwdiv	;wreg free
  1613   000584  C003  F011         	movff	?___lwdiv,LCD_write_variable@variable
  1614   000588  C004  F012         	movff	?___lwdiv+1,LCD_write_variable@variable+1
  1615   00058C  6A13               	clrf	(LCD_write_variable@variable+2)^0,c
  1616   00058E  6A14               	clrf	(LCD_write_variable@variable+3)^0,c
  1617   000590  0E01               	movlw	1
  1618   000592  6E15               	movwf	LCD_write_variable@left_offset^0,c
  1619   000594  EC1B  F004         	call	_LCD_write_variable	;wreg free
  1620   000598                     
  1621                           ;OBCII_PIC18F46K22.c: 241:             if (CCP1IF_counter % 10 == 0) {
  1622   000598  C020  F003         	movff	welcome_splash@CCP1IF_counter,___lwmod@dividend	;volatile
  1623   00059C  C021  F004         	movff	welcome_splash@CCP1IF_counter+1,___lwmod@dividend+1	;volatile
  1624   0005A0  0E00               	movlw	0
  1625   0005A2  6E06               	movwf	(___lwmod@divisor+1)^0,c
  1626   0005A4  0E0A               	movlw	10
  1627   0005A6  6E05               	movwf	___lwmod@divisor^0,c
  1628   0005A8  ECA1  F00A         	call	___lwmod	;wreg free
  1629   0005AC  5003               	movf	?___lwmod^0,w,c
  1630   0005AE  1004               	iorwf	(?___lwmod+1)^0,w,c
  1631   0005B0  A4D8               	btfss	status,2,c
  1632   0005B2  EFDD  F002         	goto	u2071
  1633   0005B6  EFDF  F002         	goto	u2070
  1634   0005BA                     u2071:
  1635   0005BA  EFE5  F002         	goto	l3028
  1636   0005BE                     u2070:
  1637   0005BE                     
  1638                           ;OBCII_PIC18F46K22.c: 242:                 UART1_SendString("ATI\r");
  1639   0005BE  0EDA               	movlw	low STR_4
  1640   0005C0  6E04               	movwf	UART1_SendString@string^0,c
  1641   0005C2  0EFF               	movlw	high STR_4
  1642   0005C4  6E05               	movwf	(UART1_SendString@string+1)^0,c
  1643   0005C6  EC03  F00B         	call	_UART1_SendString	;wreg free
  1644   0005CA                     l3028:
  1645                           
  1646                           ;OBCII_PIC18F46K22.c: 247:         if (message_complete) {
  1647   0005CA  504C               	movf	_message_complete^0,w,c	;volatile
  1648   0005CC  B4D8               	btfsc	status,2,c
  1649   0005CE  EFEB  F002         	goto	u2081
  1650   0005D2  EFED  F002         	goto	u2080
  1651   0005D6                     u2081:
  1652   0005D6  EFF3  F002         	goto	l3036
  1653   0005DA                     u2080:
  1654   0005DA                     
  1655                           ;OBCII_PIC18F46K22.c: 248:             plug_flag = 1;
  1656   0005DA  0E00               	movlw	0
  1657   0005DC  6E1F               	movwf	(welcome_splash@plug_flag+1)^0,c	;volatile
  1658   0005DE  0E01               	movlw	1
  1659   0005E0  6E1E               	movwf	welcome_splash@plug_flag^0,c	;volatile
  1660   0005E2                     
  1661                           ;OBCII_PIC18F46K22.c: 249:             buffer_count = 0;
  1662   0005E2  6A4E               	clrf	_buffer_count^0,c
  1663   0005E4                     
  1664                           ;OBCII_PIC18F46K22.c: 250:             message_complete = 0;
  1665   0005E4  6A4C               	clrf	_message_complete^0,c	;volatile
  1666   0005E6                     l3036:
  1667                           
  1668                           ;OBCII_PIC18F46K22.c: 254:         if (plug_flag) {
  1669   0005E6  501E               	movf	welcome_splash@plug_flag^0,w,c	;volatile
  1670   0005E8  101F               	iorwf	(welcome_splash@plug_flag+1)^0,w,c	;volatile
  1671   0005EA  B4D8               	btfsc	status,2,c
  1672   0005EC  EFFA  F002         	goto	u2091
  1673   0005F0  EFFC  F002         	goto	u2090
  1674   0005F4                     u2091:
  1675   0005F4  EF09  F003         	goto	l3042
  1676   0005F8                     u2090:
  1677   0005F8                     
  1678                           ;OBCII_PIC18F46K22.c: 255:             if (CCP1IF_counter >= 4 * 10) {
  1679   0005F8  5021               	movf	(welcome_splash@CCP1IF_counter+1)^0,w,c	;volatile
  1680   0005FA  E109               	bnz	u2100
  1681   0005FC  0E28               	movlw	40
  1682   0005FE  5C20               	subwf	welcome_splash@CCP1IF_counter^0,w,c	;volatile
  1683   000600  A0D8               	btfss	status,0,c
  1684   000602  EF05  F003         	goto	u2101
  1685   000606  EF07  F003         	goto	u2100
  1686   00060A                     u2101:
  1687   00060A  EFA8  F002         	goto	l3014
  1688   00060E                     u2100:
  1689   00060E  EF2C  F003         	goto	l3052
  1690   000612                     l3042:
  1691                           
  1692                           ;OBCII_PIC18F46K22.c: 261:             CCP1IF_counter = 0;
  1693   000612  0E00               	movlw	0
  1694   000614  6E21               	movwf	(welcome_splash@CCP1IF_counter+1)^0,c	;volatile
  1695   000616  0E00               	movlw	0
  1696   000618  6E20               	movwf	welcome_splash@CCP1IF_counter^0,c	;volatile
  1697   00061A                     
  1698                           ;OBCII_PIC18F46K22.c: 262:             LCD_cursor_set(2, 1);
  1699   00061A  0E01               	movlw	1
  1700   00061C  6E06               	movwf	LCD_cursor_set@column^0,c
  1701   00061E  0E02               	movlw	2
  1702   000620  ECD3  F00A         	call	_LCD_cursor_set
  1703   000624                     
  1704                           ;OBCII_PIC18F46K22.c: 263:             LCD_write_string("OBDII Not Found ");
  1705   000624  0EFF               	movlw	low STR_5
  1706   000626  6E06               	movwf	LCD_write_string@string^0,c
  1707   000628  0EFE               	movlw	high STR_5
  1708   00062A  6E07               	movwf	(LCD_write_string@string+1)^0,c
  1709   00062C  ECC3  F009         	call	_LCD_write_string	;wreg free
  1710   000630                     
  1711                           ;OBCII_PIC18F46K22.c: 264:             UART1_SendString("ATI\r");
  1712   000630  0EDA               	movlw	low STR_4
  1713   000632  6E04               	movwf	UART1_SendString@string^0,c
  1714   000634  0EFF               	movlw	high STR_4
  1715   000636  6E05               	movwf	(UART1_SendString@string+1)^0,c
  1716   000638  EC03  F00B         	call	_UART1_SendString	;wreg free
  1717   00063C                     
  1718                           ;OBCII_PIC18F46K22.c: 265:             _delay((unsigned long)((50)*(16000000/4000.0)));
  1719   00063C  0E02               	movlw	2
  1720   00063E  6E1D               	movwf	(??_welcome_splash+1)^0,c
  1721   000640  0E04               	movlw	4
  1722   000642  6E1C               	movwf	??_welcome_splash^0,c
  1723   000644  0EBA               	movlw	186
  1724   000646                     u2457:
  1725   000646  2EE8               	decfsz	wreg,f,c
  1726   000648  D7FE               	bra	u2457
  1727   00064A  2E1C               	decfsz	??_welcome_splash^0,f,c
  1728   00064C  D7FC               	bra	u2457
  1729   00064E  2E1D               	decfsz	(??_welcome_splash+1)^0,f,c
  1730   000650  D7FA               	bra	u2457
  1731   000652  D000               	nop2	
  1732   000654  EFA8  F002         	goto	l3014
  1733   000658                     l3052:
  1734                           
  1735                           ;OBCII_PIC18F46K22.c: 270:     LCD_clear();
  1736   000658  EC32  F00C         	call	_LCD_clear	;wreg free
  1737                           
  1738                           ;OBCII_PIC18F46K22.c: 271:     LCD_cursor_set(1, 1);
  1739   00065C  0E01               	movlw	1
  1740   00065E  6E06               	movwf	LCD_cursor_set@column^0,c
  1741   000660  0E01               	movlw	1
  1742   000662  ECD3  F00A         	call	_LCD_cursor_set
  1743   000666                     
  1744                           ;OBCII_PIC18F46K22.c: 272:     LCD_write_string("OBDII Detected");
  1745   000666  0E80               	movlw	low STR_7
  1746   000668  6E06               	movwf	LCD_write_string@string^0,c
  1747   00066A  0EFF               	movlw	high STR_7
  1748   00066C  6E07               	movwf	(LCD_write_string@string+1)^0,c
  1749   00066E  ECC3  F009         	call	_LCD_write_string	;wreg free
  1750   000672                     
  1751                           ;OBCII_PIC18F46K22.c: 273:     _delay((unsigned long)((2 * 2000)*(16000000/4000.0)));
  1752   000672  0E52               	movlw	82
  1753   000674  6E1D               	movwf	(??_welcome_splash+1)^0,c
  1754   000676  0E2B               	movlw	43
  1755   000678  6E1C               	movwf	??_welcome_splash^0,c
  1756   00067A  0E00               	movlw	0
  1757   00067C                     u2467:
  1758   00067C  2EE8               	decfsz	wreg,f,c
  1759   00067E  D7FE               	bra	u2467
  1760   000680  2E1C               	decfsz	??_welcome_splash^0,f,c
  1761   000682  D7FC               	bra	u2467
  1762   000684  2E1D               	decfsz	(??_welcome_splash+1)^0,f,c
  1763   000686  D7FA               	bra	u2467
  1764   000688  D000               	nop2	
  1765   00068A                     
  1766                           ;OBCII_PIC18F46K22.c: 275:     UART1_SendString("ATE0\r");
  1767   00068A  0EB6               	movlw	low STR_1
  1768   00068C  6E04               	movwf	UART1_SendString@string^0,c
  1769   00068E  0EFF               	movlw	high STR_1
  1770   000690  6E05               	movwf	(UART1_SendString@string+1)^0,c
  1771   000692  EC03  F00B         	call	_UART1_SendString	;wreg free
  1772   000696                     
  1773                           ;OBCII_PIC18F46K22.c: 276:     _delay((unsigned long)((50)*(16000000/4000.0)));
  1774   000696  0E02               	movlw	2
  1775   000698  6E1D               	movwf	(??_welcome_splash+1)^0,c
  1776   00069A  0E04               	movlw	4
  1777   00069C  6E1C               	movwf	??_welcome_splash^0,c
  1778   00069E  0EBA               	movlw	186
  1779   0006A0                     u2477:
  1780   0006A0  2EE8               	decfsz	wreg,f,c
  1781   0006A2  D7FE               	bra	u2477
  1782   0006A4  2E1C               	decfsz	??_welcome_splash^0,f,c
  1783   0006A6  D7FC               	bra	u2477
  1784   0006A8  2E1D               	decfsz	(??_welcome_splash+1)^0,f,c
  1785   0006AA  D7FA               	bra	u2477
  1786   0006AC  D000               	nop2	
  1787   0006AE  0012               	return		;funcret
  1788   0006B0                     __end_of_welcome_splash:
  1789                           	callstack 0
  1790                           
  1791 ;; *************** function _tmr1_init *****************
  1792 ;; Defined at:
  1793 ;;		line 203 in file "OBCII_PIC18F46K22.c"
  1794 ;; Parameters:    Size  Location     Type
  1795 ;;		None
  1796 ;; Auto vars:     Size  Location     Type
  1797 ;;		None
  1798 ;; Return value:  Size  Location     Type
  1799 ;;                  1    wreg      void 
  1800 ;; Registers used:
  1801 ;;		None
  1802 ;; Tracked objects:
  1803 ;;		On entry : 0/0
  1804 ;;		On exit  : 0/0
  1805 ;;		Unchanged: 0/0
  1806 ;; Data sizes:     COMRAM   BANK0   BANK1   BANK2   BANK3   BANK4   BANK5   BANK6   BANK7   BANK8   BANK9  BANK10  BANK1
      +1  BANK12  BANK13  BANK14  BANK15
  1807 ;;      Params:         0       0       0       0       0       0       0       0       0       0       0       0       
      +0       0       0       0       0
  1808 ;;      Locals:         0       0       0       0       0       0       0       0       0       0       0       0       
      +0       0       0       0       0
  1809 ;;      Temps:          0       0       0       0       0       0       0       0       0       0       0       0       
      +0       0       0       0       0
  1810 ;;      Totals:         0       0       0       0       0       0       0       0       0       0       0       0       
      +0       0       0       0       0
  1811 ;;Total ram usage:        0 bytes
  1812 ;; Hardware stack levels used: 1
  1813 ;; Hardware stack levels required when called: 1
  1814 ;; This function calls:
  1815 ;;		Nothing
  1816 ;; This function is called by:
  1817 ;;		_welcome_splash
  1818 ;; This function uses a non-reentrant model
  1819 ;;
  1820                           
  1821                           	psect	text2
  1822   0018D8                     __ptext2:
  1823                           	callstack 0
  1824   0018D8                     _tmr1_init:
  1825                           	callstack 28
  1826   0018D8                     
  1827                           ;OBCII_PIC18F46K22.c: 205:     T1CONbits.T1CKPS1 = 1;
  1828   0018D8  8ACD               	bsf	205,5,c	;volatile
  1829                           
  1830                           ;OBCII_PIC18F46K22.c: 206:     T1CONbits.T1CKPS0 = 1;
  1831   0018DA  88CD               	bsf	205,4,c	;volatile
  1832                           
  1833                           ;OBCII_PIC18F46K22.c: 207:     T1CONbits.T1OSCEN = 0;
  1834   0018DC  96CD               	bcf	205,3,c	;volatile
  1835                           
  1836                           ;OBCII_PIC18F46K22.c: 208:     T1CONbits.T1SYNC = 1;
  1837   0018DE  84CD               	bsf	205,2,c	;volatile
  1838                           
  1839                           ;OBCII_PIC18F46K22.c: 209:     T1CONbits.TMR1CS1 = 0;
  1840   0018E0  9ECD               	bcf	205,7,c	;volatile
  1841                           
  1842                           ;OBCII_PIC18F46K22.c: 210:     T1CONbits.TMR1CS0 = 0;
  1843   0018E2  9CCD               	bcf	205,6,c	;volatile
  1844                           
  1845                           ;OBCII_PIC18F46K22.c: 211:     T1CONbits.TMR1ON = 1;
  1846   0018E4  80CD               	bsf	205,0,c	;volatile
  1847   0018E6  0012               	return		;funcret
  1848   0018E8                     __end_of_tmr1_init:
  1849                           	callstack 0
  1850                           
  1851 ;; *************** function _ccp1_init *****************
  1852 ;; Defined at:
  1853 ;;		line 190 in file "OBCII_PIC18F46K22.c"
  1854 ;; Parameters:    Size  Location     Type
  1855 ;;		None
  1856 ;; Auto vars:     Size  Location     Type
  1857 ;;		None
  1858 ;; Return value:  Size  Location     Type
  1859 ;;                  1    wreg      void 
  1860 ;; Registers used:
  1861 ;;		wreg, status,2
  1862 ;; Tracked objects:
  1863 ;;		On entry : 0/0
  1864 ;;		On exit  : 0/0
  1865 ;;		Unchanged: 0/0
  1866 ;; Data sizes:     COMRAM   BANK0   BANK1   BANK2   BANK3   BANK4   BANK5   BANK6   BANK7   BANK8   BANK9  BANK10  BANK1
      +1  BANK12  BANK13  BANK14  BANK15
  1867 ;;      Params:         0       0       0       0       0       0       0       0       0       0       0       0       
      +0       0       0       0       0
  1868 ;;      Locals:         0       0       0       0       0       0       0       0       0       0       0       0       
      +0       0       0       0       0
  1869 ;;      Temps:          0       0       0       0       0       0       0       0       0       0       0       0       
      +0       0       0       0       0
  1870 ;;      Totals:         0       0       0       0       0       0       0       0       0       0       0       0       
      +0       0       0       0       0
  1871 ;;Total ram usage:        0 bytes
  1872 ;; Hardware stack levels used: 1
  1873 ;; Hardware stack levels required when called: 1
  1874 ;; This function calls:
  1875 ;;		Nothing
  1876 ;; This function is called by:
  1877 ;;		_welcome_splash
  1878 ;; This function uses a non-reentrant model
  1879 ;;
  1880                           
  1881                           	psect	text3
  1882   0018C6                     __ptext3:
  1883                           	callstack 0
  1884   0018C6                     _ccp1_init:
  1885                           	callstack 28
  1886   0018C6                     
  1887                           ;OBCII_PIC18F46K22.c: 191:     CCP1CONbits.CCP1M3 = 1;
  1888   0018C6  86BD               	bsf	189,3,c	;volatile
  1889                           
  1890                           ;OBCII_PIC18F46K22.c: 192:     CCP1CONbits.CCP1M2 = 0;
  1891   0018C8  94BD               	bcf	189,2,c	;volatile
  1892                           
  1893                           ;OBCII_PIC18F46K22.c: 193:     CCP1CONbits.CCP1M1 = 1;
  1894   0018CA  82BD               	bsf	189,1,c	;volatile
  1895                           
  1896                           ;OBCII_PIC18F46K22.c: 194:     CCP1CONbits.CCP1M0 = 1;
  1897   0018CC  80BD               	bsf	189,0,c	;volatile
  1898   0018CE                     
  1899                           ;OBCII_PIC18F46K22.c: 198:     CCPR1H = 195;
  1900   0018CE  0EC3               	movlw	195
  1901   0018D0  6EBF               	movwf	191,c	;volatile
  1902                           
  1903                           ;OBCII_PIC18F46K22.c: 199:     CCPR1L = 80;
  1904   0018D2  0E50               	movlw	80
  1905   0018D4  6EBE               	movwf	190,c	;volatile
  1906   0018D6  0012               	return		;funcret
  1907   0018D8                     __end_of_ccp1_init:
  1908                           	callstack 0
  1909                           
  1910 ;; *************** function _LCD_write_variable *****************
  1911 ;; Defined at:
  1912 ;;		line 392 in file "LCD.c"
  1913 ;; Parameters:    Size  Location     Type
  1914 ;;  variable        4   16[COMRAM] long 
  1915 ;;  left_offset     1   20[COMRAM] unsigned char 
  1916 ;; Auto vars:     Size  Location     Type
  1917 ;;  i               1   21[COMRAM] unsigned char 
  1918 ;;  temp_variabl    4   23[COMRAM] long 
  1919 ;;  digits          1   22[COMRAM] unsigned char 
  1920 ;; Return value:  Size  Location     Type
  1921 ;;                  1    wreg      void 
  1922 ;; Registers used:
  1923 ;;		wreg, status,2, status,0, cstack
  1924 ;; Tracked objects:
  1925 ;;		On entry : 0/0
  1926 ;;		On exit  : 0/0
  1927 ;;		Unchanged: 0/0
  1928 ;; Data sizes:     COMRAM   BANK0   BANK1   BANK2   BANK3   BANK4   BANK5   BANK6   BANK7   BANK8   BANK9  BANK10  BANK1
      +1  BANK12  BANK13  BANK14  BANK15
  1929 ;;      Params:         5       0       0       0       0       0       0       0       0       0       0       0       
      +0       0       0       0       0
  1930 ;;      Locals:         6       0       0       0       0       0       0       0       0       0       0       0       
      +0       0       0       0       0
  1931 ;;      Temps:          0       0       0       0       0       0       0       0       0       0       0       0       
      +0       0       0       0       0
  1932 ;;      Totals:        11       0       0       0       0       0       0       0       0       0       0       0       
      +0       0       0       0       0
  1933 ;;Total ram usage:       11 bytes
  1934 ;; Hardware stack levels used: 1
  1935 ;; Hardware stack levels required when called: 3
  1936 ;; This function calls:
  1937 ;;		_LCD_write_data
  1938 ;;		___aldiv
  1939 ;;		___almod
  1940 ;;		___lmul
  1941 ;; This function is called by:
  1942 ;;		_welcome_splash
  1943 ;;		_LCD_write_float
  1944 ;; This function uses a non-reentrant model
  1945 ;;
  1946                           
  1947                           	psect	text4
  1948   000836                     __ptext4:
  1949                           	callstack 0
  1950   000836                     _LCD_write_variable:
  1951                           	callstack 26
  1952   000836                     
  1953                           ;LCD.c: 394:     int32_t temp_variable;;LCD.c: 395:     uint8_t digits = 0;
  1954   000836  6A17               	clrf	LCD_write_variable@digits^0,c
  1955   000838                     
  1956                           ;LCD.c: 398:     if(variable < 0) variable *= -1;
  1957   000838  BE14               	btfsc	(LCD_write_variable@variable+3)^0,7,c
  1958   00083A  EF23  F004         	goto	u1930
  1959   00083E  EF21  F004         	goto	u1931
  1960   000842                     u1931:
  1961   000842  EF3D  F004         	goto	l2822
  1962   000846                     u1930:
  1963   000846  C011  F003         	movff	LCD_write_variable@variable,___lmul@multiplier
  1964   00084A  C012  F004         	movff	LCD_write_variable@variable+1,___lmul@multiplier+1
  1965   00084E  C013  F005         	movff	LCD_write_variable@variable+2,___lmul@multiplier+2
  1966   000852  C014  F006         	movff	LCD_write_variable@variable+3,___lmul@multiplier+3
  1967   000856  0EFF               	movlw	255
  1968   000858  6E07               	movwf	___lmul@multiplicand^0,c
  1969   00085A  0EFF               	movlw	255
  1970   00085C  6E08               	movwf	(___lmul@multiplicand+1)^0,c
  1971   00085E  0EFF               	movlw	255
  1972   000860  6E09               	movwf	(___lmul@multiplicand+2)^0,c
  1973   000862  0EFF               	movlw	255
  1974   000864  6E0A               	movwf	(___lmul@multiplicand+3)^0,c
  1975   000866  EC3A  F00A         	call	___lmul	;wreg free
  1976   00086A  C003  F011         	movff	?___lmul,LCD_write_variable@variable
  1977   00086E  C004  F012         	movff	?___lmul+1,LCD_write_variable@variable+1
  1978   000872  C005  F013         	movff	?___lmul+2,LCD_write_variable@variable+2
  1979   000876  C006  F014         	movff	?___lmul+3,LCD_write_variable@variable+3
  1980   00087A                     l2822:
  1981                           
  1982                           ;LCD.c: 401:     temp_variable = variable;
  1983   00087A  C011  F018         	movff	LCD_write_variable@variable,LCD_write_variable@temp_variable
  1984   00087E  C012  F019         	movff	LCD_write_variable@variable+1,LCD_write_variable@temp_variable+1
  1985   000882  C013  F01A         	movff	LCD_write_variable@variable+2,LCD_write_variable@temp_variable+2
  1986   000886  C014  F01B         	movff	LCD_write_variable@variable+3,LCD_write_variable@temp_variable+3
  1987   00088A                     l2824:
  1988                           
  1989                           ;LCD.c: 403:         digits++;
  1990   00088A  2A17               	incf	LCD_write_variable@digits^0,f,c
  1991   00088C                     
  1992                           ;LCD.c: 404:         if(temp_variable < 10) break;
  1993   00088C  BE1B               	btfsc	(LCD_write_variable@temp_variable+3)^0,7,c
  1994   00088E  EF56  F004         	goto	u1940
  1995   000892  501B               	movf	(LCD_write_variable@temp_variable+3)^0,w,c
  1996   000894  101A               	iorwf	(LCD_write_variable@temp_variable+2)^0,w,c
  1997   000896  1019               	iorwf	(LCD_write_variable@temp_variable+1)^0,w,c
  1998   000898  E107               	bnz	u1941
  1999   00089A  0E0A               	movlw	10
  2000   00089C  5C18               	subwf	LCD_write_variable@temp_variable^0,w,c
  2001   00089E  B0D8               	btfsc	status,0,c
  2002   0008A0  EF54  F004         	goto	u1941
  2003   0008A4  EF56  F004         	goto	u1940
  2004   0008A8                     u1941:
  2005   0008A8  EF58  F004         	goto	l2830
  2006   0008AC                     u1940:
  2007   0008AC  EF74  F004         	goto	l2832
  2008   0008B0                     l2830:
  2009                           
  2010                           ;LCD.c: 405:         temp_variable /= 10;
  2011   0008B0  C018  F003         	movff	LCD_write_variable@temp_variable,___aldiv@dividend
  2012   0008B4  C019  F004         	movff	LCD_write_variable@temp_variable+1,___aldiv@dividend+1
  2013   0008B8  C01A  F005         	movff	LCD_write_variable@temp_variable+2,___aldiv@dividend+2
  2014   0008BC  C01B  F006         	movff	LCD_write_variable@temp_variable+3,___aldiv@dividend+3
  2015   0008C0  0E0A               	movlw	10
  2016   0008C2  6E07               	movwf	___aldiv@divisor^0,c
  2017   0008C4  0E00               	movlw	0
  2018   0008C6  6E08               	movwf	(___aldiv@divisor+1)^0,c
  2019   0008C8  0E00               	movlw	0
  2020   0008CA  6E09               	movwf	(___aldiv@divisor+2)^0,c
  2021   0008CC  0E00               	movlw	0
  2022   0008CE  6E0A               	movwf	(___aldiv@divisor+3)^0,c
  2023   0008D0  EC04  F006         	call	___aldiv	;wreg free
  2024   0008D4  C003  F018         	movff	?___aldiv,LCD_write_variable@temp_variable
  2025   0008D8  C004  F019         	movff	?___aldiv+1,LCD_write_variable@temp_variable+1
  2026   0008DC  C005  F01A         	movff	?___aldiv+2,LCD_write_variable@temp_variable+2
  2027   0008E0  C006  F01B         	movff	?___aldiv+3,LCD_write_variable@temp_variable+3
  2028   0008E4  EF45  F004         	goto	l2824
  2029   0008E8                     l2832:
  2030                           
  2031                           ;LCD.c: 410:         if(left_offset <= digits) break;
  2032   0008E8  5015               	movf	LCD_write_variable@left_offset^0,w,c
  2033   0008EA  5C17               	subwf	LCD_write_variable@digits^0,w,c
  2034   0008EC  A0D8               	btfss	status,0,c
  2035   0008EE  EF7B  F004         	goto	u1951
  2036   0008F2  EF7D  F004         	goto	u1950
  2037   0008F6                     u1951:
  2038   0008F6  EF7F  F004         	goto	l2836
  2039   0008FA                     u1950:
  2040   0008FA  EF85  F004         	goto	l419
  2041   0008FE                     l2836:
  2042                           
  2043                           ;LCD.c: 411:         LCD_write_data(' ');
  2044   0008FE  0E20               	movlw	32
  2045   000900  EC89  F006         	call	_LCD_write_data
  2046   000904                     
  2047                           ;LCD.c: 412:         left_offset--;
  2048   000904  0615               	decf	LCD_write_variable@left_offset^0,f,c
  2049   000906  EF74  F004         	goto	l2832
  2050   00090A                     l419:
  2051                           
  2052                           ;LCD.c: 417:         temp_variable = variable;
  2053   00090A  C011  F018         	movff	LCD_write_variable@variable,LCD_write_variable@temp_variable
  2054   00090E  C012  F019         	movff	LCD_write_variable@variable+1,LCD_write_variable@temp_variable+1
  2055   000912  C013  F01A         	movff	LCD_write_variable@variable+2,LCD_write_variable@temp_variable+2
  2056   000916  C014  F01B         	movff	LCD_write_variable@variable+3,LCD_write_variable@temp_variable+3
  2057   00091A                     
  2058                           ;LCD.c: 418:         for(uint8_t i = 1 ; i < digits ; i++){
  2059   00091A  0E01               	movlw	1
  2060   00091C  6E16               	movwf	LCD_write_variable@i^0,c
  2061   00091E  EFAC  F004         	goto	l2846
  2062   000922                     l2842:
  2063                           
  2064                           ;LCD.c: 419:             temp_variable /= 10;
  2065   000922  C018  F003         	movff	LCD_write_variable@temp_variable,___aldiv@dividend
  2066   000926  C019  F004         	movff	LCD_write_variable@temp_variable+1,___aldiv@dividend+1
  2067   00092A  C01A  F005         	movff	LCD_write_variable@temp_variable+2,___aldiv@dividend+2
  2068   00092E  C01B  F006         	movff	LCD_write_variable@temp_variable+3,___aldiv@dividend+3
  2069   000932  0E0A               	movlw	10
  2070   000934  6E07               	movwf	___aldiv@divisor^0,c
  2071   000936  0E00               	movlw	0
  2072   000938  6E08               	movwf	(___aldiv@divisor+1)^0,c
  2073   00093A  0E00               	movlw	0
  2074   00093C  6E09               	movwf	(___aldiv@divisor+2)^0,c
  2075   00093E  0E00               	movlw	0
  2076   000940  6E0A               	movwf	(___aldiv@divisor+3)^0,c
  2077   000942  EC04  F006         	call	___aldiv	;wreg free
  2078   000946  C003  F018         	movff	?___aldiv,LCD_write_variable@temp_variable
  2079   00094A  C004  F019         	movff	?___aldiv+1,LCD_write_variable@temp_variable+1
  2080   00094E  C005  F01A         	movff	?___aldiv+2,LCD_write_variable@temp_variable+2
  2081   000952  C006  F01B         	movff	?___aldiv+3,LCD_write_variable@temp_variable+3
  2082   000956                     
  2083                           ;LCD.c: 420:         }
  2084   000956  2A16               	incf	LCD_write_variable@i^0,f,c
  2085   000958                     l2846:
  2086   000958  5017               	movf	LCD_write_variable@digits^0,w,c
  2087   00095A  5C16               	subwf	LCD_write_variable@i^0,w,c
  2088   00095C  A0D8               	btfss	status,0,c
  2089   00095E  EFB3  F004         	goto	u1961
  2090   000962  EFB5  F004         	goto	u1960
  2091   000966                     u1961:
  2092   000966  EF91  F004         	goto	l2842
  2093   00096A                     u1960:
  2094   00096A                     
  2095                           ;LCD.c: 421:         LCD_write_data( (temp_variable%10) + '0' );
  2096   00096A  C018  F003         	movff	LCD_write_variable@temp_variable,___almod@dividend
  2097   00096E  C019  F004         	movff	LCD_write_variable@temp_variable+1,___almod@dividend+1
  2098   000972  C01A  F005         	movff	LCD_write_variable@temp_variable+2,___almod@dividend+2
  2099   000976  C01B  F006         	movff	LCD_write_variable@temp_variable+3,___almod@dividend+3
  2100   00097A  0E0A               	movlw	10
  2101   00097C  6E07               	movwf	___almod@divisor^0,c
  2102   00097E  0E00               	movlw	0
  2103   000980  6E08               	movwf	(___almod@divisor+1)^0,c
  2104   000982  0E00               	movlw	0
  2105   000984  6E09               	movwf	(___almod@divisor+2)^0,c
  2106   000986  0E00               	movlw	0
  2107   000988  6E0A               	movwf	(___almod@divisor+3)^0,c
  2108   00098A  EC85  F007         	call	___almod	;wreg free
  2109   00098E  5003               	movf	?___almod^0,w,c
  2110   000990  0F30               	addlw	48
  2111   000992  EC89  F006         	call	_LCD_write_data
  2112   000996                     
  2113                           ;LCD.c: 422:         digits --;
  2114   000996  0617               	decf	LCD_write_variable@digits^0,f,c
  2115   000998                     
  2116                           ;LCD.c: 423:         if(digits == 0) break;
  2117   000998  5017               	movf	LCD_write_variable@digits^0,w,c
  2118   00099A  A4D8               	btfss	status,2,c
  2119   00099C  EFD2  F004         	goto	u1971
  2120   0009A0  EFD4  F004         	goto	u1970
  2121   0009A4                     u1971:
  2122   0009A4  EF85  F004         	goto	l419
  2123   0009A8                     u1970:
  2124   0009A8  0012               	return		;funcret
  2125   0009AA                     __end_of_LCD_write_variable:
  2126                           	callstack 0
  2127                           
  2128 ;; *************** function ___lmul *****************
  2129 ;; Defined at:
  2130 ;;		line 15 in file "C:\Program Files\Microchip\xc8\v3.00\pic\sources\c99\common\Umul32.c"
  2131 ;; Parameters:    Size  Location     Type
  2132 ;;  multiplier      4    2[COMRAM] unsigned long 
  2133 ;;  multiplicand    4    6[COMRAM] unsigned long 
  2134 ;; Auto vars:     Size  Location     Type
  2135 ;;  product         4   10[COMRAM] unsigned long 
  2136 ;; Return value:  Size  Location     Type
  2137 ;;                  4    2[COMRAM] unsigned long 
  2138 ;; Registers used:
  2139 ;;		wreg, status,2, status,0
  2140 ;; Tracked objects:
  2141 ;;		On entry : 0/0
  2142 ;;		On exit  : 0/0
  2143 ;;		Unchanged: 0/0
  2144 ;; Data sizes:     COMRAM   BANK0   BANK1   BANK2   BANK3   BANK4   BANK5   BANK6   BANK7   BANK8   BANK9  BANK10  BANK1
      +1  BANK12  BANK13  BANK14  BANK15
  2145 ;;      Params:         8       0       0       0       0       0       0       0       0       0       0       0       
      +0       0       0       0       0
  2146 ;;      Locals:         4       0       0       0       0       0       0       0       0       0       0       0       
      +0       0       0       0       0
  2147 ;;      Temps:          0       0       0       0       0       0       0       0       0       0       0       0       
      +0       0       0       0       0
  2148 ;;      Totals:        12       0       0       0       0       0       0       0       0       0       0       0       
      +0       0       0       0       0
  2149 ;;Total ram usage:       12 bytes
  2150 ;; Hardware stack levels used: 1
  2151 ;; Hardware stack levels required when called: 1
  2152 ;; This function calls:
  2153 ;;		Nothing
  2154 ;; This function is called by:
  2155 ;;		_LCD_write_variable
  2156 ;; This function uses a non-reentrant model
  2157 ;;
  2158                           
  2159                           	psect	text5
  2160   001474                     __ptext5:
  2161                           	callstack 0
  2162   001474                     ___lmul:
  2163                           	callstack 27
  2164   001474  0E00               	movlw	0
  2165   001476  6E0B               	movwf	___lmul@product^0,c
  2166   001478  0E00               	movlw	0
  2167   00147A  6E0C               	movwf	(___lmul@product+1)^0,c
  2168   00147C  0E00               	movlw	0
  2169   00147E  6E0D               	movwf	(___lmul@product+2)^0,c
  2170   001480  0E00               	movlw	0
  2171   001482  6E0E               	movwf	(___lmul@product+3)^0,c
  2172   001484                     l2728:
  2173   001484  A003               	btfss	___lmul@multiplier^0,0,c
  2174   001486  EF47  F00A         	goto	u1791
  2175   00148A  EF49  F00A         	goto	u1790
  2176   00148E                     u1791:
  2177   00148E  EF51  F00A         	goto	l2732
  2178   001492                     u1790:
  2179   001492  5007               	movf	___lmul@multiplicand^0,w,c
  2180   001494  260B               	addwf	___lmul@product^0,f,c
  2181   001496  5008               	movf	(___lmul@multiplicand+1)^0,w,c
  2182   001498  220C               	addwfc	(___lmul@product+1)^0,f,c
  2183   00149A  5009               	movf	(___lmul@multiplicand+2)^0,w,c
  2184   00149C  220D               	addwfc	(___lmul@product+2)^0,f,c
  2185   00149E  500A               	movf	(___lmul@multiplicand+3)^0,w,c
  2186   0014A0  220E               	addwfc	(___lmul@product+3)^0,f,c
  2187   0014A2                     l2732:
  2188   0014A2  90D8               	bcf	status,0,c
  2189   0014A4  3607               	rlcf	___lmul@multiplicand^0,f,c
  2190   0014A6  3608               	rlcf	(___lmul@multiplicand+1)^0,f,c
  2191   0014A8  3609               	rlcf	(___lmul@multiplicand+2)^0,f,c
  2192   0014AA  360A               	rlcf	(___lmul@multiplicand+3)^0,f,c
  2193   0014AC  90D8               	bcf	status,0,c
  2194   0014AE  3206               	rrcf	(___lmul@multiplier+3)^0,f,c
  2195   0014B0  3205               	rrcf	(___lmul@multiplier+2)^0,f,c
  2196   0014B2  3204               	rrcf	(___lmul@multiplier+1)^0,f,c
  2197   0014B4  3203               	rrcf	___lmul@multiplier^0,f,c
  2198   0014B6  5003               	movf	___lmul@multiplier^0,w,c
  2199   0014B8  1004               	iorwf	(___lmul@multiplier+1)^0,w,c
  2200   0014BA  1005               	iorwf	(___lmul@multiplier+2)^0,w,c
  2201   0014BC  1006               	iorwf	(___lmul@multiplier+3)^0,w,c
  2202   0014BE  A4D8               	btfss	status,2,c
  2203   0014C0  EF64  F00A         	goto	u1801
  2204   0014C4  EF66  F00A         	goto	u1800
  2205   0014C8                     u1801:
  2206   0014C8  EF42  F00A         	goto	l2728
  2207   0014CC                     u1800:
  2208   0014CC  C00B  F003         	movff	___lmul@product,?___lmul
  2209   0014D0  C00C  F004         	movff	___lmul@product+1,?___lmul+1
  2210   0014D4  C00D  F005         	movff	___lmul@product+2,?___lmul+2
  2211   0014D8  C00E  F006         	movff	___lmul@product+3,?___lmul+3
  2212   0014DC  0012               	return		;funcret
  2213   0014DE                     __end_of___lmul:
  2214                           	callstack 0
  2215                           
  2216 ;; *************** function ___almod *****************
  2217 ;; Defined at:
  2218 ;;		line 7 in file "C:\Program Files\Microchip\xc8\v3.00\pic\sources\c99\common\almod.c"
  2219 ;; Parameters:    Size  Location     Type
  2220 ;;  dividend        4    2[COMRAM] long 
  2221 ;;  divisor         4    6[COMRAM] long 
  2222 ;; Auto vars:     Size  Location     Type
  2223 ;;  sign            1   11[COMRAM] unsigned char 
  2224 ;;  counter         1   10[COMRAM] unsigned char 
  2225 ;; Return value:  Size  Location     Type
  2226 ;;                  4    2[COMRAM] long 
  2227 ;; Registers used:
  2228 ;;		wreg, status,2, status,0
  2229 ;; Tracked objects:
  2230 ;;		On entry : 0/0
  2231 ;;		On exit  : 0/0
  2232 ;;		Unchanged: 0/0
  2233 ;; Data sizes:     COMRAM   BANK0   BANK1   BANK2   BANK3   BANK4   BANK5   BANK6   BANK7   BANK8   BANK9  BANK10  BANK1
      +1  BANK12  BANK13  BANK14  BANK15
  2234 ;;      Params:         8       0       0       0       0       0       0       0       0       0       0       0       
      +0       0       0       0       0
  2235 ;;      Locals:         2       0       0       0       0       0       0       0       0       0       0       0       
      +0       0       0       0       0
  2236 ;;      Temps:          0       0       0       0       0       0       0       0       0       0       0       0       
      +0       0       0       0       0
  2237 ;;      Totals:        10       0       0       0       0       0       0       0       0       0       0       0       
      +0       0       0       0       0
  2238 ;;Total ram usage:       10 bytes
  2239 ;; Hardware stack levels used: 1
  2240 ;; Hardware stack levels required when called: 1
  2241 ;; This function calls:
  2242 ;;		Nothing
  2243 ;; This function is called by:
  2244 ;;		_LCD_write_variable
  2245 ;;		_LCD_write_float
  2246 ;; This function uses a non-reentrant model
  2247 ;;
  2248                           
  2249                           	psect	text6
  2250   000F0A                     __ptext6:
  2251                           	callstack 0
  2252   000F0A                     ___almod:
  2253                           	callstack 27
  2254   000F0A  6A0C               	clrf	___almod@sign^0,c
  2255   000F0C  BE06               	btfsc	(___almod@dividend+3)^0,7,c
  2256   000F0E  EF8D  F007         	goto	u1870
  2257   000F12  EF8B  F007         	goto	u1871
  2258   000F16                     u1871:
  2259   000F16  EF97  F007         	goto	l2788
  2260   000F1A                     u1870:
  2261   000F1A  1E06               	comf	(___almod@dividend+3)^0,f,c
  2262   000F1C  1E05               	comf	(___almod@dividend+2)^0,f,c
  2263   000F1E  1E04               	comf	(___almod@dividend+1)^0,f,c
  2264   000F20  6C03               	negf	___almod@dividend^0,c
  2265   000F22  0E00               	movlw	0
  2266   000F24  2204               	addwfc	(___almod@dividend+1)^0,f,c
  2267   000F26  2205               	addwfc	(___almod@dividend+2)^0,f,c
  2268   000F28  2206               	addwfc	(___almod@dividend+3)^0,f,c
  2269   000F2A  0E01               	movlw	1
  2270   000F2C  6E0C               	movwf	___almod@sign^0,c
  2271   000F2E                     l2788:
  2272   000F2E  BE0A               	btfsc	(___almod@divisor+3)^0,7,c
  2273   000F30  EF9E  F007         	goto	u1880
  2274   000F34  EF9C  F007         	goto	u1881
  2275   000F38                     u1881:
  2276   000F38  EFA6  F007         	goto	l2792
  2277   000F3C                     u1880:
  2278   000F3C  1E0A               	comf	(___almod@divisor+3)^0,f,c
  2279   000F3E  1E09               	comf	(___almod@divisor+2)^0,f,c
  2280   000F40  1E08               	comf	(___almod@divisor+1)^0,f,c
  2281   000F42  6C07               	negf	___almod@divisor^0,c
  2282   000F44  0E00               	movlw	0
  2283   000F46  2208               	addwfc	(___almod@divisor+1)^0,f,c
  2284   000F48  2209               	addwfc	(___almod@divisor+2)^0,f,c
  2285   000F4A  220A               	addwfc	(___almod@divisor+3)^0,f,c
  2286   000F4C                     l2792:
  2287   000F4C  5007               	movf	___almod@divisor^0,w,c
  2288   000F4E  1008               	iorwf	(___almod@divisor+1)^0,w,c
  2289   000F50  1009               	iorwf	(___almod@divisor+2)^0,w,c
  2290   000F52  100A               	iorwf	(___almod@divisor+3)^0,w,c
  2291   000F54  B4D8               	btfsc	status,2,c
  2292   000F56  EFAF  F007         	goto	u1891
  2293   000F5A  EFB1  F007         	goto	u1890
  2294   000F5E                     u1891:
  2295   000F5E  EFE1  F007         	goto	l2808
  2296   000F62                     u1890:
  2297   000F62  0E01               	movlw	1
  2298   000F64  6E0B               	movwf	___almod@counter^0,c
  2299   000F66  EFBB  F007         	goto	l2798
  2300   000F6A                     l2796:
  2301   000F6A  90D8               	bcf	status,0,c
  2302   000F6C  3607               	rlcf	___almod@divisor^0,f,c
  2303   000F6E  3608               	rlcf	(___almod@divisor+1)^0,f,c
  2304   000F70  3609               	rlcf	(___almod@divisor+2)^0,f,c
  2305   000F72  360A               	rlcf	(___almod@divisor+3)^0,f,c
  2306   000F74  2A0B               	incf	___almod@counter^0,f,c
  2307   000F76                     l2798:
  2308   000F76  AE0A               	btfss	(___almod@divisor+3)^0,7,c
  2309   000F78  EFC0  F007         	goto	u1901
  2310   000F7C  EFC2  F007         	goto	u1900
  2311   000F80                     u1901:
  2312   000F80  EFB5  F007         	goto	l2796
  2313   000F84                     u1900:
  2314   000F84                     l2800:
  2315   000F84  5007               	movf	___almod@divisor^0,w,c
  2316   000F86  5C03               	subwf	___almod@dividend^0,w,c
  2317   000F88  5008               	movf	(___almod@divisor+1)^0,w,c
  2318   000F8A  5804               	subwfb	(___almod@dividend+1)^0,w,c
  2319   000F8C  5009               	movf	(___almod@divisor+2)^0,w,c
  2320   000F8E  5805               	subwfb	(___almod@dividend+2)^0,w,c
  2321   000F90  500A               	movf	(___almod@divisor+3)^0,w,c
  2322   000F92  5806               	subwfb	(___almod@dividend+3)^0,w,c
  2323   000F94  A0D8               	btfss	status,0,c
  2324   000F96  EFCF  F007         	goto	u1911
  2325   000F9A  EFD1  F007         	goto	u1910
  2326   000F9E                     u1911:
  2327   000F9E  EFD9  F007         	goto	l2804
  2328   000FA2                     u1910:
  2329   000FA2  5007               	movf	___almod@divisor^0,w,c
  2330   000FA4  5E03               	subwf	___almod@dividend^0,f,c
  2331   000FA6  5008               	movf	(___almod@divisor+1)^0,w,c
  2332   000FA8  5A04               	subwfb	(___almod@dividend+1)^0,f,c
  2333   000FAA  5009               	movf	(___almod@divisor+2)^0,w,c
  2334   000FAC  5A05               	subwfb	(___almod@dividend+2)^0,f,c
  2335   000FAE  500A               	movf	(___almod@divisor+3)^0,w,c
  2336   000FB0  5A06               	subwfb	(___almod@dividend+3)^0,f,c
  2337   000FB2                     l2804:
  2338   000FB2  90D8               	bcf	status,0,c
  2339   000FB4  320A               	rrcf	(___almod@divisor+3)^0,f,c
  2340   000FB6  3209               	rrcf	(___almod@divisor+2)^0,f,c
  2341   000FB8  3208               	rrcf	(___almod@divisor+1)^0,f,c
  2342   000FBA  3207               	rrcf	___almod@divisor^0,f,c
  2343   000FBC  2E0B               	decfsz	___almod@counter^0,f,c
  2344   000FBE  EFC2  F007         	goto	l2800
  2345   000FC2                     l2808:
  2346   000FC2  500C               	movf	___almod@sign^0,w,c
  2347   000FC4  B4D8               	btfsc	status,2,c
  2348   000FC6  EFE7  F007         	goto	u1921
  2349   000FCA  EFE9  F007         	goto	u1920
  2350   000FCE                     u1921:
  2351   000FCE  EFF1  F007         	goto	l2812
  2352   000FD2                     u1920:
  2353   000FD2  1E06               	comf	(___almod@dividend+3)^0,f,c
  2354   000FD4  1E05               	comf	(___almod@dividend+2)^0,f,c
  2355   000FD6  1E04               	comf	(___almod@dividend+1)^0,f,c
  2356   000FD8  6C03               	negf	___almod@dividend^0,c
  2357   000FDA  0E00               	movlw	0
  2358   000FDC  2204               	addwfc	(___almod@dividend+1)^0,f,c
  2359   000FDE  2205               	addwfc	(___almod@dividend+2)^0,f,c
  2360   000FE0  2206               	addwfc	(___almod@dividend+3)^0,f,c
  2361   000FE2                     l2812:
  2362   000FE2  C003  F003         	movff	___almod@dividend,?___almod
  2363   000FE6  C004  F004         	movff	___almod@dividend+1,?___almod+1
  2364   000FEA  C005  F005         	movff	___almod@dividend+2,?___almod+2
  2365   000FEE  C006  F006         	movff	___almod@dividend+3,?___almod+3
  2366   000FF2  0012               	return		;funcret
  2367   000FF4                     __end_of___almod:
  2368                           	callstack 0
  2369                           
  2370 ;; *************** function ___aldiv *****************
  2371 ;; Defined at:
  2372 ;;		line 7 in file "C:\Program Files\Microchip\xc8\v3.00\pic\sources\c99\common\aldiv.c"
  2373 ;; Parameters:    Size  Location     Type
  2374 ;;  dividend        4    2[COMRAM] long 
  2375 ;;  divisor         4    6[COMRAM] long 
  2376 ;; Auto vars:     Size  Location     Type
  2377 ;;  quotient        4   12[COMRAM] long 
  2378 ;;  sign            1   11[COMRAM] unsigned char 
  2379 ;;  counter         1   10[COMRAM] unsigned char 
  2380 ;; Return value:  Size  Location     Type
  2381 ;;                  4    2[COMRAM] long 
  2382 ;; Registers used:
  2383 ;;		wreg, status,2, status,0
  2384 ;; Tracked objects:
  2385 ;;		On entry : 0/0
  2386 ;;		On exit  : 0/0
  2387 ;;		Unchanged: 0/0
  2388 ;; Data sizes:     COMRAM   BANK0   BANK1   BANK2   BANK3   BANK4   BANK5   BANK6   BANK7   BANK8   BANK9  BANK10  BANK1
      +1  BANK12  BANK13  BANK14  BANK15
  2389 ;;      Params:         8       0       0       0       0       0       0       0       0       0       0       0       
      +0       0       0       0       0
  2390 ;;      Locals:         6       0       0       0       0       0       0       0       0       0       0       0       
      +0       0       0       0       0
  2391 ;;      Temps:          0       0       0       0       0       0       0       0       0       0       0       0       
      +0       0       0       0       0
  2392 ;;      Totals:        14       0       0       0       0       0       0       0       0       0       0       0       
      +0       0       0       0       0
  2393 ;;Total ram usage:       14 bytes
  2394 ;; Hardware stack levels used: 1
  2395 ;; Hardware stack levels required when called: 1
  2396 ;; This function calls:
  2397 ;;		Nothing
  2398 ;; This function is called by:
  2399 ;;		_LCD_write_variable
  2400 ;; This function uses a non-reentrant model
  2401 ;;
  2402                           
  2403                           	psect	text7
  2404   000C08                     __ptext7:
  2405                           	callstack 0
  2406   000C08                     ___aldiv:
  2407                           	callstack 27
  2408   000C08  6A0C               	clrf	___aldiv@sign^0,c
  2409   000C0A  BE0A               	btfsc	(___aldiv@divisor+3)^0,7,c
  2410   000C0C  EF0C  F006         	goto	u1810
  2411   000C10  EF0A  F006         	goto	u1811
  2412   000C14                     u1811:
  2413   000C14  EF16  F006         	goto	l2744
  2414   000C18                     u1810:
  2415   000C18  1E0A               	comf	(___aldiv@divisor+3)^0,f,c
  2416   000C1A  1E09               	comf	(___aldiv@divisor+2)^0,f,c
  2417   000C1C  1E08               	comf	(___aldiv@divisor+1)^0,f,c
  2418   000C1E  6C07               	negf	___aldiv@divisor^0,c
  2419   000C20  0E00               	movlw	0
  2420   000C22  2208               	addwfc	(___aldiv@divisor+1)^0,f,c
  2421   000C24  2209               	addwfc	(___aldiv@divisor+2)^0,f,c
  2422   000C26  220A               	addwfc	(___aldiv@divisor+3)^0,f,c
  2423   000C28  0E01               	movlw	1
  2424   000C2A  6E0C               	movwf	___aldiv@sign^0,c
  2425   000C2C                     l2744:
  2426   000C2C  BE06               	btfsc	(___aldiv@dividend+3)^0,7,c
  2427   000C2E  EF1D  F006         	goto	u1820
  2428   000C32  EF1B  F006         	goto	u1821
  2429   000C36                     u1821:
  2430   000C36  EF27  F006         	goto	l2750
  2431   000C3A                     u1820:
  2432   000C3A  1E06               	comf	(___aldiv@dividend+3)^0,f,c
  2433   000C3C  1E05               	comf	(___aldiv@dividend+2)^0,f,c
  2434   000C3E  1E04               	comf	(___aldiv@dividend+1)^0,f,c
  2435   000C40  6C03               	negf	___aldiv@dividend^0,c
  2436   000C42  0E00               	movlw	0
  2437   000C44  2204               	addwfc	(___aldiv@dividend+1)^0,f,c
  2438   000C46  2205               	addwfc	(___aldiv@dividend+2)^0,f,c
  2439   000C48  2206               	addwfc	(___aldiv@dividend+3)^0,f,c
  2440   000C4A  0E01               	movlw	1
  2441   000C4C  1A0C               	xorwf	___aldiv@sign^0,f,c
  2442   000C4E                     l2750:
  2443   000C4E  0E00               	movlw	0
  2444   000C50  6E0D               	movwf	___aldiv@quotient^0,c
  2445   000C52  0E00               	movlw	0
  2446   000C54  6E0E               	movwf	(___aldiv@quotient+1)^0,c
  2447   000C56  0E00               	movlw	0
  2448   000C58  6E0F               	movwf	(___aldiv@quotient+2)^0,c
  2449   000C5A  0E00               	movlw	0
  2450   000C5C  6E10               	movwf	(___aldiv@quotient+3)^0,c
  2451   000C5E  5007               	movf	___aldiv@divisor^0,w,c
  2452   000C60  1008               	iorwf	(___aldiv@divisor+1)^0,w,c
  2453   000C62  1009               	iorwf	(___aldiv@divisor+2)^0,w,c
  2454   000C64  100A               	iorwf	(___aldiv@divisor+3)^0,w,c
  2455   000C66  B4D8               	btfsc	status,2,c
  2456   000C68  EF38  F006         	goto	u1831
  2457   000C6C  EF3A  F006         	goto	u1830
  2458   000C70                     u1831:
  2459   000C70  EF70  F006         	goto	l2772
  2460   000C74                     u1830:
  2461   000C74  0E01               	movlw	1
  2462   000C76  6E0B               	movwf	___aldiv@counter^0,c
  2463   000C78  EF44  F006         	goto	l2758
  2464   000C7C                     l2756:
  2465   000C7C  90D8               	bcf	status,0,c
  2466   000C7E  3607               	rlcf	___aldiv@divisor^0,f,c
  2467   000C80  3608               	rlcf	(___aldiv@divisor+1)^0,f,c
  2468   000C82  3609               	rlcf	(___aldiv@divisor+2)^0,f,c
  2469   000C84  360A               	rlcf	(___aldiv@divisor+3)^0,f,c
  2470   000C86  2A0B               	incf	___aldiv@counter^0,f,c
  2471   000C88                     l2758:
  2472   000C88  AE0A               	btfss	(___aldiv@divisor+3)^0,7,c
  2473   000C8A  EF49  F006         	goto	u1841
  2474   000C8E  EF4B  F006         	goto	u1840
  2475   000C92                     u1841:
  2476   000C92  EF3E  F006         	goto	l2756
  2477   000C96                     u1840:
  2478   000C96                     l2760:
  2479   000C96  90D8               	bcf	status,0,c
  2480   000C98  360D               	rlcf	___aldiv@quotient^0,f,c
  2481   000C9A  360E               	rlcf	(___aldiv@quotient+1)^0,f,c
  2482   000C9C  360F               	rlcf	(___aldiv@quotient+2)^0,f,c
  2483   000C9E  3610               	rlcf	(___aldiv@quotient+3)^0,f,c
  2484   000CA0  5007               	movf	___aldiv@divisor^0,w,c
  2485   000CA2  5C03               	subwf	___aldiv@dividend^0,w,c
  2486   000CA4  5008               	movf	(___aldiv@divisor+1)^0,w,c
  2487   000CA6  5804               	subwfb	(___aldiv@dividend+1)^0,w,c
  2488   000CA8  5009               	movf	(___aldiv@divisor+2)^0,w,c
  2489   000CAA  5805               	subwfb	(___aldiv@dividend+2)^0,w,c
  2490   000CAC  500A               	movf	(___aldiv@divisor+3)^0,w,c
  2491   000CAE  5806               	subwfb	(___aldiv@dividend+3)^0,w,c
  2492   000CB0  A0D8               	btfss	status,0,c
  2493   000CB2  EF5D  F006         	goto	u1851
  2494   000CB6  EF5F  F006         	goto	u1850
  2495   000CBA                     u1851:
  2496   000CBA  EF68  F006         	goto	l2768
  2497   000CBE                     u1850:
  2498   000CBE  5007               	movf	___aldiv@divisor^0,w,c
  2499   000CC0  5E03               	subwf	___aldiv@dividend^0,f,c
  2500   000CC2  5008               	movf	(___aldiv@divisor+1)^0,w,c
  2501   000CC4  5A04               	subwfb	(___aldiv@dividend+1)^0,f,c
  2502   000CC6  5009               	movf	(___aldiv@divisor+2)^0,w,c
  2503   000CC8  5A05               	subwfb	(___aldiv@dividend+2)^0,f,c
  2504   000CCA  500A               	movf	(___aldiv@divisor+3)^0,w,c
  2505   000CCC  5A06               	subwfb	(___aldiv@dividend+3)^0,f,c
  2506   000CCE  800D               	bsf	___aldiv@quotient^0,0,c
  2507   000CD0                     l2768:
  2508   000CD0  90D8               	bcf	status,0,c
  2509   000CD2  320A               	rrcf	(___aldiv@divisor+3)^0,f,c
  2510   000CD4  3209               	rrcf	(___aldiv@divisor+2)^0,f,c
  2511   000CD6  3208               	rrcf	(___aldiv@divisor+1)^0,f,c
  2512   000CD8  3207               	rrcf	___aldiv@divisor^0,f,c
  2513   000CDA  2E0B               	decfsz	___aldiv@counter^0,f,c
  2514   000CDC  EF4B  F006         	goto	l2760
  2515   000CE0                     l2772:
  2516   000CE0  500C               	movf	___aldiv@sign^0,w,c
  2517   000CE2  B4D8               	btfsc	status,2,c
  2518   000CE4  EF76  F006         	goto	u1861
  2519   000CE8  EF78  F006         	goto	u1860
  2520   000CEC                     u1861:
  2521   000CEC  EF80  F006         	goto	l2776
  2522   000CF0                     u1860:
  2523   000CF0  1E10               	comf	(___aldiv@quotient+3)^0,f,c
  2524   000CF2  1E0F               	comf	(___aldiv@quotient+2)^0,f,c
  2525   000CF4  1E0E               	comf	(___aldiv@quotient+1)^0,f,c
  2526   000CF6  6C0D               	negf	___aldiv@quotient^0,c
  2527   000CF8  0E00               	movlw	0
  2528   000CFA  220E               	addwfc	(___aldiv@quotient+1)^0,f,c
  2529   000CFC  220F               	addwfc	(___aldiv@quotient+2)^0,f,c
  2530   000CFE  2210               	addwfc	(___aldiv@quotient+3)^0,f,c
  2531   000D00                     l2776:
  2532   000D00  C00D  F003         	movff	___aldiv@quotient,?___aldiv
  2533   000D04  C00E  F004         	movff	___aldiv@quotient+1,?___aldiv+1
  2534   000D08  C00F  F005         	movff	___aldiv@quotient+2,?___aldiv+2
  2535   000D0C  C010  F006         	movff	___aldiv@quotient+3,?___aldiv+3
  2536   000D10  0012               	return		;funcret
  2537   000D12                     __end_of___aldiv:
  2538                           	callstack 0
  2539                           
  2540 ;; *************** function _main_menu *****************
  2541 ;; Defined at:
  2542 ;;		line 305 in file "OBCII_PIC18F46K22.c"
  2543 ;; Parameters:    Size  Location     Type
  2544 ;;		None
  2545 ;; Auto vars:     Size  Location     Type
  2546 ;;		None
  2547 ;; Return value:  Size  Location     Type
  2548 ;;                  1    wreg      void 
  2549 ;; Registers used:
  2550 ;;		wreg, fsr0l, fsr0h, fsr1l, fsr1h, fsr2l, fsr2h, status,2, status,0, tblptrl, tblptrh, tblptru, cstack
  2551 ;; Tracked objects:
  2552 ;;		On entry : 0/0
  2553 ;;		On exit  : 0/0
  2554 ;;		Unchanged: 0/0
  2555 ;; Data sizes:     COMRAM   BANK0   BANK1   BANK2   BANK3   BANK4   BANK5   BANK6   BANK7   BANK8   BANK9  BANK10  BANK1
      +1  BANK12  BANK13  BANK14  BANK15
  2556 ;;      Params:         0       0       0       0       0       0       0       0       0       0       0       0       
      +0       0       0       0       0
  2557 ;;      Locals:         0       0       0       0       0       0       0       0       0       0       0       0       
      +0       0       0       0       0
  2558 ;;      Temps:          2       0       0       0       0       0       0       0       0       0       0       0       
      +0       0       0       0       0
  2559 ;;      Totals:         2       0       0       0       0       0       0       0       0       0       0       0       
      +0       0       0       0       0
  2560 ;;Total ram usage:        2 bytes
  2561 ;; Hardware stack levels used: 1
  2562 ;; Hardware stack levels required when called: 8
  2563 ;; This function calls:
  2564 ;;		_LCD_clear
  2565 ;;		_LCD_configure_cursor_blink
  2566 ;;		_LCD_cursor_set
  2567 ;;		_clear_diagnostic_codes
  2568 ;;		_display_mm
  2569 ;;		_display_system_info
  2570 ;;		_live_reading_mode
  2571 ;;		_readADC
  2572 ;; This function is called by:
  2573 ;;		_main
  2574 ;; This function uses a non-reentrant model
  2575 ;;
  2576                           
  2577                           	psect	text8
  2578   0000D6                     __ptext8:
  2579                           	callstack 0
  2580   0000D6                     _main_menu:
  2581                           	callstack 22
  2582   0000D6                     
  2583                           ;OBCII_PIC18F46K22.c: 307:     LCD_clear();
  2584   0000D6  EC32  F00C         	call	_LCD_clear	;wreg free
  2585   0000DA                     
  2586                           ;OBCII_PIC18F46K22.c: 308:     display_mm();
  2587   0000DA  ECE1  F00B         	call	_display_mm	;wreg free
  2588   0000DE                     l3066:
  2589                           
  2590                           ;OBCII_PIC18F46K22.c: 311:         display_mm();
  2591   0000DE  ECE1  F00B         	call	_display_mm	;wreg free
  2592                           
  2593                           ;OBCII_PIC18F46K22.c: 312:         result = readADC();
  2594   0000E2  ECC6  F00B         	call	_readADC	;wreg free
  2595   0000E6  C003  F049         	movff	?_readADC,_result
  2596   0000EA  C004  F04A         	movff	?_readADC+1,_result+1
  2597   0000EE                     
  2598                           ;OBCII_PIC18F46K22.c: 313:         if(result >= 0 && result <= 255){
  2599   0000EE  044A               	decf	(_result+1)^0,w,c
  2600   0000F0  B0D8               	btfsc	status,0,c
  2601   0000F2  EF7D  F000         	goto	u2111
  2602   0000F6  EF7F  F000         	goto	u2110
  2603   0000FA                     u2111:
  2604   0000FA  EF88  F000         	goto	l3074
  2605   0000FE                     u2110:
  2606   0000FE                     
  2607                           ;OBCII_PIC18F46K22.c: 314:             menu_sel = 0;
  2608   0000FE  0E00               	movlw	0
  2609   000100  6E50               	movwf	(_menu_sel+1)^0,c
  2610   000102  0E00               	movlw	0
  2611   000104  6E4F               	movwf	_menu_sel^0,c
  2612   000106                     
  2613                           ;OBCII_PIC18F46K22.c: 315:             LCD_cursor_set(2,1);
  2614   000106  0E01               	movlw	1
  2615   000108  6E06               	movwf	LCD_cursor_set@column^0,c
  2616   00010A  0E02               	movlw	2
  2617   00010C  ECD3  F00A         	call	_LCD_cursor_set
  2618   000110                     l3074:
  2619                           
  2620                           ;OBCII_PIC18F46K22.c: 318:         if(result >= 256 && result <=511){
  2621   000110  044A               	decf	(_result+1)^0,w,c
  2622   000112  A0D8               	btfss	status,0,c
  2623   000114  EF8E  F000         	goto	u2121
  2624   000118  EF90  F000         	goto	u2120
  2625   00011C                     u2121:
  2626   00011C  EFA2  F000         	goto	l3082
  2627   000120                     u2120:
  2628   000120  0E02               	movlw	2
  2629   000122  5C4A               	subwf	(_result+1)^0,w,c
  2630   000124  B0D8               	btfsc	status,0,c
  2631   000126  EF97  F000         	goto	u2131
  2632   00012A  EF99  F000         	goto	u2130
  2633   00012E                     u2131:
  2634   00012E  EFA2  F000         	goto	l3082
  2635   000132                     u2130:
  2636   000132                     
  2637                           ;OBCII_PIC18F46K22.c: 319:             menu_sel = 1;
  2638   000132  0E00               	movlw	0
  2639   000134  6E50               	movwf	(_menu_sel+1)^0,c
  2640   000136  0E01               	movlw	1
  2641   000138  6E4F               	movwf	_menu_sel^0,c
  2642   00013A                     
  2643                           ;OBCII_PIC18F46K22.c: 320:             LCD_cursor_set(2,5);
  2644   00013A  0E05               	movlw	5
  2645   00013C  6E06               	movwf	LCD_cursor_set@column^0,c
  2646   00013E  0E02               	movlw	2
  2647   000140  ECD3  F00A         	call	_LCD_cursor_set
  2648   000144                     l3082:
  2649                           
  2650                           ;OBCII_PIC18F46K22.c: 323:         if(result >=512 && result <=767){
  2651   000144  0E02               	movlw	2
  2652   000146  5C4A               	subwf	(_result+1)^0,w,c
  2653   000148  A0D8               	btfss	status,0,c
  2654   00014A  EFA9  F000         	goto	u2141
  2655   00014E  EFAB  F000         	goto	u2140
  2656   000152                     u2141:
  2657   000152  EFBD  F000         	goto	l3090
  2658   000156                     u2140:
  2659   000156  0E03               	movlw	3
  2660   000158  5C4A               	subwf	(_result+1)^0,w,c
  2661   00015A  B0D8               	btfsc	status,0,c
  2662   00015C  EFB2  F000         	goto	u2151
  2663   000160  EFB4  F000         	goto	u2150
  2664   000164                     u2151:
  2665   000164  EFBD  F000         	goto	l3090
  2666   000168                     u2150:
  2667   000168                     
  2668                           ;OBCII_PIC18F46K22.c: 324:             menu_sel = 2;
  2669   000168  0E00               	movlw	0
  2670   00016A  6E50               	movwf	(_menu_sel+1)^0,c
  2671   00016C  0E02               	movlw	2
  2672   00016E  6E4F               	movwf	_menu_sel^0,c
  2673   000170                     
  2674                           ;OBCII_PIC18F46K22.c: 325:             LCD_cursor_set(2,9);
  2675   000170  0E09               	movlw	9
  2676   000172  6E06               	movwf	LCD_cursor_set@column^0,c
  2677   000174  0E02               	movlw	2
  2678   000176  ECD3  F00A         	call	_LCD_cursor_set
  2679   00017A                     l3090:
  2680                           
  2681                           ;OBCII_PIC18F46K22.c: 327:         if(result >= 768 && result <=1023 ){
  2682   00017A  0E03               	movlw	3
  2683   00017C  5C4A               	subwf	(_result+1)^0,w,c
  2684   00017E  A0D8               	btfss	status,0,c
  2685   000180  EFC4  F000         	goto	u2161
  2686   000184  EFC6  F000         	goto	u2160
  2687   000188                     u2161:
  2688   000188  EFD8  F000         	goto	l3098
  2689   00018C                     u2160:
  2690   00018C  0E04               	movlw	4
  2691   00018E  5C4A               	subwf	(_result+1)^0,w,c
  2692   000190  B0D8               	btfsc	status,0,c
  2693   000192  EFCD  F000         	goto	u2171
  2694   000196  EFCF  F000         	goto	u2170
  2695   00019A                     u2171:
  2696   00019A  EFD8  F000         	goto	l3098
  2697   00019E                     u2170:
  2698   00019E                     
  2699                           ;OBCII_PIC18F46K22.c: 328:             menu_sel = 3;
  2700   00019E  0E00               	movlw	0
  2701   0001A0  6E50               	movwf	(_menu_sel+1)^0,c
  2702   0001A2  0E03               	movlw	3
  2703   0001A4  6E4F               	movwf	_menu_sel^0,c
  2704   0001A6                     
  2705                           ;OBCII_PIC18F46K22.c: 329:             LCD_cursor_set(2,13);
  2706   0001A6  0E0D               	movlw	13
  2707   0001A8  6E06               	movwf	LCD_cursor_set@column^0,c
  2708   0001AA  0E02               	movlw	2
  2709   0001AC  ECD3  F00A         	call	_LCD_cursor_set
  2710   0001B0                     l3098:
  2711                           
  2712                           ;OBCII_PIC18F46K22.c: 331:         LCD_configure_cursor_blink(1);
  2713   0001B0  0E01               	movlw	1
  2714   0001B2  EC21  F00C         	call	_LCD_configure_cursor_blink
  2715   0001B6                     
  2716                           ;OBCII_PIC18F46K22.c: 333:         if (PORTBbits.RB4 == 0) {
  2717   0001B6  B881               	btfsc	129,4,c	;volatile
  2718   0001B8  EFE0  F000         	goto	u2181
  2719   0001BC  EFE2  F000         	goto	u2180
  2720   0001C0                     u2181:
  2721   0001C0  EF78  F001         	goto	l3168
  2722   0001C4                     u2180:
  2723   0001C4                     
  2724                           ;OBCII_PIC18F46K22.c: 334:             _delay((unsigned long)((20)*(16000000/4000.0)));
  2725   0001C4  0E68               	movlw	104
  2726   0001C6  6E33               	movwf	??_main_menu^0,c
  2727   0001C8  0EE4               	movlw	228
  2728   0001CA                     u2487:
  2729   0001CA  2EE8               	decfsz	wreg,f,c
  2730   0001CC  D7FE               	bra	u2487
  2731   0001CE  2E33               	decfsz	??_main_menu^0,f,c
  2732   0001D0  D7FC               	bra	u2487
  2733   0001D2  D000               	nop2	
  2734   0001D4                     
  2735                           ;OBCII_PIC18F46K22.c: 335:             if (PORTBbits.RB4 == 0) {
  2736   0001D4  B881               	btfsc	129,4,c	;volatile
  2737   0001D6  EFEF  F000         	goto	u2191
  2738   0001DA  EFF1  F000         	goto	u2190
  2739   0001DE                     u2191:
  2740   0001DE  EF78  F001         	goto	l3168
  2741   0001E2                     u2190:
  2742   0001E2                     
  2743                           ;OBCII_PIC18F46K22.c: 336:                 LCD_configure_cursor_blink(0);
  2744   0001E2  0E00               	movlw	0
  2745   0001E4  EC21  F00C         	call	_LCD_configure_cursor_blink
  2746                           
  2747                           ;OBCII_PIC18F46K22.c: 337:                 LCD_clear();
  2748   0001E8  EC32  F00C         	call	_LCD_clear	;wreg free
  2749                           
  2750                           ;OBCII_PIC18F46K22.c: 340:                 switch (menu_sel) {
  2751   0001EC  EF5A  F001         	goto	l3166
  2752   0001F0                     l3108:
  2753                           
  2754                           ;OBCII_PIC18F46K22.c: 343:                             live_reading_mode();
  2755   0001F0  EC0E  F00C         	call	_live_reading_mode	;wreg free
  2756   0001F4                     
  2757                           ;OBCII_PIC18F46K22.c: 345:                             if (PORTCbits.RC5 == 0) {
  2758   0001F4  BA82               	btfsc	130,5,c	;volatile
  2759   0001F6  EFFF  F000         	goto	u2201
  2760   0001FA  EF01  F001         	goto	u2200
  2761   0001FE                     u2201:
  2762   0001FE  EFF8  F000         	goto	l3108
  2763   000202                     u2200:
  2764   000202                     
  2765                           ;OBCII_PIC18F46K22.c: 346:                                 _delay((unsigned long)((20)*(
      +                          16000000/4000.0)));
  2766   000202  0E68               	movlw	104
  2767   000204  6E33               	movwf	??_main_menu^0,c
  2768   000206  0EE4               	movlw	228
  2769   000208                     u2497:
  2770   000208  2EE8               	decfsz	wreg,f,c
  2771   00020A  D7FE               	bra	u2497
  2772   00020C  2E33               	decfsz	??_main_menu^0,f,c
  2773   00020E  D7FC               	bra	u2497
  2774   000210  D000               	nop2	
  2775   000212                     
  2776                           ;OBCII_PIC18F46K22.c: 347:                                 if (PORTCbits.RC5 == 0) {
  2777   000212  BA82               	btfsc	130,5,c	;volatile
  2778   000214  EF0E  F001         	goto	u2211
  2779   000218  EF10  F001         	goto	u2210
  2780   00021C                     u2211:
  2781   00021C  EFF8  F000         	goto	l3108
  2782   000220                     u2210:
  2783   000220                     l3116:
  2784                           
  2785                           ;OBCII_PIC18F46K22.c: 348:                                     LCD_clear();
  2786   000220  EC32  F00C         	call	_LCD_clear	;wreg free
  2787   000224                     
  2788                           ;OBCII_PIC18F46K22.c: 349:                                     display_mm();
  2789   000224  ECE1  F00B         	call	_display_mm	;wreg free
  2790   000228                     l3120:
  2791                           
  2792                           ;OBCII_PIC18F46K22.c: 350:                                     menu_sel = -1;
  2793   000228  684F               	setf	_menu_sel^0,c
  2794   00022A  6850               	setf	(_menu_sel+1)^0,c
  2795                           
  2796                           ;OBCII_PIC18F46K22.c: 351:                                     break;
  2797   00022C  EF78  F001         	goto	l3168
  2798   000230                     l220:
  2799                           
  2800                           ;OBCII_PIC18F46K22.c: 362:                             if (PORTCbits.RC5 == 0) {
  2801   000230  BA82               	btfsc	130,5,c	;volatile
  2802   000232  EF1D  F001         	goto	u2221
  2803   000236  EF1F  F001         	goto	u2220
  2804   00023A                     u2221:
  2805   00023A  EF18  F001         	goto	l220
  2806   00023E                     u2220:
  2807   00023E                     
  2808                           ;OBCII_PIC18F46K22.c: 363:                                     _delay((unsigned long)((2
      +                          0)*(16000000/4000.0)));
  2809   00023E  0E68               	movlw	104
  2810   000240  6E33               	movwf	??_main_menu^0,c
  2811   000242  0EE4               	movlw	228
  2812   000244                     u2507:
  2813   000244  2EE8               	decfsz	wreg,f,c
  2814   000246  D7FE               	bra	u2507
  2815   000248  2E33               	decfsz	??_main_menu^0,f,c
  2816   00024A  D7FC               	bra	u2507
  2817   00024C  D000               	nop2	
  2818   00024E                     
  2819                           ;OBCII_PIC18F46K22.c: 364:                                 if (PORTCbits.RC5 == 0) {
  2820   00024E  BA82               	btfsc	130,5,c	;volatile
  2821   000250  EF2C  F001         	goto	u2231
  2822   000254  EF2E  F001         	goto	u2230
  2823   000258                     u2231:
  2824   000258  EF18  F001         	goto	l220
  2825   00025C                     u2230:
  2826   00025C  EF10  F001         	goto	l3116
  2827   000260                     l3132:
  2828                           
  2829                           ;OBCII_PIC18F46K22.c: 376:                                 _delay((unsigned long)((200)*
      +                          (16000000/4000.0)));
  2830   000260  0E05               	movlw	5
  2831   000262  6E34               	movwf	(??_main_menu+1)^0,c
  2832   000264  0E0F               	movlw	15
  2833   000266  6E33               	movwf	??_main_menu^0,c
  2834   000268  0EF1               	movlw	241
  2835   00026A                     u2517:
  2836   00026A  2EE8               	decfsz	wreg,f,c
  2837   00026C  D7FE               	bra	u2517
  2838   00026E  2E33               	decfsz	??_main_menu^0,f,c
  2839   000270  D7FC               	bra	u2517
  2840   000272  2E34               	decfsz	(??_main_menu+1)^0,f,c
  2841   000274  D7FA               	bra	u2517
  2842   000276  0000               	nop	
  2843   000278                     
  2844                           ;OBCII_PIC18F46K22.c: 377:                                 clear_diagnostic_codes();
  2845   000278  EC87  F001         	call	_clear_diagnostic_codes	;wreg free
  2846   00027C  EF14  F001         	goto	l3120
  2847   000280                     l3150:
  2848                           
  2849                           ;OBCII_PIC18F46K22.c: 394:                             display_system_info();
  2850   000280  ECAB  F00B         	call	_display_system_info	;wreg free
  2851   000284                     
  2852                           ;OBCII_PIC18F46K22.c: 396:                             if (PORTCbits.RC5 == 0) {
  2853   000284  BA82               	btfsc	130,5,c	;volatile
  2854   000286  EF47  F001         	goto	u2241
  2855   00028A  EF49  F001         	goto	u2240
  2856   00028E                     u2241:
  2857   00028E  EF40  F001         	goto	l3150
  2858   000292                     u2240:
  2859   000292                     
  2860                           ;OBCII_PIC18F46K22.c: 397:                                _delay((unsigned long)((20)*(1
      +                          6000000/4000.0)));
  2861   000292  0E68               	movlw	104
  2862   000294  6E33               	movwf	??_main_menu^0,c
  2863   000296  0EE4               	movlw	228
  2864   000298                     u2527:
  2865   000298  2EE8               	decfsz	wreg,f,c
  2866   00029A  D7FE               	bra	u2527
  2867   00029C  2E33               	decfsz	??_main_menu^0,f,c
  2868   00029E  D7FC               	bra	u2527
  2869   0002A0  D000               	nop2	
  2870   0002A2                     
  2871                           ;OBCII_PIC18F46K22.c: 398:                                 if (PORTCbits.RC5 == 0) {
  2872   0002A2  BA82               	btfsc	130,5,c	;volatile
  2873   0002A4  EF56  F001         	goto	u2251
  2874   0002A8  EF58  F001         	goto	u2250
  2875   0002AC                     u2251:
  2876   0002AC  EF40  F001         	goto	l3150
  2877   0002B0                     u2250:
  2878   0002B0  EF10  F001         	goto	l3116
  2879   0002B4                     l3166:
  2880   0002B4  C04F  F033         	movff	_menu_sel,??_main_menu
  2881   0002B8  C050  F034         	movff	_menu_sel+1,??_main_menu+1
  2882                           
  2883                           ; Switch on 2 bytes has been partitioned into a top level switch of size 1, and 1 sub-sw
      +                          itches
  2884                           ; Switch size 1, requested type "simple"
  2885                           ; Number of cases is 1, Range of values is 0 to 0
  2886                           ; switch strategies available:
  2887                           ; Name         Instructions Cycles
  2888                           ; simple_byte            4     3 (average)
  2889                           ;	Chosen strategy is simple_byte
  2890   0002BC  5034               	movf	(??_main_menu+1)^0,w,c
  2891   0002BE  0A00               	xorlw	0	; case 0
  2892   0002C0  B4D8               	btfsc	status,2,c
  2893   0002C2  EF65  F001         	goto	l3340
  2894   0002C6  EF78  F001         	goto	l210
  2895   0002CA                     l3340:
  2896                           
  2897                           ; Switch size 1, requested type "simple"
  2898                           ; Number of cases is 4, Range of values is 0 to 3
  2899                           ; switch strategies available:
  2900                           ; Name         Instructions Cycles
  2901                           ; simple_byte           13     7 (average)
  2902                           ;	Chosen strategy is simple_byte
  2903   0002CA  5033               	movf	??_main_menu^0,w,c
  2904   0002CC  0A00               	xorlw	0	; case 0
  2905   0002CE  B4D8               	btfsc	status,2,c
  2906   0002D0  EFF8  F000         	goto	l3108
  2907   0002D4  0A01               	xorlw	1	; case 1
  2908   0002D6  B4D8               	btfsc	status,2,c
  2909   0002D8  EF18  F001         	goto	l220
  2910   0002DC  0A03               	xorlw	3	; case 2
  2911   0002DE  B4D8               	btfsc	status,2,c
  2912   0002E0  EF30  F001         	goto	l3132
  2913   0002E4  0A01               	xorlw	1	; case 3
  2914   0002E6  B4D8               	btfsc	status,2,c
  2915   0002E8  EF40  F001         	goto	l3150
  2916   0002EC  EF78  F001         	goto	l210
  2917   0002F0                     l210:
  2918   0002F0                     l3168:
  2919                           
  2920                           ;OBCII_PIC18F46K22.c: 414:         _delay((unsigned long)((50)*(16000000/4000.0)));
  2921   0002F0  0E02               	movlw	2
  2922   0002F2  6E34               	movwf	(??_main_menu+1)^0,c
  2923   0002F4  0E04               	movlw	4
  2924   0002F6  6E33               	movwf	??_main_menu^0,c
  2925   0002F8  0EBA               	movlw	186
  2926   0002FA                     u2537:
  2927   0002FA  2EE8               	decfsz	wreg,f,c
  2928   0002FC  D7FE               	bra	u2537
  2929   0002FE  2E33               	decfsz	??_main_menu^0,f,c
  2930   000300  D7FC               	bra	u2537
  2931   000302  2E34               	decfsz	(??_main_menu+1)^0,f,c
  2932   000304  D7FA               	bra	u2537
  2933   000306  D000               	nop2	
  2934   000308  EF6F  F000         	goto	l3066
  2935   00030C  0012               	return		;funcret
  2936   00030E                     __end_of_main_menu:
  2937                           	callstack 0
  2938                           
  2939 ;; *************** function _live_reading_mode *****************
  2940 ;; Defined at:
  2941 ;;		line 541 in file "OBCII_PIC18F46K22.c"
  2942 ;; Parameters:    Size  Location     Type
  2943 ;;		None
  2944 ;; Auto vars:     Size  Location     Type
  2945 ;;		None
  2946 ;; Return value:  Size  Location     Type
  2947 ;;                  1    wreg      void 
  2948 ;; Registers used:
  2949 ;;		wreg, fsr0l, fsr0h, fsr1l, fsr1h, fsr2l, fsr2h, status,2, status,0, tblptrl, tblptrh, tblptru, cstack
  2950 ;; Tracked objects:
  2951 ;;		On entry : 0/0
  2952 ;;		On exit  : 0/0
  2953 ;;		Unchanged: 0/0
  2954 ;; Data sizes:     COMRAM   BANK0   BANK1   BANK2   BANK3   BANK4   BANK5   BANK6   BANK7   BANK8   BANK9  BANK10  BANK1
      +1  BANK12  BANK13  BANK14  BANK15
  2955 ;;      Params:         0       0       0       0       0       0       0       0       0       0       0       0       
      +0       0       0       0       0
  2956 ;;      Locals:         0       0       0       0       0       0       0       0       0       0       0       0       
      +0       0       0       0       0
  2957 ;;      Temps:          2       0       0       0       0       0       0       0       0       0       0       0       
      +0       0       0       0       0
  2958 ;;      Totals:         2       0       0       0       0       0       0       0       0       0       0       0       
      +0       0       0       0       0
  2959 ;;Total ram usage:        2 bytes
  2960 ;; Hardware stack levels used: 1
  2961 ;; Hardware stack levels required when called: 7
  2962 ;; This function calls:
  2963 ;;		_print_AI_Temp
  2964 ;;		_print_RPM
  2965 ;;		_print_Vbatt
  2966 ;; This function is called by:
  2967 ;;		_main_menu
  2968 ;; This function uses a non-reentrant model
  2969 ;;
  2970                           
  2971                           	psect	text9
  2972   00181C                     __ptext9:
  2973                           	callstack 0
  2974   00181C                     _live_reading_mode:
  2975                           	callstack 22
  2976   00181C                     
  2977                           ;OBCII_PIC18F46K22.c: 542:             print_RPM();
  2978   00181C  ECD5  F004         	call	_print_RPM	;wreg free
  2979   001820                     
  2980                           ;OBCII_PIC18F46K22.c: 543:             print_Vbatt();
  2981   001820  ECFA  F007         	call	_print_Vbatt	;wreg free
  2982   001824                     
  2983                           ;OBCII_PIC18F46K22.c: 544:             print_AI_Temp();
  2984   001824  EC79  F005         	call	_print_AI_Temp	;wreg free
  2985   001828                     
  2986                           ;OBCII_PIC18F46K22.c: 545:             _delay((unsigned long)((50)*(16000000/4000.0)));
  2987   001828  0E02               	movlw	2
  2988   00182A  6E32               	movwf	(??_live_reading_mode+1)^0,c
  2989   00182C  0E04               	movlw	4
  2990   00182E  6E31               	movwf	??_live_reading_mode^0,c
  2991   001830  0EBA               	movlw	186
  2992   001832                     u2547:
  2993   001832  2EE8               	decfsz	wreg,f,c
  2994   001834  D7FE               	bra	u2547
  2995   001836  2E31               	decfsz	??_live_reading_mode^0,f,c
  2996   001838  D7FC               	bra	u2547
  2997   00183A  2E32               	decfsz	(??_live_reading_mode+1)^0,f,c
  2998   00183C  D7FA               	bra	u2547
  2999   00183E  D000               	nop2	
  3000   001840  0012               	return		;funcret
  3001   001842                     __end_of_live_reading_mode:
  3002                           	callstack 0
  3003                           
  3004 ;; *************** function _print_Vbatt *****************
  3005 ;; Defined at:
  3006 ;;		line 468 in file "OBCII_PIC18F46K22.c"
  3007 ;; Parameters:    Size  Location     Type
  3008 ;;		None
  3009 ;; Auto vars:     Size  Location     Type
  3010 ;;		None
  3011 ;; Return value:  Size  Location     Type
  3012 ;;                  1    wreg      void 
  3013 ;; Registers used:
  3014 ;;		wreg, fsr0l, fsr0h, fsr2l, fsr2h, status,2, status,0, tblptrl, tblptrh, tblptru, cstack
  3015 ;; Tracked objects:
  3016 ;;		On entry : 0/0
  3017 ;;		On exit  : 0/0
  3018 ;;		Unchanged: 0/0
  3019 ;; Data sizes:     COMRAM   BANK0   BANK1   BANK2   BANK3   BANK4   BANK5   BANK6   BANK7   BANK8   BANK9  BANK10  BANK1
      +1  BANK12  BANK13  BANK14  BANK15
  3020 ;;      Params:         0       0       0       0       0       0       0       0       0       0       0       0       
      +0       0       0       0       0
  3021 ;;      Locals:         0       0       0       0       0       0       0       0       0       0       0       0       
      +0       0       0       0       0
  3022 ;;      Temps:          1       0       0       0       0       0       0       0       0       0       0       0       
      +0       0       0       0       0
  3023 ;;      Totals:         1       0       0       0       0       0       0       0       0       0       0       0       
      +0       0       0       0       0
  3024 ;;Total ram usage:        1 bytes
  3025 ;; Hardware stack levels used: 1
  3026 ;; Hardware stack levels required when called: 5
  3027 ;; This function calls:
  3028 ;;		_LCD_clear
  3029 ;;		_LCD_cursor_set
  3030 ;;		_LCD_write_string
  3031 ;;		_UART1_SendString
  3032 ;;		_clear_parsing_notif
  3033 ;;		_display_mm
  3034 ;;		_parsing_notif
  3035 ;;		_strchr
  3036 ;; This function is called by:
  3037 ;;		_live_reading_mode
  3038 ;; This function uses a non-reentrant model
  3039 ;;
  3040                           
  3041                           	psect	text10
  3042   000FF4                     __ptext10:
  3043                           	callstack 0
  3044   000FF4                     _print_Vbatt:
  3045                           	callstack 23
  3046   000FF4                     
  3047                           ;OBCII_PIC18F46K22.c: 470:     UART1_SendString("ATRV\r");
  3048   000FF4  0ECE               	movlw	low STR_17
  3049   000FF6  6E04               	movwf	UART1_SendString@string^0,c
  3050   000FF8  0EFF               	movlw	high STR_17
  3051   000FFA  6E05               	movwf	(UART1_SendString@string+1)^0,c
  3052   000FFC  EC03  F00B         	call	_UART1_SendString	;wreg free
  3053                           
  3054                           ;OBCII_PIC18F46K22.c: 471:     while(!message_complete) {
  3055   001000  EF22  F008         	goto	l2606
  3056   001004                     l258:
  3057                           
  3058                           ;OBCII_PIC18F46K22.c: 473:         if (PORTCbits.RC5 == 0) {
  3059   001004  BA82               	btfsc	130,5,c	;volatile
  3060   001006  EF07  F008         	goto	u1661
  3061   00100A  EF09  F008         	goto	u1660
  3062   00100E                     u1661:
  3063   00100E  EF20  F008         	goto	l2604
  3064   001012                     u1660:
  3065   001012                     
  3066                           ;OBCII_PIC18F46K22.c: 474:             _delay((unsigned long)((20)*(16000000/4000.0)));
  3067   001012  0E68               	movlw	104
  3068   001014  6E0B               	movwf	??_print_Vbatt^0,c
  3069   001016  0EE4               	movlw	228
  3070   001018                     u2557:
  3071   001018  2EE8               	decfsz	wreg,f,c
  3072   00101A  D7FE               	bra	u2557
  3073   00101C  2E0B               	decfsz	??_print_Vbatt^0,f,c
  3074   00101E  D7FC               	bra	u2557
  3075   001020  D000               	nop2	
  3076   001022                     
  3077                           ;OBCII_PIC18F46K22.c: 475:             if (PORTCbits.RC5 == 0) {
  3078   001022  BA82               	btfsc	130,5,c	;volatile
  3079   001024  EF16  F008         	goto	u1671
  3080   001028  EF18  F008         	goto	u1670
  3081   00102C                     u1671:
  3082   00102C  EF20  F008         	goto	l2604
  3083   001030                     u1670:
  3084   001030                     
  3085                           ;OBCII_PIC18F46K22.c: 476:                 LCD_clear();
  3086   001030  EC32  F00C         	call	_LCD_clear	;wreg free
  3087   001034                     
  3088                           ;OBCII_PIC18F46K22.c: 477:                 display_mm();
  3089   001034  ECE1  F00B         	call	_display_mm	;wreg free
  3090   001038                     
  3091                           ;OBCII_PIC18F46K22.c: 478:                 menu_sel = -1;
  3092   001038  684F               	setf	_menu_sel^0,c
  3093   00103A  6850               	setf	(_menu_sel+1)^0,c
  3094                           
  3095                           ;OBCII_PIC18F46K22.c: 479:                 break;
  3096   00103C  EF2A  F008         	goto	l2608
  3097   001040                     l2604:
  3098                           
  3099                           ;OBCII_PIC18F46K22.c: 482:         parsing_notif();
  3100   001040  EC40  F00C         	call	_parsing_notif	;wreg free
  3101   001044                     l2606:
  3102                           
  3103                           ;OBCII_PIC18F46K22.c: 471:     while(!message_complete) {
  3104   001044  504C               	movf	_message_complete^0,w,c	;volatile
  3105   001046  B4D8               	btfsc	status,2,c
  3106   001048  EF28  F008         	goto	u1681
  3107   00104C  EF2A  F008         	goto	u1680
  3108   001050                     u1681:
  3109   001050  EF02  F008         	goto	l258
  3110   001054                     u1680:
  3111   001054                     l2608:
  3112                           
  3113                           ;OBCII_PIC18F46K22.c: 484:     clear_parsing_notif();
  3114   001054  EC4C  F00C         	call	_clear_parsing_notif	;wreg free
  3115   001058                     
  3116                           ;OBCII_PIC18F46K22.c: 486:     LCD_cursor_set(2,7);
  3117   001058  0E07               	movlw	7
  3118   00105A  6E06               	movwf	LCD_cursor_set@column^0,c
  3119   00105C  0E02               	movlw	2
  3120   00105E  ECD3  F00A         	call	_LCD_cursor_set
  3121   001062                     
  3122                           ;OBCII_PIC18F46K22.c: 487:     LCD_write_string("     ");
  3123   001062  0E97               	movlw	low (STR_31+8)
  3124   001064  6E06               	movwf	LCD_write_string@string^0,c
  3125   001066  0EFF               	movlw	high (STR_31+8)
  3126   001068  6E07               	movwf	(LCD_write_string@string+1)^0,c
  3127   00106A  ECC3  F009         	call	_LCD_write_string	;wreg free
  3128                           
  3129                           ;OBCII_PIC18F46K22.c: 489:     LCD_cursor_set(1,7);
  3130   00106E  0E07               	movlw	7
  3131   001070  6E06               	movwf	LCD_cursor_set@column^0,c
  3132   001072  0E01               	movlw	1
  3133   001074  ECD3  F00A         	call	_LCD_cursor_set
  3134   001078                     
  3135                           ;OBCII_PIC18F46K22.c: 490:     LCD_write_string("VBatt");
  3136   001078  0ED4               	movlw	low STR_19
  3137   00107A  6E06               	movwf	LCD_write_string@string^0,c
  3138   00107C  0EFF               	movlw	high STR_19
  3139   00107E  6E07               	movwf	(LCD_write_string@string+1)^0,c
  3140   001080  ECC3  F009         	call	_LCD_write_string	;wreg free
  3141   001084                     
  3142                           ;OBCII_PIC18F46K22.c: 491:     LCD_cursor_set(2,7);
  3143   001084  0E07               	movlw	7
  3144   001086  6E06               	movwf	LCD_cursor_set@column^0,c
  3145   001088  0E02               	movlw	2
  3146   00108A  ECD3  F00A         	call	_LCD_cursor_set
  3147   00108E                     
  3148                           ;OBCII_PIC18F46K22.c: 493:     if (!strchr(buffer, 'V')) {
  3149   00108E  0E80               	movlw	low _buffer
  3150   001090  6E03               	movwf	strchr@s^0,c
  3151   001092  0E00               	movlw	0
  3152   001094  6E05               	movwf	(strchr@c+1)^0,c
  3153   001096  0E56               	movlw	86
  3154   001098  6E04               	movwf	strchr@c^0,c
  3155   00109A  EC72  F00B         	call	_strchr	;wreg free
  3156   00109E  0900               	iorlw	0
  3157   0010A0  A4D8               	btfss	status,2,c
  3158   0010A2  EF55  F008         	goto	u1691
  3159   0010A6  EF57  F008         	goto	u1690
  3160   0010AA                     u1691:
  3161   0010AA  EF5F  F008         	goto	l2622
  3162   0010AE                     u1690:
  3163   0010AE                     
  3164                           ;OBCII_PIC18F46K22.c: 494:         LCD_write_string("N/A");
  3165   0010AE  0EEC               	movlw	low STR_20
  3166   0010B0  6E06               	movwf	LCD_write_string@string^0,c
  3167   0010B2  0EFF               	movlw	high STR_20
  3168   0010B4  6E07               	movwf	(LCD_write_string@string+1)^0,c
  3169   0010B6  ECC3  F009         	call	_LCD_write_string	;wreg free
  3170                           
  3171                           ;OBCII_PIC18F46K22.c: 495:     }
  3172   0010BA  EF64  F008         	goto	l2624
  3173   0010BE                     l2622:
  3174                           
  3175                           ;OBCII_PIC18F46K22.c: 497:     LCD_write_string(buffer);
  3176   0010BE  0E80               	movlw	low _buffer
  3177   0010C0  6E06               	movwf	LCD_write_string@string^0,c
  3178   0010C2  6A07               	clrf	(LCD_write_string@string+1)^0,c
  3179   0010C4  ECC3  F009         	call	_LCD_write_string	;wreg free
  3180   0010C8                     l2624:
  3181                           
  3182                           ;OBCII_PIC18F46K22.c: 500:     buffer_count = 0;
  3183   0010C8  6A4E               	clrf	_buffer_count^0,c
  3184   0010CA                     
  3185                           ;OBCII_PIC18F46K22.c: 501:     message_complete = 0;
  3186   0010CA  6A4C               	clrf	_message_complete^0,c	;volatile
  3187   0010CC  0012               	return		;funcret
  3188   0010CE                     __end_of_print_Vbatt:
  3189                           	callstack 0
  3190                           
  3191 ;; *************** function _strchr *****************
  3192 ;; Defined at:
  3193 ;;		line 3 in file "C:\Program Files\Microchip\xc8\v3.00\pic\sources\c99\common\strchr.c"
  3194 ;; Parameters:    Size  Location     Type
  3195 ;;  s               1    2[COMRAM] PTR const unsigned char 
  3196 ;;		 -> buffer(32), 
  3197 ;;  c               2    3[COMRAM] int 
  3198 ;; Auto vars:     Size  Location     Type
  3199 ;;		None
  3200 ;; Return value:  Size  Location     Type
  3201 ;;                  1    2[COMRAM] PTR unsigned char 
  3202 ;; Registers used:
  3203 ;;		wreg, fsr2l, fsr2h, status,2, status,0
  3204 ;; Tracked objects:
  3205 ;;		On entry : 0/0
  3206 ;;		On exit  : 0/0
  3207 ;;		Unchanged: 0/0
  3208 ;; Data sizes:     COMRAM   BANK0   BANK1   BANK2   BANK3   BANK4   BANK5   BANK6   BANK7   BANK8   BANK9  BANK10  BANK1
      +1  BANK12  BANK13  BANK14  BANK15
  3209 ;;      Params:         3       0       0       0       0       0       0       0       0       0       0       0       
      +0       0       0       0       0
  3210 ;;      Locals:         0       0       0       0       0       0       0       0       0       0       0       0       
      +0       0       0       0       0
  3211 ;;      Temps:          1       0       0       0       0       0       0       0       0       0       0       0       
      +0       0       0       0       0
  3212 ;;      Totals:         4       0       0       0       0       0       0       0       0       0       0       0       
      +0       0       0       0       0
  3213 ;;Total ram usage:        4 bytes
  3214 ;; Hardware stack levels used: 1
  3215 ;; Hardware stack levels required when called: 1
  3216 ;; This function calls:
  3217 ;;		Nothing
  3218 ;; This function is called by:
  3219 ;;		_print_Vbatt
  3220 ;; This function uses a non-reentrant model
  3221 ;;
  3222                           
  3223                           	psect	text11
  3224   0016E4                     __ptext11:
  3225                           	callstack 0
  3226   0016E4                     _strchr:
  3227                           	callstack 26
  3228   0016E4                     l1195:
  3229   0016E4  5003               	movf	strchr@s^0,w,c
  3230   0016E6  6ED9               	movwf	fsr2l,c
  3231   0016E8  6ADA               	clrf	fsr2h,c
  3232   0016EA  5004               	movf	strchr@c^0,w,c
  3233   0016EC  18DE               	xorwf	postinc2,w,c
  3234   0016EE  A4D8               	btfss	status,2,c
  3235   0016F0  EF7C  F00B         	goto	u1591
  3236   0016F4  EF7E  F00B         	goto	u1590
  3237   0016F8                     u1591:
  3238   0016F8  EF81  F00B         	goto	l2528
  3239   0016FC                     u1590:
  3240   0016FC  5003               	movf	strchr@s^0,w,c
  3241   0016FE  EF8E  F00B         	goto	l1197
  3242   001702                     l2528:
  3243   001702  2A03               	incf	strchr@s^0,f,c
  3244   001704  0403               	decf	strchr@s^0,w,c
  3245   001706  6ED9               	movwf	fsr2l,c
  3246   001708  6ADA               	clrf	fsr2h,c
  3247   00170A  50DF               	movf	indf2,w,c
  3248   00170C  A4D8               	btfss	status,2,c
  3249   00170E  EF8B  F00B         	goto	u1601
  3250   001712  EF8D  F00B         	goto	u1600
  3251   001716                     u1601:
  3252   001716  EF72  F00B         	goto	l1195
  3253   00171A                     u1600:
  3254   00171A  0E00               	movlw	0
  3255   00171C                     l1197:
  3256   00171C  0012               	return		;funcret
  3257   00171E                     __end_of_strchr:
  3258                           	callstack 0
  3259                           
  3260 ;; *************** function _print_RPM *****************
  3261 ;; Defined at:
  3262 ;;		line 432 in file "OBCII_PIC18F46K22.c"
  3263 ;; Parameters:    Size  Location     Type
  3264 ;;		None
  3265 ;; Auto vars:     Size  Location     Type
  3266 ;;		None
  3267 ;; Return value:  Size  Location     Type
  3268 ;;                  1    wreg      void 
  3269 ;; Registers used:
  3270 ;;		wreg, fsr0l, fsr0h, fsr1l, fsr1h, fsr2l, fsr2h, status,2, status,0, tblptrl, tblptrh, tblptru, cstack
  3271 ;; Tracked objects:
  3272 ;;		On entry : 0/0
  3273 ;;		On exit  : 0/0
  3274 ;;		Unchanged: 0/0
  3275 ;; Data sizes:     COMRAM   BANK0   BANK1   BANK2   BANK3   BANK4   BANK5   BANK6   BANK7   BANK8   BANK9  BANK10  BANK1
      +1  BANK12  BANK13  BANK14  BANK15
  3276 ;;      Params:         0       0       0       0       0       0       0       0       0       0       0       0       
      +0       0       0       0       0
  3277 ;;      Locals:         0       0       0       0       0       0       0       0       0       0       0       0       
      +0       0       0       0       0
  3278 ;;      Temps:          3       0       0       0       0       0       0       0       0       0       0       0       
      +0       0       0       0       0
  3279 ;;      Totals:         3       0       0       0       0       0       0       0       0       0       0       0       
      +0       0       0       0       0
  3280 ;;Total ram usage:        3 bytes
  3281 ;; Hardware stack levels used: 1
  3282 ;; Hardware stack levels required when called: 6
  3283 ;; This function calls:
  3284 ;;		_LCD_clear
  3285 ;;		_LCD_cursor_set
  3286 ;;		_LCD_write_string
  3287 ;;		_UART1_SendString
  3288 ;;		_clear_parsing_notif
  3289 ;;		_display_mm
  3290 ;;		_hex_char_to_value
  3291 ;;		_parsing_notif
  3292 ;;		_sprintf
  3293 ;; This function is called by:
  3294 ;;		_live_reading_mode
  3295 ;; This function uses a non-reentrant model
  3296 ;;
  3297                           
  3298                           	psect	text12
  3299   0009AA                     __ptext12:
  3300                           	callstack 0
  3301   0009AA                     _print_RPM:
  3302                           	callstack 22
  3303   0009AA                     
  3304                           ;OBCII_PIC18F46K22.c: 434:     UART1_SendString("010C\r");
  3305   0009AA  0EC2               	movlw	low STR_13
  3306   0009AC  6E04               	movwf	UART1_SendString@string^0,c
  3307   0009AE  0EFF               	movlw	high STR_13
  3308   0009B0  6E05               	movwf	(UART1_SendString@string+1)^0,c
  3309   0009B2  EC03  F00B         	call	_UART1_SendString	;wreg free
  3310                           
  3311                           ;OBCII_PIC18F46K22.c: 435:     while(!message_complete) {
  3312   0009B6  EFFD  F004         	goto	l2564
  3313   0009BA                     l250:
  3314                           
  3315                           ;OBCII_PIC18F46K22.c: 437:         if (PORTCbits.RC5 == 0) {
  3316   0009BA  BA82               	btfsc	130,5,c	;volatile
  3317   0009BC  EFE2  F004         	goto	u1631
  3318   0009C0  EFE4  F004         	goto	u1630
  3319   0009C4                     u1631:
  3320   0009C4  EFFB  F004         	goto	l2562
  3321   0009C8                     u1630:
  3322   0009C8                     
  3323                           ;OBCII_PIC18F46K22.c: 438:             _delay((unsigned long)((20)*(16000000/4000.0)));
  3324   0009C8  0E68               	movlw	104
  3325   0009CA  6E2E               	movwf	??_print_RPM^0,c
  3326   0009CC  0EE4               	movlw	228
  3327   0009CE                     u2567:
  3328   0009CE  2EE8               	decfsz	wreg,f,c
  3329   0009D0  D7FE               	bra	u2567
  3330   0009D2  2E2E               	decfsz	??_print_RPM^0,f,c
  3331   0009D4  D7FC               	bra	u2567
  3332   0009D6  D000               	nop2	
  3333   0009D8                     
  3334                           ;OBCII_PIC18F46K22.c: 439:             if (PORTCbits.RC5 == 0) {
  3335   0009D8  BA82               	btfsc	130,5,c	;volatile
  3336   0009DA  EFF1  F004         	goto	u1641
  3337   0009DE  EFF3  F004         	goto	u1640
  3338   0009E2                     u1641:
  3339   0009E2  EFFB  F004         	goto	l2562
  3340   0009E6                     u1640:
  3341   0009E6                     
  3342                           ;OBCII_PIC18F46K22.c: 440:                 LCD_clear();
  3343   0009E6  EC32  F00C         	call	_LCD_clear	;wreg free
  3344   0009EA                     
  3345                           ;OBCII_PIC18F46K22.c: 441:                 display_mm();
  3346   0009EA  ECE1  F00B         	call	_display_mm	;wreg free
  3347   0009EE                     
  3348                           ;OBCII_PIC18F46K22.c: 442:                 menu_sel = -1;
  3349   0009EE  684F               	setf	_menu_sel^0,c
  3350   0009F0  6850               	setf	(_menu_sel+1)^0,c
  3351                           
  3352                           ;OBCII_PIC18F46K22.c: 443:                 break;
  3353   0009F2  EF05  F005         	goto	l2566
  3354   0009F6                     l2562:
  3355                           
  3356                           ;OBCII_PIC18F46K22.c: 446:         parsing_notif();
  3357   0009F6  EC40  F00C         	call	_parsing_notif	;wreg free
  3358   0009FA                     l2564:
  3359                           
  3360                           ;OBCII_PIC18F46K22.c: 435:     while(!message_complete) {
  3361   0009FA  504C               	movf	_message_complete^0,w,c	;volatile
  3362   0009FC  B4D8               	btfsc	status,2,c
  3363   0009FE  EF03  F005         	goto	u1651
  3364   000A02  EF05  F005         	goto	u1650
  3365   000A06                     u1651:
  3366   000A06  EFDD  F004         	goto	l250
  3367   000A0A                     u1650:
  3368   000A0A                     l2566:
  3369                           
  3370                           ;OBCII_PIC18F46K22.c: 448:     clear_parsing_notif();
  3371   000A0A  EC4C  F00C         	call	_clear_parsing_notif	;wreg free
  3372   000A0E                     
  3373                           ;OBCII_PIC18F46K22.c: 450:     A_rpm = (hex_char_to_value(buffer[4]) << 4) | hex_char_to
      +                          _value(buffer[5]);
  3374   000A0E  0100               	movlb	0	; () banked
  3375   000A10  5184               	movf	(_buffer+4)& (0+255),w,b
  3376   000A12  EC46  F009         	call	_hex_char_to_value
  3377   000A16  6E2E               	movwf	??_print_RPM^0,c
  3378   000A18  6A2F               	clrf	(??_print_RPM+1)^0,c
  3379   000A1A  3A2E               	swapf	??_print_RPM^0,f,c
  3380   000A1C  3A2F               	swapf	(??_print_RPM+1)^0,f,c
  3381   000A1E  0EF0               	movlw	240
  3382   000A20  162F               	andwf	(??_print_RPM+1)^0,f,c
  3383   000A22  502E               	movf	??_print_RPM^0,w,c
  3384   000A24  0B0F               	andlw	15
  3385   000A26  122F               	iorwf	(??_print_RPM+1)^0,f,c
  3386   000A28  0EF0               	movlw	240
  3387   000A2A  162E               	andwf	??_print_RPM^0,f,c
  3388   000A2C  0100               	movlb	0	; () banked
  3389   000A2E  5185               	movf	(_buffer+5)& (0+255),w,b
  3390   000A30  EC46  F009         	call	_hex_char_to_value
  3391   000A34  6E30               	movwf	(??_print_RPM+2)^0,c
  3392   000A36  5030               	movf	(??_print_RPM+2)^0,w,c
  3393   000A38  102E               	iorwf	??_print_RPM^0,w,c
  3394   000A3A  6E47               	movwf	_A_rpm^0,c
  3395   000A3C  502F               	movf	(??_print_RPM+1)^0,w,c
  3396   000A3E  6E48               	movwf	(_A_rpm+1)^0,c
  3397   000A40                     
  3398                           ;OBCII_PIC18F46K22.c: 451:     B_rpm = (hex_char_to_value(buffer[6]) << 4) | hex_char_to
      +                          _value(buffer[7]);
  3399   000A40  0100               	movlb	0	; () banked
  3400   000A42  5186               	movf	(_buffer+6)& (0+255),w,b
  3401   000A44  EC46  F009         	call	_hex_char_to_value
  3402   000A48  6E2E               	movwf	??_print_RPM^0,c
  3403   000A4A  6A2F               	clrf	(??_print_RPM+1)^0,c
  3404   000A4C  3A2E               	swapf	??_print_RPM^0,f,c
  3405   000A4E  3A2F               	swapf	(??_print_RPM+1)^0,f,c
  3406   000A50  0EF0               	movlw	240
  3407   000A52  162F               	andwf	(??_print_RPM+1)^0,f,c
  3408   000A54  502E               	movf	??_print_RPM^0,w,c
  3409   000A56  0B0F               	andlw	15
  3410   000A58  122F               	iorwf	(??_print_RPM+1)^0,f,c
  3411   000A5A  0EF0               	movlw	240
  3412   000A5C  162E               	andwf	??_print_RPM^0,f,c
  3413   000A5E  0100               	movlb	0	; () banked
  3414   000A60  5187               	movf	(_buffer+7)& (0+255),w,b
  3415   000A62  EC46  F009         	call	_hex_char_to_value
  3416   000A66  6E30               	movwf	(??_print_RPM+2)^0,c
  3417   000A68  5030               	movf	(??_print_RPM+2)^0,w,c
  3418   000A6A  102E               	iorwf	??_print_RPM^0,w,c
  3419   000A6C  6E45               	movwf	_B_rpm^0,c
  3420   000A6E  502F               	movf	(??_print_RPM+1)^0,w,c
  3421   000A70  6E46               	movwf	(_B_rpm+1)^0,c
  3422   000A72                     
  3423                           ;OBCII_PIC18F46K22.c: 452:     RPM = ((A_rpm * 256) + B_rpm) / 4;
  3424   000A72  5047               	movf	_A_rpm^0,w,c
  3425   000A74  6E2F               	movwf	(??_print_RPM+1)^0,c
  3426   000A76  6A2E               	clrf	??_print_RPM^0,c
  3427   000A78  5045               	movf	_B_rpm^0,w,c
  3428   000A7A  262E               	addwf	??_print_RPM^0,f,c
  3429   000A7C  5046               	movf	(_B_rpm+1)^0,w,c
  3430   000A7E  222F               	addwfc	(??_print_RPM+1)^0,f,c
  3431   000A80  90D8               	bcf	status,0,c
  3432   000A82  322F               	rrcf	(??_print_RPM+1)^0,f,c
  3433   000A84  322E               	rrcf	??_print_RPM^0,f,c
  3434   000A86  90D8               	bcf	status,0,c
  3435   000A88  322F               	rrcf	(??_print_RPM+1)^0,f,c
  3436   000A8A  322E               	rrcf	??_print_RPM^0,f,c
  3437   000A8C  C02E  F043         	movff	??_print_RPM,_RPM
  3438   000A90  C02F  F044         	movff	??_print_RPM+1,_RPM+1
  3439   000A94                     
  3440                           ;OBCII_PIC18F46K22.c: 454:     sprintf(rpm_string, "%u", RPM);
  3441   000A94  0EB0               	movlw	low _rpm_string
  3442   000A96  6E1D               	movwf	sprintf@s^0,c
  3443   000A98  0EF8               	movlw	low STR_14
  3444   000A9A  6E1E               	movwf	sprintf@fmt^0,c
  3445   000A9C  0EFF               	movlw	high STR_14
  3446   000A9E  6E1F               	movwf	(sprintf@fmt+1)^0,c
  3447   000AA0  C043  F020         	movff	_RPM,?_sprintf+3
  3448   000AA4  C044  F021         	movff	_RPM+1,?_sprintf+4
  3449   000AA8  EC8F  F00B         	call	_sprintf	;wreg free
  3450   000AAC                     
  3451                           ;OBCII_PIC18F46K22.c: 456:     LCD_cursor_set(2,1);
  3452   000AAC  0E01               	movlw	1
  3453   000AAE  6E06               	movwf	LCD_cursor_set@column^0,c
  3454   000AB0  0E02               	movlw	2
  3455   000AB2  ECD3  F00A         	call	_LCD_cursor_set
  3456   000AB6                     
  3457                           ;OBCII_PIC18F46K22.c: 457:     LCD_write_string("     ");
  3458   000AB6  0E97               	movlw	low (STR_31+8)
  3459   000AB8  6E06               	movwf	LCD_write_string@string^0,c
  3460   000ABA  0EFF               	movlw	high (STR_31+8)
  3461   000ABC  6E07               	movwf	(LCD_write_string@string+1)^0,c
  3462   000ABE  ECC3  F009         	call	_LCD_write_string	;wreg free
  3463   000AC2                     
  3464                           ;OBCII_PIC18F46K22.c: 459:     LCD_cursor_set(1,1);
  3465   000AC2  0E01               	movlw	1
  3466   000AC4  6E06               	movwf	LCD_cursor_set@column^0,c
  3467   000AC6  0E01               	movlw	1
  3468   000AC8  ECD3  F00A         	call	_LCD_cursor_set
  3469   000ACC                     
  3470                           ;OBCII_PIC18F46K22.c: 460:     LCD_write_string("RPM");
  3471   000ACC  0EF0               	movlw	low STR_16
  3472   000ACE  6E06               	movwf	LCD_write_string@string^0,c
  3473   000AD0  0EFF               	movlw	high STR_16
  3474   000AD2  6E07               	movwf	(LCD_write_string@string+1)^0,c
  3475   000AD4  ECC3  F009         	call	_LCD_write_string	;wreg free
  3476   000AD8                     
  3477                           ;OBCII_PIC18F46K22.c: 461:     LCD_cursor_set(2,1);
  3478   000AD8  0E01               	movlw	1
  3479   000ADA  6E06               	movwf	LCD_cursor_set@column^0,c
  3480   000ADC  0E02               	movlw	2
  3481   000ADE  ECD3  F00A         	call	_LCD_cursor_set
  3482   000AE2                     
  3483                           ;OBCII_PIC18F46K22.c: 462:     LCD_write_string(rpm_string);
  3484   000AE2  0EB0               	movlw	low _rpm_string
  3485   000AE4  6E06               	movwf	LCD_write_string@string^0,c
  3486   000AE6  6A07               	clrf	(LCD_write_string@string+1)^0,c
  3487   000AE8  ECC3  F009         	call	_LCD_write_string	;wreg free
  3488   000AEC                     
  3489                           ;OBCII_PIC18F46K22.c: 464:     buffer_count = 0;
  3490   000AEC  6A4E               	clrf	_buffer_count^0,c
  3491   000AEE                     
  3492                           ;OBCII_PIC18F46K22.c: 465:     message_complete = 0;
  3493   000AEE  6A4C               	clrf	_message_complete^0,c	;volatile
  3494   000AF0  0012               	return		;funcret
  3495   000AF2                     __end_of_print_RPM:
  3496                           	callstack 0
  3497                           
  3498 ;; *************** function _print_AI_Temp *****************
  3499 ;; Defined at:
  3500 ;;		line 504 in file "OBCII_PIC18F46K22.c"
  3501 ;; Parameters:    Size  Location     Type
  3502 ;;		None
  3503 ;; Auto vars:     Size  Location     Type
  3504 ;;		None
  3505 ;; Return value:  Size  Location     Type
  3506 ;;                  1    wreg      void 
  3507 ;; Registers used:
  3508 ;;		wreg, fsr0l, fsr0h, fsr1l, fsr1h, fsr2l, fsr2h, status,2, status,0, tblptrl, tblptrh, tblptru, cstack
  3509 ;; Tracked objects:
  3510 ;;		On entry : 0/0
  3511 ;;		On exit  : 0/0
  3512 ;;		Unchanged: 0/0
  3513 ;; Data sizes:     COMRAM   BANK0   BANK1   BANK2   BANK3   BANK4   BANK5   BANK6   BANK7   BANK8   BANK9  BANK10  BANK1
      +1  BANK12  BANK13  BANK14  BANK15
  3514 ;;      Params:         0       0       0       0       0       0       0       0       0       0       0       0       
      +0       0       0       0       0
  3515 ;;      Locals:         0       0       0       0       0       0       0       0       0       0       0       0       
      +0       0       0       0       0
  3516 ;;      Temps:          3       0       0       0       0       0       0       0       0       0       0       0       
      +0       0       0       0       0
  3517 ;;      Totals:         3       0       0       0       0       0       0       0       0       0       0       0       
      +0       0       0       0       0
  3518 ;;Total ram usage:        3 bytes
  3519 ;; Hardware stack levels used: 1
  3520 ;; Hardware stack levels required when called: 6
  3521 ;; This function calls:
  3522 ;;		_LCD_clear
  3523 ;;		_LCD_cursor_set
  3524 ;;		_LCD_write_string
  3525 ;;		_UART1_SendString
  3526 ;;		_clear_parsing_notif
  3527 ;;		_display_mm
  3528 ;;		_hex_char_to_value
  3529 ;;		_parsing_notif
  3530 ;;		_sprintf
  3531 ;; This function is called by:
  3532 ;;		_live_reading_mode
  3533 ;; This function uses a non-reentrant model
  3534 ;;
  3535                           
  3536                           	psect	text13
  3537   000AF2                     __ptext13:
  3538                           	callstack 0
  3539   000AF2                     _print_AI_Temp:
  3540                           	callstack 22
  3541   000AF2                     
  3542                           ;OBCII_PIC18F46K22.c: 506:     UART1_SendString("010F\r");
  3543   000AF2  0EC8               	movlw	low STR_21
  3544   000AF4  6E04               	movwf	UART1_SendString@string^0,c
  3545   000AF6  0EFF               	movlw	high STR_21
  3546   000AF8  6E05               	movwf	(UART1_SendString@string+1)^0,c
  3547   000AFA  EC03  F00B         	call	_UART1_SendString	;wreg free
  3548                           
  3549                           ;OBCII_PIC18F46K22.c: 507:      while(!message_complete) {
  3550   000AFE  EFA1  F005         	goto	l2642
  3551   000B02                     l268:
  3552                           
  3553                           ;OBCII_PIC18F46K22.c: 508:         if (PORTCbits.RC5 == 0) {
  3554   000B02  BA82               	btfsc	130,5,c	;volatile
  3555   000B04  EF86  F005         	goto	u1701
  3556   000B08  EF88  F005         	goto	u1700
  3557   000B0C                     u1701:
  3558   000B0C  EF9F  F005         	goto	l2640
  3559   000B10                     u1700:
  3560   000B10                     
  3561                           ;OBCII_PIC18F46K22.c: 509:             _delay((unsigned long)((20)*(16000000/4000.0)));
  3562   000B10  0E68               	movlw	104
  3563   000B12  6E2E               	movwf	??_print_AI_Temp^0,c
  3564   000B14  0EE4               	movlw	228
  3565   000B16                     u2577:
  3566   000B16  2EE8               	decfsz	wreg,f,c
  3567   000B18  D7FE               	bra	u2577
  3568   000B1A  2E2E               	decfsz	??_print_AI_Temp^0,f,c
  3569   000B1C  D7FC               	bra	u2577
  3570   000B1E  D000               	nop2	
  3571   000B20                     
  3572                           ;OBCII_PIC18F46K22.c: 510:             if (PORTCbits.RC5 == 0) {
  3573   000B20  BA82               	btfsc	130,5,c	;volatile
  3574   000B22  EF95  F005         	goto	u1711
  3575   000B26  EF97  F005         	goto	u1710
  3576   000B2A                     u1711:
  3577   000B2A  EF9F  F005         	goto	l2640
  3578   000B2E                     u1710:
  3579   000B2E                     
  3580                           ;OBCII_PIC18F46K22.c: 511:                 LCD_clear();
  3581   000B2E  EC32  F00C         	call	_LCD_clear	;wreg free
  3582   000B32                     
  3583                           ;OBCII_PIC18F46K22.c: 512:                 display_mm();
  3584   000B32  ECE1  F00B         	call	_display_mm	;wreg free
  3585   000B36                     
  3586                           ;OBCII_PIC18F46K22.c: 513:                 menu_sel = -1;
  3587   000B36  684F               	setf	_menu_sel^0,c
  3588   000B38  6850               	setf	(_menu_sel+1)^0,c
  3589                           
  3590                           ;OBCII_PIC18F46K22.c: 514:                 break;
  3591   000B3A  EFA9  F005         	goto	l2644
  3592   000B3E                     l2640:
  3593                           
  3594                           ;OBCII_PIC18F46K22.c: 518:         parsing_notif();
  3595   000B3E  EC40  F00C         	call	_parsing_notif	;wreg free
  3596   000B42                     l2642:
  3597                           
  3598                           ;OBCII_PIC18F46K22.c: 507:      while(!message_complete) {
  3599   000B42  504C               	movf	_message_complete^0,w,c	;volatile
  3600   000B44  B4D8               	btfsc	status,2,c
  3601   000B46  EFA7  F005         	goto	u1721
  3602   000B4A  EFA9  F005         	goto	u1720
  3603   000B4E                     u1721:
  3604   000B4E  EF81  F005         	goto	l268
  3605   000B52                     u1720:
  3606   000B52                     l2644:
  3607                           
  3608                           ;OBCII_PIC18F46K22.c: 520:     clear_parsing_notif();
  3609   000B52  EC4C  F00C         	call	_clear_parsing_notif	;wreg free
  3610   000B56                     
  3611                           ;OBCII_PIC18F46K22.c: 522:     LCD_cursor_set(2,13);
  3612   000B56  0E0D               	movlw	13
  3613   000B58  6E06               	movwf	LCD_cursor_set@column^0,c
  3614   000B5A  0E02               	movlw	2
  3615   000B5C  ECD3  F00A         	call	_LCD_cursor_set
  3616   000B60                     
  3617                           ;OBCII_PIC18F46K22.c: 523:     LCD_write_string("   ");
  3618   000B60  0E99               	movlw	low (STR_31+10)
  3619   000B62  6E06               	movwf	LCD_write_string@string^0,c
  3620   000B64  0EFF               	movlw	high (STR_31+10)
  3621   000B66  6E07               	movwf	(LCD_write_string@string+1)^0,c
  3622   000B68  ECC3  F009         	call	_LCD_write_string	;wreg free
  3623                           
  3624                           ;OBCII_PIC18F46K22.c: 525:     A_air_intake = (hex_char_to_value(buffer[4]) << 4) | hex_
      +                          char_to_value(buffer[5]);
  3625   000B6C  0100               	movlb	0	; () banked
  3626   000B6E  5184               	movf	(_buffer+4)& (0+255),w,b
  3627   000B70  EC46  F009         	call	_hex_char_to_value
  3628   000B74  6E2E               	movwf	??_print_AI_Temp^0,c
  3629   000B76  6A2F               	clrf	(??_print_AI_Temp+1)^0,c
  3630   000B78  3A2E               	swapf	??_print_AI_Temp^0,f,c
  3631   000B7A  3A2F               	swapf	(??_print_AI_Temp+1)^0,f,c
  3632   000B7C  0EF0               	movlw	240
  3633   000B7E  162F               	andwf	(??_print_AI_Temp+1)^0,f,c
  3634   000B80  502E               	movf	??_print_AI_Temp^0,w,c
  3635   000B82  0B0F               	andlw	15
  3636   000B84  122F               	iorwf	(??_print_AI_Temp+1)^0,f,c
  3637   000B86  0EF0               	movlw	240
  3638   000B88  162E               	andwf	??_print_AI_Temp^0,f,c
  3639   000B8A  0100               	movlb	0	; () banked
  3640   000B8C  5185               	movf	(_buffer+5)& (0+255),w,b
  3641   000B8E  EC46  F009         	call	_hex_char_to_value
  3642   000B92  6E30               	movwf	(??_print_AI_Temp+2)^0,c
  3643   000B94  5030               	movf	(??_print_AI_Temp+2)^0,w,c
  3644   000B96  102E               	iorwf	??_print_AI_Temp^0,w,c
  3645   000B98  6E41               	movwf	_A_air_intake^0,c
  3646   000B9A  502F               	movf	(??_print_AI_Temp+1)^0,w,c
  3647   000B9C  6E42               	movwf	(_A_air_intake+1)^0,c
  3648   000B9E                     
  3649                           ;OBCII_PIC18F46K22.c: 526:     air_intake_temp = A_air_intake - 40;
  3650   000B9E  0ED8               	movlw	216
  3651   000BA0  2441               	addwf	_A_air_intake^0,w,c
  3652   000BA2  6E3F               	movwf	_air_intake_temp^0,c
  3653   000BA4  0EFF               	movlw	255
  3654   000BA6  2042               	addwfc	(_A_air_intake+1)^0,w,c
  3655   000BA8  6E40               	movwf	(_air_intake_temp+1)^0,c
  3656   000BAA                     
  3657                           ;OBCII_PIC18F46K22.c: 528:     sprintf(air_intake_string, "%u", air_intake_temp);
  3658   000BAA  0EA0               	movlw	low _air_intake_string
  3659   000BAC  6E1D               	movwf	sprintf@s^0,c
  3660   000BAE  0EF8               	movlw	low STR_14
  3661   000BB0  6E1E               	movwf	sprintf@fmt^0,c
  3662   000BB2  0EFF               	movlw	high STR_14
  3663   000BB4  6E1F               	movwf	(sprintf@fmt+1)^0,c
  3664   000BB6  C03F  F020         	movff	_air_intake_temp,?_sprintf+3
  3665   000BBA  C040  F021         	movff	_air_intake_temp+1,?_sprintf+4
  3666   000BBE  EC8F  F00B         	call	_sprintf	;wreg free
  3667   000BC2                     
  3668                           ;OBCII_PIC18F46K22.c: 530:     LCD_cursor_set(1,13);
  3669   000BC2  0E0D               	movlw	13
  3670   000BC4  6E06               	movwf	LCD_cursor_set@column^0,c
  3671   000BC6  0E01               	movlw	1
  3672   000BC8  ECD3  F00A         	call	_LCD_cursor_set
  3673   000BCC                     
  3674                           ;OBCII_PIC18F46K22.c: 531:     LCD_write_string("AIT");
  3675   000BCC  0EF4               	movlw	low STR_24
  3676   000BCE  6E06               	movwf	LCD_write_string@string^0,c
  3677   000BD0  0EFF               	movlw	high STR_24
  3678   000BD2  6E07               	movwf	(LCD_write_string@string+1)^0,c
  3679   000BD4  ECC3  F009         	call	_LCD_write_string	;wreg free
  3680   000BD8                     
  3681                           ;OBCII_PIC18F46K22.c: 532:     LCD_cursor_set(2,13);
  3682   000BD8  0E0D               	movlw	13
  3683   000BDA  6E06               	movwf	LCD_cursor_set@column^0,c
  3684   000BDC  0E02               	movlw	2
  3685   000BDE  ECD3  F00A         	call	_LCD_cursor_set
  3686   000BE2                     
  3687                           ;OBCII_PIC18F46K22.c: 533:     LCD_write_string(air_intake_string);
  3688   000BE2  0EA0               	movlw	low _air_intake_string
  3689   000BE4  6E06               	movwf	LCD_write_string@string^0,c
  3690   000BE6  6A07               	clrf	(LCD_write_string@string+1)^0,c
  3691   000BE8  ECC3  F009         	call	_LCD_write_string	;wreg free
  3692   000BEC                     
  3693                           ;OBCII_PIC18F46K22.c: 534:     LCD_cursor_set(2,15);
  3694   000BEC  0E0F               	movlw	15
  3695   000BEE  6E06               	movwf	LCD_cursor_set@column^0,c
  3696   000BF0  0E02               	movlw	2
  3697   000BF2  ECD3  F00A         	call	_LCD_cursor_set
  3698   000BF6                     
  3699                           ;OBCII_PIC18F46K22.c: 535:     LCD_write_string("C");
  3700   000BF6  0EFD               	movlw	low STR_25
  3701   000BF8  6E06               	movwf	LCD_write_string@string^0,c
  3702   000BFA  0EFF               	movlw	high STR_25
  3703   000BFC  6E07               	movwf	(LCD_write_string@string+1)^0,c
  3704   000BFE  ECC3  F009         	call	_LCD_write_string	;wreg free
  3705   000C02                     
  3706                           ;OBCII_PIC18F46K22.c: 537:     buffer_count = 0;
  3707   000C02  6A4E               	clrf	_buffer_count^0,c
  3708   000C04                     
  3709                           ;OBCII_PIC18F46K22.c: 538:     message_complete = 0;
  3710   000C04  6A4C               	clrf	_message_complete^0,c	;volatile
  3711   000C06  0012               	return		;funcret
  3712   000C08                     __end_of_print_AI_Temp:
  3713                           	callstack 0
  3714                           
  3715 ;; *************** function _sprintf *****************
  3716 ;; Defined at:
  3717 ;;		line 9 in file "C:\Program Files\Microchip\xc8\v3.00\pic\sources\c99\common\nf_sprintf.c"
  3718 ;; Parameters:    Size  Location     Type
  3719 ;;  s               1   28[COMRAM] PTR unsigned char 
  3720 ;;		 -> air_intake_string(16), rpm_string(16), 
  3721 ;;  fmt             2   29[COMRAM] PTR const unsigned char 
  3722 ;;		 -> STR_23(3), STR_14(3), 
  3723 ;; Auto vars:     Size  Location     Type
  3724 ;;  f              11   34[COMRAM] struct _IO_FILE
  3725 ;;  ret             2    0        int 
  3726 ;;  ap              1   33[COMRAM] PTR void [1]
  3727 ;;		 -> ?_sprintf(2), 
  3728 ;; Return value:  Size  Location     Type
  3729 ;;                  2   28[COMRAM] int 
  3730 ;; Registers used:
  3731 ;;		wreg, fsr1l, fsr1h, fsr2l, fsr2h, status,2, status,0, tblptrl, tblptrh, tblptru, cstack
  3732 ;; Tracked objects:
  3733 ;;		On entry : 0/0
  3734 ;;		On exit  : 0/0
  3735 ;;		Unchanged: 0/0
  3736 ;; Data sizes:     COMRAM   BANK0   BANK1   BANK2   BANK3   BANK4   BANK5   BANK6   BANK7   BANK8   BANK9  BANK10  BANK1
      +1  BANK12  BANK13  BANK14  BANK15
  3737 ;;      Params:         5       0       0       0       0       0       0       0       0       0       0       0       
      +0       0       0       0       0
  3738 ;;      Locals:        12       0       0       0       0       0       0       0       0       0       0       0       
      +0       0       0       0       0
  3739 ;;      Temps:          0       0       0       0       0       0       0       0       0       0       0       0       
      +0       0       0       0       0
  3740 ;;      Totals:        17       0       0       0       0       0       0       0       0       0       0       0       
      +0       0       0       0       0
  3741 ;;Total ram usage:       17 bytes
  3742 ;; Hardware stack levels used: 1
  3743 ;; Hardware stack levels required when called: 5
  3744 ;; This function calls:
  3745 ;;		_vfprintf
  3746 ;; This function is called by:
  3747 ;;		_print_RPM
  3748 ;;		_print_AI_Temp
  3749 ;; This function uses a non-reentrant model
  3750 ;;
  3751                           
  3752                           	psect	text14
  3753   00171E                     __ptext14:
  3754                           	callstack 0
  3755   00171E                     _sprintf:
  3756                           	callstack 22
  3757   00171E  0E20               	movlw	low (?_sprintf+3)
  3758   001720  6E22               	movwf	sprintf@ap^0,c
  3759   001722  C01D  F023         	movff	sprintf@s,sprintf@f
  3760   001726  0E00               	movlw	0
  3761   001728  6E26               	movwf	(sprintf@f+3)^0,c
  3762   00172A  0E00               	movlw	0
  3763   00172C  6E25               	movwf	(sprintf@f+2)^0,c
  3764   00172E  0E00               	movlw	0
  3765   001730  6E2D               	movwf	(sprintf@f+10)^0,c
  3766   001732  0E00               	movlw	0
  3767   001734  6E2C               	movwf	(sprintf@f+9)^0,c
  3768   001736  0E23               	movlw	low sprintf@f
  3769   001738  6E17               	movwf	vfprintf@fp^0,c
  3770   00173A  C01E  F018         	movff	sprintf@fmt,vfprintf@fmt
  3771   00173E  C01F  F019         	movff	sprintf@fmt+1,vfprintf@fmt+1
  3772   001742  0E22               	movlw	low sprintf@ap
  3773   001744  6E1A               	movwf	vfprintf@ap^0,c
  3774   001746  EC51  F00B         	call	_vfprintf	;wreg free
  3775   00174A  501D               	movf	sprintf@s^0,w,c
  3776   00174C  2425               	addwf	(sprintf@f+2)^0,w,c
  3777   00174E  6ED9               	movwf	fsr2l,c
  3778   001750  6ADA               	clrf	fsr2h,c
  3779   001752  6ADF               	clrf	indf2,c
  3780   001754  0012               	return		;funcret
  3781   001756                     __end_of_sprintf:
  3782                           	callstack 0
  3783                           
  3784 ;; *************** function _vfprintf *****************
  3785 ;; Defined at:
  3786 ;;		line 1817 in file "C:\Program Files\Microchip\xc8\v3.00\pic\sources\c99\common\doprnt.c"
  3787 ;; Parameters:    Size  Location     Type
  3788 ;;  fp              1   22[COMRAM] PTR struct _IO_FILE
  3789 ;;		 -> sprintf@f(11), 
  3790 ;;  fmt             2   23[COMRAM] PTR const unsigned char 
  3791 ;;		 -> STR_23(3), STR_14(3), 
  3792 ;;  ap              1   25[COMRAM] PTR PTR void 
  3793 ;;		 -> sprintf@ap(1), 
  3794 ;; Auto vars:     Size  Location     Type
  3795 ;;  cfmt            2   26[COMRAM] PTR unsigned char 
  3796 ;;		 -> STR_23(3), STR_14(3), 
  3797 ;; Return value:  Size  Location     Type
  3798 ;;                  2   22[COMRAM] int 
  3799 ;; Registers used:
  3800 ;;		wreg, fsr1l, fsr1h, fsr2l, fsr2h, status,2, status,0, tblptrl, tblptrh, tblptru, cstack
  3801 ;; Tracked objects:
  3802 ;;		On entry : 0/0
  3803 ;;		On exit  : 0/0
  3804 ;;		Unchanged: 0/0
  3805 ;; Data sizes:     COMRAM   BANK0   BANK1   BANK2   BANK3   BANK4   BANK5   BANK6   BANK7   BANK8   BANK9  BANK10  BANK1
      +1  BANK12  BANK13  BANK14  BANK15
  3806 ;;      Params:         4       0       0       0       0       0       0       0       0       0       0       0       
      +0       0       0       0       0
  3807 ;;      Locals:         2       0       0       0       0       0       0       0       0       0       0       0       
      +0       0       0       0       0
  3808 ;;      Temps:          0       0       0       0       0       0       0       0       0       0       0       0       
      +0       0       0       0       0
  3809 ;;      Totals:         6       0       0       0       0       0       0       0       0       0       0       0       
      +0       0       0       0       0
  3810 ;;Total ram usage:        6 bytes
  3811 ;; Hardware stack levels used: 1
  3812 ;; Hardware stack levels required when called: 4
  3813 ;; This function calls:
  3814 ;;		_vfpfcnvrt
  3815 ;; This function is called by:
  3816 ;;		_sprintf
  3817 ;; This function uses a non-reentrant model
  3818 ;;
  3819                           
  3820                           	psect	text15
  3821   0016A2                     __ptext15:
  3822                           	callstack 0
  3823   0016A2                     _vfprintf:
  3824                           	callstack 22
  3825   0016A2                     
  3826                           ;C:\Program Files\Microchip\xc8\v3.00\pic\sources\c99\common\doprnt.c: 1817: int vfprint
      +                          f(FILE *fp, const char *fmt, va_list ap);C:\Program Files\Microchip\xc8\v3.00\pic\source
      +                          s\c99\common\doprnt.c: 1818: {;C:\Program Files\Microchip\xc8\v3.00\pic\sources\c99\comm
      +                          on\doprnt.c: 1820:     char *cfmt;;C:\Program Files\Microchip\xc8\v3.00\pic\sources\c99\
      +                          common\doprnt.c: 1822:     cfmt = (char *)fmt;
  3827   0016A2  C018  F01B         	movff	vfprintf@fmt,vfprintf@cfmt
  3828   0016A6  C019  F01C         	movff	vfprintf@fmt+1,vfprintf@cfmt+1
  3829                           
  3830                           ;C:\Program Files\Microchip\xc8\v3.00\pic\sources\c99\common\doprnt.c: 1826:     while (
      +                          *cfmt) {
  3831   0016AA  EF5F  F00B         	goto	l2448
  3832   0016AE                     l2446:
  3833                           
  3834                           ;C:\Program Files\Microchip\xc8\v3.00\pic\sources\c99\common\doprnt.c: 1830:    vfpfcnvr
      +                          t(fp, &cfmt, ap);
  3835   0016AE  C017  F00B         	movff	vfprintf@fp,vfpfcnvrt@fp
  3836   0016B2  0E1B               	movlw	low vfprintf@cfmt
  3837   0016B4  6E0C               	movwf	vfpfcnvrt@fmt^0,c
  3838   0016B6  C01A  F00D         	movff	vfprintf@ap,vfpfcnvrt@ap
  3839   0016BA  EC58  F003         	call	_vfpfcnvrt	;wreg free
  3840   0016BE                     l2448:
  3841                           
  3842                           ;C:\Program Files\Microchip\xc8\v3.00\pic\sources\c99\common\doprnt.c: 1826:     while (
      +                          *cfmt) {
  3843   0016BE  C01B  FFF6         	movff	vfprintf@cfmt,tblptrl
  3844   0016C2  C01C  FFF7         	movff	vfprintf@cfmt+1,tblptrh
  3845   0016C6                     	if	0	;tblptru may be non-zero
  3846   0016C6                     	endif
  3847   0016C6                     	if	0	;tblptru may be non-zero
  3848   0016C6                     	endif
  3849   0016C6  0008               	tblrd		*
  3850   0016C8  50F5               	movf	tablat,w,c
  3851   0016CA  0900               	iorlw	0
  3852   0016CC  A4D8               	btfss	status,2,c
  3853   0016CE  EF6B  F00B         	goto	u1511
  3854   0016D2  EF6D  F00B         	goto	u1510
  3855   0016D6                     u1511:
  3856   0016D6  EF57  F00B         	goto	l2446
  3857   0016DA                     u1510:
  3858   0016DA                     
  3859                           ;C:\Program Files\Microchip\xc8\v3.00\pic\sources\c99\common\doprnt.c: 1835:  return 0;
  3860   0016DA  0E00               	movlw	0
  3861   0016DC  6E18               	movwf	(?_vfprintf+1)^0,c
  3862   0016DE  0E00               	movlw	0
  3863   0016E0  6E17               	movwf	?_vfprintf^0,c
  3864   0016E2  0012               	return		;funcret
  3865   0016E4                     __end_of_vfprintf:
  3866                           	callstack 0
  3867                           
  3868 ;; *************** function _vfpfcnvrt *****************
  3869 ;; Defined at:
  3870 ;;		line 1177 in file "C:\Program Files\Microchip\xc8\v3.00\pic\sources\c99\common\doprnt.c"
  3871 ;; Parameters:    Size  Location     Type
  3872 ;;  fp              1   10[COMRAM] PTR struct _IO_FILE
  3873 ;;		 -> sprintf@f(11), 
  3874 ;;  fmt             1   11[COMRAM] PTR PTR unsigned char 
  3875 ;;		 -> vfprintf@cfmt(2), 
  3876 ;;  ap              1   12[COMRAM] PTR PTR void 
  3877 ;;		 -> sprintf@ap(1), 
  3878 ;; Auto vars:     Size  Location     Type
  3879 ;;  convarg         4   17[COMRAM] struct .
  3880 ;;  cp              2   15[COMRAM] PTR unsigned char 
  3881 ;;		 -> STR_23(3), STR_14(3), 
  3882 ;;  c               1   21[COMRAM] unsigned char 
  3883 ;;  done            1    0        _Bool 
  3884 ;; Return value:  Size  Location     Type
  3885 ;;                  1    wreg      void 
  3886 ;; Registers used:
  3887 ;;		wreg, fsr1l, fsr1h, fsr2l, fsr2h, status,2, status,0, tblptrl, tblptrh, tblptru, cstack
  3888 ;; Tracked objects:
  3889 ;;		On entry : 0/0
  3890 ;;		On exit  : 0/0
  3891 ;;		Unchanged: 0/0
  3892 ;; Data sizes:     COMRAM   BANK0   BANK1   BANK2   BANK3   BANK4   BANK5   BANK6   BANK7   BANK8   BANK9  BANK10  BANK1
      +1  BANK12  BANK13  BANK14  BANK15
  3893 ;;      Params:         3       0       0       0       0       0       0       0       0       0       0       0       
      +0       0       0       0       0
  3894 ;;      Locals:         7       0       0       0       0       0       0       0       0       0       0       0       
      +0       0       0       0       0
  3895 ;;      Temps:          2       0       0       0       0       0       0       0       0       0       0       0       
      +0       0       0       0       0
  3896 ;;      Totals:        12       0       0       0       0       0       0       0       0       0       0       0       
      +0       0       0       0       0
  3897 ;;Total ram usage:       12 bytes
  3898 ;; Hardware stack levels used: 1
  3899 ;; Hardware stack levels required when called: 3
  3900 ;; This function calls:
  3901 ;;		___lwdiv
  3902 ;;		___lwmod
  3903 ;;		_fputc
  3904 ;; This function is called by:
  3905 ;;		_vfprintf
  3906 ;; This function uses a non-reentrant model
  3907 ;;
  3908                           
  3909                           	psect	text16
  3910   0006B0                     __ptext16:
  3911                           	callstack 0
  3912   0006B0                     _vfpfcnvrt:
  3913                           	callstack 22
  3914   0006B0                     
  3915                           ;C:\Program Files\Microchip\xc8\v3.00\pic\sources\c99\common\doprnt.c: 1177: vfpfcnvrt(F
      +                          ILE *fp, char *fmt[], va_list ap);C:\Program Files\Microchip\xc8\v3.00\pic\sources\c99\c
      +                          ommon\doprnt.c: 1178: {;C:\Program Files\Microchip\xc8\v3.00\pic\sources\c99\common\dopr
      +                          nt.c: 1179:     char c, *cp;;C:\Program Files\Microchip\xc8\v3.00\pic\sources\c99\common
      +                          \doprnt.c: 1180:     _Bool done;;C:\Program Files\Microchip\xc8\v3.00\pic\sources\c99\co
      +                          mmon\doprnt.c: 1188:  } convarg;;C:\Program Files\Microchip\xc8\v3.00\pic\sources\c99\co
      +                          mmon\doprnt.c: 1201:     if ((*fmt)[0] == '%') {
  3916   0006B0  500C               	movf	vfpfcnvrt@fmt^0,w,c
  3917   0006B2  6ED9               	movwf	fsr2l,c
  3918   0006B4  6ADA               	clrf	fsr2h,c
  3919   0006B6  CFDE FFF6          	movff	postinc2,tblptrl
  3920   0006BA  CFDD FFF7          	movff	postdec2,tblptrh
  3921   0006BE                     	if	0	;tblptru may be non-zero
  3922   0006BE                     	endif
  3923   0006BE                     	if	0	;tblptru may be non-zero
  3924   0006BE                     	endif
  3925   0006BE  0008               	tblrd		*
  3926   0006C0  50F5               	movf	tablat,w,c
  3927   0006C2  0A25               	xorlw	37
  3928   0006C4  A4D8               	btfss	status,2,c
  3929   0006C6  EF67  F003         	goto	u1381
  3930   0006CA  EF69  F003         	goto	u1380
  3931   0006CE                     u1381:
  3932   0006CE  EF09  F004         	goto	l2414
  3933   0006D2                     u1380:
  3934   0006D2                     
  3935                           ;C:\Program Files\Microchip\xc8\v3.00\pic\sources\c99\common\doprnt.c: 1202:         ++*
      +                          fmt;
  3936   0006D2  500C               	movf	vfpfcnvrt@fmt^0,w,c
  3937   0006D4  6ED9               	movwf	fsr2l,c
  3938   0006D6  6ADA               	clrf	fsr2h,c
  3939   0006D8  2ADE               	incf	postinc2,f,c
  3940   0006DA  0E00               	movlw	0
  3941   0006DC  22DD               	addwfc	postdec2,f,c
  3942   0006DE                     
  3943                           ;C:\Program Files\Microchip\xc8\v3.00\pic\sources\c99\common\doprnt.c: 1204:         fla
      +                          gs = width = 0;
  3944   0006DE  0E00               	movlw	0
  3945   0006E0  6E3C               	movwf	(_width+1)^0,c
  3946   0006E2  0E00               	movlw	0
  3947   0006E4  6E3B               	movwf	_width^0,c
  3948   0006E6  C03B  F04B         	movff	_width,_flags
  3949   0006EA                     
  3950                           ;C:\Program Files\Microchip\xc8\v3.00\pic\sources\c99\common\doprnt.c: 1205:         pre
      +                          c = -1;
  3951   0006EA  683D               	setf	_prec^0,c
  3952   0006EC  683E               	setf	(_prec+1)^0,c
  3953   0006EE                     
  3954                           ;C:\Program Files\Microchip\xc8\v3.00\pic\sources\c99\common\doprnt.c: 1439:   if (0
  3955   0006EE  500C               	movf	vfpfcnvrt@fmt^0,w,c
  3956   0006F0  6ED9               	movwf	fsr2l,c
  3957   0006F2  6ADA               	clrf	fsr2h,c
  3958   0006F4  CFDE F010          	movff	postinc2,vfpfcnvrt@cp
  3959   0006F8  CFDD F011          	movff	postdec2,vfpfcnvrt@cp+1
  3960   0006FC  C010  FFF6         	movff	vfpfcnvrt@cp,tblptrl
  3961   000700  C011  FFF7         	movff	vfpfcnvrt@cp+1,tblptrh
  3962   000704                     	if	0	;tblptru may be non-zero
  3963   000704                     	endif
  3964   000704                     	if	0	;tblptru may be non-zero
  3965   000704                     	endif
  3966   000704  0008               	tblrd		*
  3967   000706  50F5               	movf	tablat,w,c
  3968   000708  0A75               	xorlw	117
  3969   00070A  A4D8               	btfss	status,2,c
  3970   00070C  EF8A  F003         	goto	u1391
  3971   000710  EF8C  F003         	goto	u1390
  3972   000714                     u1391:
  3973   000714  EF01  F004         	goto	l2410
  3974   000718                     u1390:
  3975   000718                     
  3976                           ;C:\Program Files\Microchip\xc8\v3.00\pic\sources\c99\common\doprnt.c: 1452:     ) {;C:\
      +                          Program Files\Microchip\xc8\v3.00\pic\sources\c99\common\doprnt.c: 1495:    convarg.uint
      +                           = (vfpf_uint_t)(unsigned int)(*(unsigned int *)__va_arg(*(unsigned int **)ap, (unsigned
      +                           int)0));
  3977   000718  500D               	movf	vfpfcnvrt@ap^0,w,c
  3978   00071A  6ED9               	movwf	fsr2l,c
  3979   00071C  6ADA               	clrf	fsr2h,c
  3980   00071E  0E02               	movlw	2
  3981   000720  26DF               	addwf	indf2,f,c
  3982   000722  5CDF               	subwf	indf2,w,c
  3983   000724  6ED9               	movwf	fsr2l,c
  3984   000726  6ADA               	clrf	fsr2h,c
  3985   000728  CFDE F012          	movff	postinc2,vfpfcnvrt@convarg
  3986   00072C  CFDE F013          	movff	postinc2,vfpfcnvrt@convarg+1
  3987   000730                     
  3988                           ;C:\Program Files\Microchip\xc8\v3.00\pic\sources\c99\common\doprnt.c: 1497:    *fmt = c
      +                          p+1;
  3989   000730  0E01               	movlw	1
  3990   000732  2410               	addwf	vfpfcnvrt@cp^0,w,c
  3991   000734  6E0E               	movwf	??_vfpfcnvrt^0,c
  3992   000736  0E00               	movlw	0
  3993   000738  2011               	addwfc	(vfpfcnvrt@cp+1)^0,w,c
  3994   00073A  6E0F               	movwf	(??_vfpfcnvrt+1)^0,c
  3995   00073C  500C               	movf	vfpfcnvrt@fmt^0,w,c
  3996   00073E  6ED9               	movwf	fsr2l,c
  3997   000740  6ADA               	clrf	fsr2h,c
  3998   000742  C00E  FFDE         	movff	??_vfpfcnvrt,postinc2
  3999   000746  C00F  FFDD         	movff	??_vfpfcnvrt+1,postdec2
  4000                           
  4001                           ;C:\Program Files\Microchip\xc8\v3.00\pic\sources\c99\common\doprnt.c: 1498:    switch (
      +                          *cp) {
  4002   00074A  EFF5  F003         	goto	l2408
  4003   00074E                     l2390:
  4004                           
  4005                           ;C:\Program Files\Microchip\xc8\v3.00\pic\sources\c99\common\doprnt.c: 1525:      c = si
      +                          zeof(dbuf);
  4006   00074E  0E20               	movlw	32
  4007   000750  6E16               	movwf	vfpfcnvrt@c^0,c
  4008   000752                     l2392:
  4009                           
  4010                           ;C:\Program Files\Microchip\xc8\v3.00\pic\sources\c99\common\doprnt.c: 1527:       dbuf[
      +                          --c] = (convarg.uint % 10) + '0';
  4011   000752  0616               	decf	vfpfcnvrt@c^0,f,c
  4012   000754  5016               	movf	vfpfcnvrt@c^0,w,c
  4013   000756  0F60               	addlw	low _dbuf
  4014   000758  6ED9               	movwf	fsr2l,c
  4015   00075A  6ADA               	clrf	fsr2h,c
  4016   00075C  C012  F003         	movff	vfpfcnvrt@convarg,___lwmod@dividend
  4017   000760  C013  F004         	movff	vfpfcnvrt@convarg+1,___lwmod@dividend+1
  4018   000764  0E00               	movlw	0
  4019   000766  6E06               	movwf	(___lwmod@divisor+1)^0,c
  4020   000768  0E0A               	movlw	10
  4021   00076A  6E05               	movwf	___lwmod@divisor^0,c
  4022   00076C  ECA1  F00A         	call	___lwmod	;wreg free
  4023   000770  5003               	movf	?___lwmod^0,w,c
  4024   000772  0F30               	addlw	48
  4025   000774  6EDF               	movwf	indf2,c
  4026   000776                     
  4027                           ;C:\Program Files\Microchip\xc8\v3.00\pic\sources\c99\common\doprnt.c: 1528:       conva
      +                          rg.uint /= 10;
  4028   000776  C012  F003         	movff	vfpfcnvrt@convarg,___lwdiv@dividend
  4029   00077A  C013  F004         	movff	vfpfcnvrt@convarg+1,___lwdiv@dividend+1
  4030   00077E  0E00               	movlw	0
  4031   000780  6E06               	movwf	(___lwdiv@divisor+1)^0,c
  4032   000782  0E0A               	movlw	10
  4033   000784  6E05               	movwf	___lwdiv@divisor^0,c
  4034   000786  EC00  F00A         	call	___lwdiv	;wreg free
  4035   00078A  C003  F012         	movff	?___lwdiv,vfpfcnvrt@convarg
  4036   00078E  C004  F013         	movff	?___lwdiv+1,vfpfcnvrt@convarg+1
  4037   000792                     
  4038                           ;C:\Program Files\Microchip\xc8\v3.00\pic\sources\c99\common\doprnt.c: 1532:      } whil
      +                          e (convarg.uint != 0 && c != 0);
  4039   000792  5012               	movf	vfpfcnvrt@convarg^0,w,c
  4040   000794  1013               	iorwf	(vfpfcnvrt@convarg+1)^0,w,c
  4041   000796  B4D8               	btfsc	status,2,c
  4042   000798  EFD0  F003         	goto	u1401
  4043   00079C  EFD2  F003         	goto	u1400
  4044   0007A0                     u1401:
  4045   0007A0  EFEA  F003         	goto	l2404
  4046   0007A4                     u1400:
  4047   0007A4  5016               	movf	vfpfcnvrt@c^0,w,c
  4048   0007A6  A4D8               	btfss	status,2,c
  4049   0007A8  EFD8  F003         	goto	u1411
  4050   0007AC  EFDA  F003         	goto	u1410
  4051   0007B0                     u1411:
  4052   0007B0  EFA9  F003         	goto	l2392
  4053   0007B4                     u1410:
  4054   0007B4  EFEA  F003         	goto	l2404
  4055   0007B8                     l2400:
  4056                           
  4057                           ;C:\Program Files\Microchip\xc8\v3.00\pic\sources\c99\common\doprnt.c: 1534:       fputc
      +                          (dbuf[c++], fp);
  4058   0007B8  5016               	movf	vfpfcnvrt@c^0,w,c
  4059   0007BA  0F60               	addlw	low _dbuf
  4060   0007BC  6ED9               	movwf	fsr2l,c
  4061   0007BE  6ADA               	clrf	fsr2h,c
  4062   0007C0  50DF               	movf	indf2,w,c
  4063   0007C2  6E0E               	movwf	??_vfpfcnvrt^0,c
  4064   0007C4  500E               	movf	??_vfpfcnvrt^0,w,c
  4065   0007C6  6E03               	movwf	fputc@c^0,c
  4066   0007C8  6A04               	clrf	(fputc@c+1)^0,c
  4067   0007CA  C00B  F005         	movff	vfpfcnvrt@fp,fputc@fp
  4068   0007CE  EC67  F008         	call	_fputc	;wreg free
  4069   0007D2  2A16               	incf	vfpfcnvrt@c^0,f,c
  4070   0007D4                     l2404:
  4071                           
  4072                           ;C:\Program Files\Microchip\xc8\v3.00\pic\sources\c99\common\doprnt.c: 1533:      while 
      +                          (c != sizeof(dbuf)) {
  4073   0007D4  0E20               	movlw	32
  4074   0007D6  1816               	xorwf	vfpfcnvrt@c^0,w,c
  4075   0007D8  A4D8               	btfss	status,2,c
  4076   0007DA  EFF1  F003         	goto	u1421
  4077   0007DE  EFF3  F003         	goto	u1420
  4078   0007E2                     u1421:
  4079   0007E2  EFDC  F003         	goto	l2400
  4080   0007E6                     u1420:
  4081   0007E6  EF1A  F004         	goto	l1162
  4082   0007EA                     l2408:
  4083   0007EA  C010  FFF6         	movff	vfpfcnvrt@cp,tblptrl
  4084   0007EE  C011  FFF7         	movff	vfpfcnvrt@cp+1,tblptrh
  4085   0007F2                     	if	0	;tblptru may be non-zero
  4086   0007F2                     	endif
  4087   0007F2                     	if	0	;tblptru may be non-zero
  4088   0007F2                     	endif
  4089   0007F2  0008               	tblrd		*
  4090   0007F4  50F5               	movf	tablat,w,c
  4091                           
  4092                           ; Switch size 1, requested type "simple"
  4093                           ; Number of cases is 1, Range of values is 117 to 117
  4094                           ; switch strategies available:
  4095                           ; Name         Instructions Cycles
  4096                           ; simple_byte            4     3 (average)
  4097                           ;	Chosen strategy is simple_byte
  4098   0007F6  0A75               	xorlw	117	; case 117
  4099   0007F8  B4D8               	btfsc	status,2,c
  4100   0007FA  EFA7  F003         	goto	l2390
  4101   0007FE  EF01  F004         	goto	l2410
  4102   000802                     l2410:
  4103                           
  4104                           ;C:\Program Files\Microchip\xc8\v3.00\pic\sources\c99\common\doprnt.c: 1806:         ++*
      +                          fmt;
  4105   000802  500C               	movf	vfpfcnvrt@fmt^0,w,c
  4106   000804  6ED9               	movwf	fsr2l,c
  4107   000806  6ADA               	clrf	fsr2h,c
  4108   000808  2ADE               	incf	postinc2,f,c
  4109   00080A  0E00               	movlw	0
  4110   00080C  22DD               	addwfc	postdec2,f,c
  4111   00080E  EF1A  F004         	goto	l1162
  4112   000812                     l2414:
  4113                           
  4114                           ;C:\Program Files\Microchip\xc8\v3.00\pic\sources\c99\common\doprnt.c: 1811:     fputc((
      +                          int)(*fmt)[0], fp);
  4115   000812  500C               	movf	vfpfcnvrt@fmt^0,w,c
  4116   000814  6ED9               	movwf	fsr2l,c
  4117   000816  6ADA               	clrf	fsr2h,c
  4118   000818  CFDE FFF6          	movff	postinc2,tblptrl
  4119   00081C  CFDD FFF7          	movff	postdec2,tblptrh
  4120   000820                     	if	0	;tblptru may be non-zero
  4121   000820                     	endif
  4122   000820                     	if	0	;tblptru may be non-zero
  4123   000820                     	endif
  4124   000820  0008               	tblrd		*
  4125   000822  50F5               	movf	tablat,w,c
  4126   000824  6E03               	movwf	fputc@c^0,c
  4127   000826  6A04               	clrf	(fputc@c+1)^0,c
  4128   000828  C00B  F005         	movff	vfpfcnvrt@fp,fputc@fp
  4129   00082C  EC67  F008         	call	_fputc	;wreg free
  4130   000830  EF01  F004         	goto	l2410
  4131   000834                     l1162:
  4132   000834  0012               	return		;funcret
  4133   000836                     __end_of_vfpfcnvrt:
  4134                           	callstack 0
  4135                           
  4136 ;; *************** function _fputc *****************
  4137 ;; Defined at:
  4138 ;;		line 8 in file "C:\Program Files\Microchip\xc8\v3.00\pic\sources\c99\common\nf_fputc.c"
  4139 ;; Parameters:    Size  Location     Type
  4140 ;;  c               2    2[COMRAM] int 
  4141 ;;  fp              1    4[COMRAM] PTR struct _IO_FILE
  4142 ;;		 -> sprintf@f(11), 
  4143 ;; Auto vars:     Size  Location     Type
  4144 ;;		None
  4145 ;; Return value:  Size  Location     Type
  4146 ;;                  2    2[COMRAM] int 
  4147 ;; Registers used:
  4148 ;;		wreg, fsr1l, fsr1h, fsr2l, fsr2h, status,2, status,0, cstack
  4149 ;; Tracked objects:
  4150 ;;		On entry : 0/0
  4151 ;;		On exit  : 0/0
  4152 ;;		Unchanged: 0/0
  4153 ;; Data sizes:     COMRAM   BANK0   BANK1   BANK2   BANK3   BANK4   BANK5   BANK6   BANK7   BANK8   BANK9  BANK10  BANK1
      +1  BANK12  BANK13  BANK14  BANK15
  4154 ;;      Params:         3       0       0       0       0       0       0       0       0       0       0       0       
      +0       0       0       0       0
  4155 ;;      Locals:         0       0       0       0       0       0       0       0       0       0       0       0       
      +0       0       0       0       0
  4156 ;;      Temps:          5       0       0       0       0       0       0       0       0       0       0       0       
      +0       0       0       0       0
  4157 ;;      Totals:         8       0       0       0       0       0       0       0       0       0       0       0       
      +0       0       0       0       0
  4158 ;;Total ram usage:        8 bytes
  4159 ;; Hardware stack levels used: 1
  4160 ;; Hardware stack levels required when called: 2
  4161 ;; This function calls:
  4162 ;;		_putch
  4163 ;; This function is called by:
  4164 ;;		_vfpfcnvrt
  4165 ;; This function uses a non-reentrant model
  4166 ;;
  4167                           
  4168                           	psect	text17
  4169   0010CE                     __ptext17:
  4170                           	callstack 0
  4171   0010CE                     _fputc:
  4172                           	callstack 22
  4173   0010CE  5005               	movf	fputc@fp^0,w,c
  4174   0010D0  B4D8               	btfsc	status,2,c
  4175   0010D2  EF6D  F008         	goto	u1281
  4176   0010D6  EF6F  F008         	goto	u1280
  4177   0010DA                     u1281:
  4178   0010DA  EF77  F008         	goto	l2332
  4179   0010DE                     u1280:
  4180   0010DE  5005               	movf	fputc@fp^0,w,c
  4181   0010E0  A4D8               	btfss	status,2,c
  4182   0010E2  EF75  F008         	goto	u1291
  4183   0010E6  EF77  F008         	goto	u1290
  4184   0010EA                     u1291:
  4185   0010EA  EF7C  F008         	goto	l2334
  4186   0010EE                     u1290:
  4187   0010EE                     l2332:
  4188   0010EE  5003               	movf	fputc@c^0,w,c
  4189   0010F0  EC8A  F00C         	call	_putch
  4190   0010F4  EFBB  F008         	goto	l1181
  4191   0010F8                     l2334:
  4192   0010F8  5005               	movf	fputc@fp^0,w,c
  4193   0010FA  6ED9               	movwf	fsr2l,c
  4194   0010FC  6ADA               	clrf	fsr2h,c
  4195   0010FE  0E09               	movlw	9
  4196   001100  26D9               	addwf	fsr2l,f,c
  4197   001102  50DE               	movf	postinc2,w,c
  4198   001104  10DE               	iorwf	postinc2,w,c
  4199   001106  B4D8               	btfsc	status,2,c
  4200   001108  EF88  F008         	goto	u1301
  4201   00110C  EF8A  F008         	goto	u1300
  4202   001110                     u1301:
  4203   001110  EFA3  F008         	goto	l2338
  4204   001114                     u1300:
  4205   001114  5005               	movf	fputc@fp^0,w,c
  4206   001116  6ED9               	movwf	fsr2l,c
  4207   001118  6ADA               	clrf	fsr2h,c
  4208   00111A  0E09               	movlw	9
  4209   00111C  26D9               	addwf	fsr2l,f,c
  4210   00111E  5005               	movf	fputc@fp^0,w,c
  4211   001120  6EE1               	movwf	fsr1l,c
  4212   001122  6AE2               	clrf	fsr1h,c
  4213   001124  0E02               	movlw	2
  4214   001126  26E1               	addwf	fsr1l,f,c
  4215   001128  50DE               	movf	postinc2,w,c
  4216   00112A  5CE6               	subwf	postinc1,w,c
  4217   00112C  50E6               	movf	postinc1,w,c
  4218   00112E  0A80               	xorlw	128
  4219   001130  6E0A               	movwf	(??_fputc+4)^0,c
  4220   001132  50DE               	movf	postinc2,w,c
  4221   001134  0A80               	xorlw	128
  4222   001136  580A               	subwfb	(??_fputc+4)^0,w,c
  4223   001138  B0D8               	btfsc	status,0,c
  4224   00113A  EFA1  F008         	goto	u1311
  4225   00113E  EFA3  F008         	goto	u1310
  4226   001142                     u1311:
  4227   001142  EFBB  F008         	goto	l1181
  4228   001146                     u1310:
  4229   001146                     l2338:
  4230   001146  5005               	movf	fputc@fp^0,w,c
  4231   001148  6ED9               	movwf	fsr2l,c
  4232   00114A  6ADA               	clrf	fsr2h,c
  4233   00114C  0E02               	movlw	2
  4234   00114E  26D9               	addwf	fsr2l,f,c
  4235   001150  50DF               	movf	indf2,w,c
  4236   001152  6E06               	movwf	??_fputc^0,c
  4237   001154  5005               	movf	fputc@fp^0,w,c
  4238   001156  6ED9               	movwf	fsr2l,c
  4239   001158  6ADA               	clrf	fsr2h,c
  4240   00115A  50DF               	movf	indf2,w,c
  4241   00115C  2406               	addwf	??_fputc^0,w,c
  4242   00115E  6ED9               	movwf	fsr2l,c
  4243   001160  6ADA               	clrf	fsr2h,c
  4244   001162  C003  FFDF         	movff	fputc@c,indf2
  4245   001166  5005               	movf	fputc@fp^0,w,c
  4246   001168  6ED9               	movwf	fsr2l,c
  4247   00116A  6ADA               	clrf	fsr2h,c
  4248   00116C  0E02               	movlw	2
  4249   00116E  26D9               	addwf	fsr2l,f,c
  4250   001170  2ADE               	incf	postinc2,f,c
  4251   001172  0E00               	movlw	0
  4252   001174  22DD               	addwfc	postdec2,f,c
  4253   001176                     l1181:
  4254   001176  0012               	return		;funcret
  4255   001178                     __end_of_fputc:
  4256                           	callstack 0
  4257                           
  4258 ;; *************** function _putch *****************
  4259 ;; Defined at:
  4260 ;;		line 7 in file "C:\Program Files\Microchip\xc8\v3.00\pic\sources\c99\common\putch.c"
  4261 ;; Parameters:    Size  Location     Type
  4262 ;;  c               1    wreg     unsigned char 
  4263 ;; Auto vars:     Size  Location     Type
  4264 ;;  c               1    0[COMRAM] unsigned char 
  4265 ;; Return value:  Size  Location     Type
  4266 ;;                  1    wreg      void 
  4267 ;; Registers used:
  4268 ;;		wreg
  4269 ;; Tracked objects:
  4270 ;;		On entry : 0/0
  4271 ;;		On exit  : 0/0
  4272 ;;		Unchanged: 0/0
  4273 ;; Data sizes:     COMRAM   BANK0   BANK1   BANK2   BANK3   BANK4   BANK5   BANK6   BANK7   BANK8   BANK9  BANK10  BANK1
      +1  BANK12  BANK13  BANK14  BANK15
  4274 ;;      Params:         0       0       0       0       0       0       0       0       0       0       0       0       
      +0       0       0       0       0
  4275 ;;      Locals:         0       0       0       0       0       0       0       0       0       0       0       0       
      +0       0       0       0       0
  4276 ;;      Temps:          0       0       0       0       0       0       0       0       0       0       0       0       
      +0       0       0       0       0
  4277 ;;      Totals:         0       0       0       0       0       0       0       0       0       0       0       0       
      +0       0       0       0       0
  4278 ;;Total ram usage:        0 bytes
  4279 ;; Hardware stack levels used: 1
  4280 ;; Hardware stack levels required when called: 1
  4281 ;; This function calls:
  4282 ;;		Nothing
  4283 ;; This function is called by:
  4284 ;;		_fputc
  4285 ;; This function uses a non-reentrant model
  4286 ;;
  4287                           
  4288                           	psect	text18
  4289   001914                     __ptext18:
  4290                           	callstack 0
  4291   001914                     _putch:
  4292                           	callstack 22
  4293   001914  0012               	return		;funcret
  4294   001916                     __end_of_putch:
  4295                           	callstack 0
  4296                           
  4297 ;; *************** function ___lwmod *****************
  4298 ;; Defined at:
  4299 ;;		line 7 in file "C:\Program Files\Microchip\xc8\v3.00\pic\sources\c99\common\lwmod.c"
  4300 ;; Parameters:    Size  Location     Type
  4301 ;;  dividend        2    2[COMRAM] unsigned int 
  4302 ;;  divisor         2    4[COMRAM] unsigned int 
  4303 ;; Auto vars:     Size  Location     Type
  4304 ;;  counter         1    6[COMRAM] unsigned char 
  4305 ;; Return value:  Size  Location     Type
  4306 ;;                  2    2[COMRAM] unsigned int 
  4307 ;; Registers used:
  4308 ;;		wreg, status,2, status,0
  4309 ;; Tracked objects:
  4310 ;;		On entry : 0/0
  4311 ;;		On exit  : 0/0
  4312 ;;		Unchanged: 0/0
  4313 ;; Data sizes:     COMRAM   BANK0   BANK1   BANK2   BANK3   BANK4   BANK5   BANK6   BANK7   BANK8   BANK9  BANK10  BANK1
      +1  BANK12  BANK13  BANK14  BANK15
  4314 ;;      Params:         4       0       0       0       0       0       0       0       0       0       0       0       
      +0       0       0       0       0
  4315 ;;      Locals:         1       0       0       0       0       0       0       0       0       0       0       0       
      +0       0       0       0       0
  4316 ;;      Temps:          0       0       0       0       0       0       0       0       0       0       0       0       
      +0       0       0       0       0
  4317 ;;      Totals:         5       0       0       0       0       0       0       0       0       0       0       0       
      +0       0       0       0       0
  4318 ;;Total ram usage:        5 bytes
  4319 ;; Hardware stack levels used: 1
  4320 ;; Hardware stack levels required when called: 1
  4321 ;; This function calls:
  4322 ;;		Nothing
  4323 ;; This function is called by:
  4324 ;;		_welcome_splash
  4325 ;;		_vfpfcnvrt
  4326 ;; This function uses a non-reentrant model
  4327 ;;
  4328                           
  4329                           	psect	text19
  4330   001542                     __ptext19:
  4331                           	callstack 0
  4332   001542                     ___lwmod:
  4333                           	callstack 28
  4334   001542  5005               	movf	___lwmod@divisor^0,w,c
  4335   001544  1006               	iorwf	(___lwmod@divisor+1)^0,w,c
  4336   001546  B4D8               	btfsc	status,2,c
  4337   001548  EFA8  F00A         	goto	u1251
  4338   00154C  EFAA  F00A         	goto	u1250
  4339   001550                     u1251:
  4340   001550  EFCE  F00A         	goto	l939
  4341   001554                     u1250:
  4342   001554  0E01               	movlw	1
  4343   001556  6E07               	movwf	___lwmod@counter^0,c
  4344   001558  EFB2  F00A         	goto	l2318
  4345   00155C                     l2316:
  4346   00155C  90D8               	bcf	status,0,c
  4347   00155E  3605               	rlcf	___lwmod@divisor^0,f,c
  4348   001560  3606               	rlcf	(___lwmod@divisor+1)^0,f,c
  4349   001562  2A07               	incf	___lwmod@counter^0,f,c
  4350   001564                     l2318:
  4351   001564  AE06               	btfss	(___lwmod@divisor+1)^0,7,c
  4352   001566  EFB7  F00A         	goto	u1261
  4353   00156A  EFB9  F00A         	goto	u1260
  4354   00156E                     u1261:
  4355   00156E  EFAE  F00A         	goto	l2316
  4356   001572                     u1260:
  4357   001572                     l2320:
  4358   001572  5005               	movf	___lwmod@divisor^0,w,c
  4359   001574  5C03               	subwf	___lwmod@dividend^0,w,c
  4360   001576  5006               	movf	(___lwmod@divisor+1)^0,w,c
  4361   001578  5804               	subwfb	(___lwmod@dividend+1)^0,w,c
  4362   00157A  A0D8               	btfss	status,0,c
  4363   00157C  EFC2  F00A         	goto	u1271
  4364   001580  EFC4  F00A         	goto	u1270
  4365   001584                     u1271:
  4366   001584  EFC8  F00A         	goto	l2324
  4367   001588                     u1270:
  4368   001588  5005               	movf	___lwmod@divisor^0,w,c
  4369   00158A  5E03               	subwf	___lwmod@dividend^0,f,c
  4370   00158C  5006               	movf	(___lwmod@divisor+1)^0,w,c
  4371   00158E  5A04               	subwfb	(___lwmod@dividend+1)^0,f,c
  4372   001590                     l2324:
  4373   001590  90D8               	bcf	status,0,c
  4374   001592  3206               	rrcf	(___lwmod@divisor+1)^0,f,c
  4375   001594  3205               	rrcf	___lwmod@divisor^0,f,c
  4376   001596  2E07               	decfsz	___lwmod@counter^0,f,c
  4377   001598  EFB9  F00A         	goto	l2320
  4378   00159C                     l939:
  4379   00159C  C003  F003         	movff	___lwmod@dividend,?___lwmod
  4380   0015A0  C004  F004         	movff	___lwmod@dividend+1,?___lwmod+1
  4381   0015A4  0012               	return		;funcret
  4382   0015A6                     __end_of___lwmod:
  4383                           	callstack 0
  4384                           
  4385 ;; *************** function ___lwdiv *****************
  4386 ;; Defined at:
  4387 ;;		line 7 in file "C:\Program Files\Microchip\xc8\v3.00\pic\sources\c99\common\lwdiv.c"
  4388 ;; Parameters:    Size  Location     Type
  4389 ;;  dividend        2    2[COMRAM] unsigned int 
  4390 ;;  divisor         2    4[COMRAM] unsigned int 
  4391 ;; Auto vars:     Size  Location     Type
  4392 ;;  quotient        2    6[COMRAM] unsigned int 
  4393 ;;  counter         1    8[COMRAM] unsigned char 
  4394 ;; Return value:  Size  Location     Type
  4395 ;;                  2    2[COMRAM] unsigned int 
  4396 ;; Registers used:
  4397 ;;		wreg, status,2, status,0
  4398 ;; Tracked objects:
  4399 ;;		On entry : 0/0
  4400 ;;		On exit  : 0/0
  4401 ;;		Unchanged: 0/0
  4402 ;; Data sizes:     COMRAM   BANK0   BANK1   BANK2   BANK3   BANK4   BANK5   BANK6   BANK7   BANK8   BANK9  BANK10  BANK1
      +1  BANK12  BANK13  BANK14  BANK15
  4403 ;;      Params:         4       0       0       0       0       0       0       0       0       0       0       0       
      +0       0       0       0       0
  4404 ;;      Locals:         3       0       0       0       0       0       0       0       0       0       0       0       
      +0       0       0       0       0
  4405 ;;      Temps:          0       0       0       0       0       0       0       0       0       0       0       0       
      +0       0       0       0       0
  4406 ;;      Totals:         7       0       0       0       0       0       0       0       0       0       0       0       
      +0       0       0       0       0
  4407 ;;Total ram usage:        7 bytes
  4408 ;; Hardware stack levels used: 1
  4409 ;; Hardware stack levels required when called: 1
  4410 ;; This function calls:
  4411 ;;		Nothing
  4412 ;; This function is called by:
  4413 ;;		_welcome_splash
  4414 ;;		_vfpfcnvrt
  4415 ;; This function uses a non-reentrant model
  4416 ;;
  4417                           
  4418                           	psect	text20
  4419   001400                     __ptext20:
  4420                           	callstack 0
  4421   001400                     ___lwdiv:
  4422                           	callstack 28
  4423   001400  0E00               	movlw	0
  4424   001402  6E08               	movwf	(___lwdiv@quotient+1)^0,c
  4425   001404  0E00               	movlw	0
  4426   001406  6E07               	movwf	___lwdiv@quotient^0,c
  4427   001408  5005               	movf	___lwdiv@divisor^0,w,c
  4428   00140A  1006               	iorwf	(___lwdiv@divisor+1)^0,w,c
  4429   00140C  B4D8               	btfsc	status,2,c
  4430   00140E  EF0B  F00A         	goto	u1221
  4431   001412  EF0D  F00A         	goto	u1220
  4432   001416                     u1221:
  4433   001416  EF35  F00A         	goto	l929
  4434   00141A                     u1220:
  4435   00141A  0E01               	movlw	1
  4436   00141C  6E09               	movwf	___lwdiv@counter^0,c
  4437   00141E  EF15  F00A         	goto	l2298
  4438   001422                     l2296:
  4439   001422  90D8               	bcf	status,0,c
  4440   001424  3605               	rlcf	___lwdiv@divisor^0,f,c
  4441   001426  3606               	rlcf	(___lwdiv@divisor+1)^0,f,c
  4442   001428  2A09               	incf	___lwdiv@counter^0,f,c
  4443   00142A                     l2298:
  4444   00142A  AE06               	btfss	(___lwdiv@divisor+1)^0,7,c
  4445   00142C  EF1A  F00A         	goto	u1231
  4446   001430  EF1C  F00A         	goto	u1230
  4447   001434                     u1231:
  4448   001434  EF11  F00A         	goto	l2296
  4449   001438                     u1230:
  4450   001438                     l2300:
  4451   001438  90D8               	bcf	status,0,c
  4452   00143A  3607               	rlcf	___lwdiv@quotient^0,f,c
  4453   00143C  3608               	rlcf	(___lwdiv@quotient+1)^0,f,c
  4454   00143E  5005               	movf	___lwdiv@divisor^0,w,c
  4455   001440  5C03               	subwf	___lwdiv@dividend^0,w,c
  4456   001442  5006               	movf	(___lwdiv@divisor+1)^0,w,c
  4457   001444  5804               	subwfb	(___lwdiv@dividend+1)^0,w,c
  4458   001446  A0D8               	btfss	status,0,c
  4459   001448  EF28  F00A         	goto	u1241
  4460   00144C  EF2A  F00A         	goto	u1240
  4461   001450                     u1241:
  4462   001450  EF2F  F00A         	goto	l2308
  4463   001454                     u1240:
  4464   001454  5005               	movf	___lwdiv@divisor^0,w,c
  4465   001456  5E03               	subwf	___lwdiv@dividend^0,f,c
  4466   001458  5006               	movf	(___lwdiv@divisor+1)^0,w,c
  4467   00145A  5A04               	subwfb	(___lwdiv@dividend+1)^0,f,c
  4468   00145C  8007               	bsf	___lwdiv@quotient^0,0,c
  4469   00145E                     l2308:
  4470   00145E  90D8               	bcf	status,0,c
  4471   001460  3206               	rrcf	(___lwdiv@divisor+1)^0,f,c
  4472   001462  3205               	rrcf	___lwdiv@divisor^0,f,c
  4473   001464  2E09               	decfsz	___lwdiv@counter^0,f,c
  4474   001466  EF1C  F00A         	goto	l2300
  4475   00146A                     l929:
  4476   00146A  C007  F003         	movff	___lwdiv@quotient,?___lwdiv
  4477   00146E  C008  F004         	movff	___lwdiv@quotient+1,?___lwdiv+1
  4478   001472  0012               	return		;funcret
  4479   001474                     __end_of___lwdiv:
  4480                           	callstack 0
  4481                           
  4482 ;; *************** function _hex_char_to_value *****************
  4483 ;; Defined at:
  4484 ;;		line 425 in file "OBCII_PIC18F46K22.c"
  4485 ;; Parameters:    Size  Location     Type
  4486 ;;  c               1    wreg     unsigned char 
  4487 ;; Auto vars:     Size  Location     Type
  4488 ;;  c               1    2[COMRAM] unsigned char 
  4489 ;; Return value:  Size  Location     Type
  4490 ;;                  1    wreg      unsigned char 
  4491 ;; Registers used:
  4492 ;;		wreg, status,2, status,0
  4493 ;; Tracked objects:
  4494 ;;		On entry : 0/0
  4495 ;;		On exit  : 0/0
  4496 ;;		Unchanged: 0/0
  4497 ;; Data sizes:     COMRAM   BANK0   BANK1   BANK2   BANK3   BANK4   BANK5   BANK6   BANK7   BANK8   BANK9  BANK10  BANK1
      +1  BANK12  BANK13  BANK14  BANK15
  4498 ;;      Params:         0       0       0       0       0       0       0       0       0       0       0       0       
      +0       0       0       0       0
  4499 ;;      Locals:         1       0       0       0       0       0       0       0       0       0       0       0       
      +0       0       0       0       0
  4500 ;;      Temps:          0       0       0       0       0       0       0       0       0       0       0       0       
      +0       0       0       0       0
  4501 ;;      Totals:         1       0       0       0       0       0       0       0       0       0       0       0       
      +0       0       0       0       0
  4502 ;;Total ram usage:        1 bytes
  4503 ;; Hardware stack levels used: 1
  4504 ;; Hardware stack levels required when called: 1
  4505 ;; This function calls:
  4506 ;;		Nothing
  4507 ;; This function is called by:
  4508 ;;		_print_RPM
  4509 ;;		_print_AI_Temp
  4510 ;; This function uses a non-reentrant model
  4511 ;;
  4512                           
  4513                           	psect	text21
  4514   00128C                     __ptext21:
  4515                           	callstack 0
  4516   00128C                     _hex_char_to_value:
  4517                           	callstack 26
  4518                           
  4519                           ;incstack = 0
  4520                           ;hex_char_to_value@c stored from wreg
  4521   00128C  6E03               	movwf	hex_char_to_value@c^0,c
  4522   00128E                     
  4523                           ;OBCII_PIC18F46K22.c: 426:     if (c >= '0' && c <= '9') return c - '0';
  4524   00128E  0E2F               	movlw	47
  4525   001290  6403               	cpfsgt	hex_char_to_value@c^0,c
  4526   001292  EF4D  F009         	goto	u1531
  4527   001296  EF4F  F009         	goto	u1530
  4528   00129A                     u1531:
  4529   00129A  EF5B  F009         	goto	l2490
  4530   00129E                     u1530:
  4531   00129E  0E3A               	movlw	58
  4532   0012A0  6003               	cpfslt	hex_char_to_value@c^0,c
  4533   0012A2  EF55  F009         	goto	u1541
  4534   0012A6  EF57  F009         	goto	u1540
  4535   0012AA                     u1541:
  4536   0012AA  EF5B  F009         	goto	l2490
  4537   0012AE                     u1540:
  4538   0012AE  5003               	movf	hex_char_to_value@c^0,w,c
  4539   0012B0  0FD0               	addlw	208
  4540   0012B2  EF84  F009         	goto	l244
  4541   0012B6                     l2490:
  4542                           
  4543                           ;OBCII_PIC18F46K22.c: 427:     if (c >= 'A' && c <= 'F') return c - 'A' + 10;
  4544   0012B6  0E40               	movlw	64
  4545   0012B8  6403               	cpfsgt	hex_char_to_value@c^0,c
  4546   0012BA  EF61  F009         	goto	u1551
  4547   0012BE  EF63  F009         	goto	u1550
  4548   0012C2                     u1551:
  4549   0012C2  EF6F  F009         	goto	l2498
  4550   0012C6                     u1550:
  4551   0012C6  0E47               	movlw	71
  4552   0012C8  6003               	cpfslt	hex_char_to_value@c^0,c
  4553   0012CA  EF69  F009         	goto	u1561
  4554   0012CE  EF6B  F009         	goto	u1560
  4555   0012D2                     u1561:
  4556   0012D2  EF6F  F009         	goto	l2498
  4557   0012D6                     u1560:
  4558   0012D6  5003               	movf	hex_char_to_value@c^0,w,c
  4559   0012D8  0FC9               	addlw	201
  4560   0012DA  EF84  F009         	goto	l244
  4561   0012DE                     l2498:
  4562                           
  4563                           ;OBCII_PIC18F46K22.c: 428:     if (c >= 'a' && c <= 'f') return c - 'a' + 10;
  4564   0012DE  0E60               	movlw	96
  4565   0012E0  6403               	cpfsgt	hex_char_to_value@c^0,c
  4566   0012E2  EF75  F009         	goto	u1571
  4567   0012E6  EF77  F009         	goto	u1570
  4568   0012EA                     u1571:
  4569   0012EA  EF83  F009         	goto	l2506
  4570   0012EE                     u1570:
  4571   0012EE  0E67               	movlw	103
  4572   0012F0  6003               	cpfslt	hex_char_to_value@c^0,c
  4573   0012F2  EF7D  F009         	goto	u1581
  4574   0012F6  EF7F  F009         	goto	u1580
  4575   0012FA                     u1581:
  4576   0012FA  EF83  F009         	goto	l2506
  4577   0012FE                     u1580:
  4578   0012FE  5003               	movf	hex_char_to_value@c^0,w,c
  4579   001300  0FA9               	addlw	169
  4580   001302  EF84  F009         	goto	l244
  4581   001306                     l2506:
  4582                           
  4583                           ;OBCII_PIC18F46K22.c: 429:     return 0;
  4584   001306  0E00               	movlw	0
  4585   001308                     l244:
  4586   001308  0012               	return		;funcret
  4587   00130A                     __end_of_hex_char_to_value:
  4588                           	callstack 0
  4589                           
  4590 ;; *************** function _display_system_info *****************
  4591 ;; Defined at:
  4592 ;;		line 608 in file "OBCII_PIC18F46K22.c"
  4593 ;; Parameters:    Size  Location     Type
  4594 ;;		None
  4595 ;; Auto vars:     Size  Location     Type
  4596 ;;		None
  4597 ;; Return value:  Size  Location     Type
  4598 ;;                  1    wreg      void 
  4599 ;; Registers used:
  4600 ;;		wreg, fsr0l, fsr0h, status,2, status,0, tblptrl, tblptrh, tblptru, cstack
  4601 ;; Tracked objects:
  4602 ;;		On entry : 0/0
  4603 ;;		On exit  : 0/0
  4604 ;;		Unchanged: 0/0
  4605 ;; Data sizes:     COMRAM   BANK0   BANK1   BANK2   BANK3   BANK4   BANK5   BANK6   BANK7   BANK8   BANK9  BANK10  BANK1
      +1  BANK12  BANK13  BANK14  BANK15
  4606 ;;      Params:         0       0       0       0       0       0       0       0       0       0       0       0       
      +0       0       0       0       0
  4607 ;;      Locals:         0       0       0       0       0       0       0       0       0       0       0       0       
      +0       0       0       0       0
  4608 ;;      Temps:          0       0       0       0       0       0       0       0       0       0       0       0       
      +0       0       0       0       0
  4609 ;;      Totals:         0       0       0       0       0       0       0       0       0       0       0       0       
      +0       0       0       0       0
  4610 ;;Total ram usage:        0 bytes
  4611 ;; Hardware stack levels used: 1
  4612 ;; Hardware stack levels required when called: 6
  4613 ;; This function calls:
  4614 ;;		_LCD_cursor_set
  4615 ;;		_LCD_write_string
  4616 ;;		_print_ELMVer
  4617 ;;		_print_SAEVer
  4618 ;; This function is called by:
  4619 ;;		_main_menu
  4620 ;; This function uses a non-reentrant model
  4621 ;;
  4622                           
  4623                           	psect	text22
  4624   001756                     __ptext22:
  4625                           	callstack 0
  4626   001756                     _display_system_info:
  4627                           	callstack 23
  4628   001756                     
  4629                           ;OBCII_PIC18F46K22.c: 609:     LCD_cursor_set(1,4);
  4630   001756  0E04               	movlw	4
  4631   001758  6E06               	movwf	LCD_cursor_set@column^0,c
  4632   00175A  0E01               	movlw	1
  4633   00175C  ECD3  F00A         	call	_LCD_cursor_set
  4634   001760                     
  4635                           ;OBCII_PIC18F46K22.c: 610:     LCD_write_string("            ");
  4636   001760  0E90               	movlw	low (STR_31+1)
  4637   001762  6E06               	movwf	LCD_write_string@string^0,c
  4638   001764  0EFF               	movlw	high (STR_31+1)
  4639   001766  6E07               	movwf	(LCD_write_string@string+1)^0,c
  4640   001768  ECC3  F009         	call	_LCD_write_string	;wreg free
  4641   00176C                     
  4642                           ;OBCII_PIC18F46K22.c: 611:     LCD_cursor_set(2,5);
  4643   00176C  0E05               	movlw	5
  4644   00176E  6E06               	movwf	LCD_cursor_set@column^0,c
  4645   001770  0E02               	movlw	2
  4646   001772  ECD3  F00A         	call	_LCD_cursor_set
  4647                           
  4648                           ;OBCII_PIC18F46K22.c: 612:     LCD_write_string("             ");
  4649   001776  0E8F               	movlw	low STR_31
  4650   001778  6E06               	movwf	LCD_write_string@string^0,c
  4651   00177A  0EFF               	movlw	high STR_31
  4652   00177C  6E07               	movwf	(LCD_write_string@string+1)^0,c
  4653   00177E  ECC3  F009         	call	_LCD_write_string	;wreg free
  4654                           
  4655                           ;OBCII_PIC18F46K22.c: 613:     print_ELMVer();
  4656   001782  EC01  F009         	call	_print_ELMVer	;wreg free
  4657                           
  4658                           ;OBCII_PIC18F46K22.c: 614:     print_SAEVer();
  4659   001786  ECBC  F008         	call	_print_SAEVer	;wreg free
  4660   00178A  0012               	return		;funcret
  4661   00178C                     __end_of_display_system_info:
  4662                           	callstack 0
  4663                           
  4664 ;; *************** function _print_SAEVer *****************
  4665 ;; Defined at:
  4666 ;;		line 581 in file "OBCII_PIC18F46K22.c"
  4667 ;; Parameters:    Size  Location     Type
  4668 ;;		None
  4669 ;; Auto vars:     Size  Location     Type
  4670 ;;		None
  4671 ;; Return value:  Size  Location     Type
  4672 ;;                  1    wreg      void 
  4673 ;; Registers used:
  4674 ;;		wreg, fsr0l, fsr0h, status,2, status,0, tblptrl, tblptrh, tblptru, cstack
  4675 ;; Tracked objects:
  4676 ;;		On entry : 0/0
  4677 ;;		On exit  : 0/0
  4678 ;;		Unchanged: 0/0
  4679 ;; Data sizes:     COMRAM   BANK0   BANK1   BANK2   BANK3   BANK4   BANK5   BANK6   BANK7   BANK8   BANK9  BANK10  BANK1
      +1  BANK12  BANK13  BANK14  BANK15
  4680 ;;      Params:         0       0       0       0       0       0       0       0       0       0       0       0       
      +0       0       0       0       0
  4681 ;;      Locals:         0       0       0       0       0       0       0       0       0       0       0       0       
      +0       0       0       0       0
  4682 ;;      Temps:          1       0       0       0       0       0       0       0       0       0       0       0       
      +0       0       0       0       0
  4683 ;;      Totals:         1       0       0       0       0       0       0       0       0       0       0       0       
      +0       0       0       0       0
  4684 ;;Total ram usage:        1 bytes
  4685 ;; Hardware stack levels used: 1
  4686 ;; Hardware stack levels required when called: 5
  4687 ;; This function calls:
  4688 ;;		_LCD_clear
  4689 ;;		_LCD_cursor_set
  4690 ;;		_LCD_write_string
  4691 ;;		_UART1_SendString
  4692 ;;		_clear_parsing_notif
  4693 ;;		_display_mm
  4694 ;;		_parsing_notif
  4695 ;; This function is called by:
  4696 ;;		_display_system_info
  4697 ;; This function uses a non-reentrant model
  4698 ;;
  4699                           
  4700                           	psect	text23
  4701   001178                     __ptext23:
  4702                           	callstack 0
  4703   001178                     _print_SAEVer:
  4704                           	callstack 23
  4705   001178                     
  4706                           ;OBCII_PIC18F46K22.c: 582:     UART1_SendString("0108\r");
  4707   001178  0EBC               	movlw	low STR_28
  4708   00117A  6E04               	movwf	UART1_SendString@string^0,c
  4709   00117C  0EFF               	movlw	high STR_28
  4710   00117E  6E05               	movwf	(UART1_SendString@string+1)^0,c
  4711   001180  EC03  F00B         	call	_UART1_SendString	;wreg free
  4712                           
  4713                           ;OBCII_PIC18F46K22.c: 584:     while(!message_complete) {
  4714   001184  EFE4  F008         	goto	l2712
  4715   001188                     l287:
  4716                           
  4717                           ;OBCII_PIC18F46K22.c: 586:         if (PORTCbits.RC5 == 0) {
  4718   001188  BA82               	btfsc	130,5,c	;volatile
  4719   00118A  EFC9  F008         	goto	u1761
  4720   00118E  EFCB  F008         	goto	u1760
  4721   001192                     u1761:
  4722   001192  EFE2  F008         	goto	l2710
  4723   001196                     u1760:
  4724   001196                     
  4725                           ;OBCII_PIC18F46K22.c: 587:             _delay((unsigned long)((20)*(16000000/4000.0)));
  4726   001196  0E68               	movlw	104
  4727   001198  6E0B               	movwf	??_print_SAEVer^0,c
  4728   00119A  0EE4               	movlw	228
  4729   00119C                     u2587:
  4730   00119C  2EE8               	decfsz	wreg,f,c
  4731   00119E  D7FE               	bra	u2587
  4732   0011A0  2E0B               	decfsz	??_print_SAEVer^0,f,c
  4733   0011A2  D7FC               	bra	u2587
  4734   0011A4  D000               	nop2	
  4735   0011A6                     
  4736                           ;OBCII_PIC18F46K22.c: 588:             if (PORTCbits.RC5 == 0) {
  4737   0011A6  BA82               	btfsc	130,5,c	;volatile
  4738   0011A8  EFD8  F008         	goto	u1771
  4739   0011AC  EFDA  F008         	goto	u1770
  4740   0011B0                     u1771:
  4741   0011B0  EFE2  F008         	goto	l2710
  4742   0011B4                     u1770:
  4743   0011B4                     
  4744                           ;OBCII_PIC18F46K22.c: 589:                 LCD_clear();
  4745   0011B4  EC32  F00C         	call	_LCD_clear	;wreg free
  4746   0011B8                     
  4747                           ;OBCII_PIC18F46K22.c: 590:                 display_mm();
  4748   0011B8  ECE1  F00B         	call	_display_mm	;wreg free
  4749   0011BC                     
  4750                           ;OBCII_PIC18F46K22.c: 591:                 menu_sel = -1;
  4751   0011BC  684F               	setf	_menu_sel^0,c
  4752   0011BE  6850               	setf	(_menu_sel+1)^0,c
  4753                           
  4754                           ;OBCII_PIC18F46K22.c: 592:                 break;
  4755   0011C0  EFEC  F008         	goto	l2714
  4756   0011C4                     l2710:
  4757                           
  4758                           ;OBCII_PIC18F46K22.c: 595:         parsing_notif();
  4759   0011C4  EC40  F00C         	call	_parsing_notif	;wreg free
  4760   0011C8                     l2712:
  4761                           
  4762                           ;OBCII_PIC18F46K22.c: 584:     while(!message_complete) {
  4763   0011C8  504C               	movf	_message_complete^0,w,c	;volatile
  4764   0011CA  B4D8               	btfsc	status,2,c
  4765   0011CC  EFEA  F008         	goto	u1781
  4766   0011D0  EFEC  F008         	goto	u1780
  4767   0011D4                     u1781:
  4768   0011D4  EFC4  F008         	goto	l287
  4769   0011D8                     u1780:
  4770   0011D8                     l2714:
  4771                           
  4772                           ;OBCII_PIC18F46K22.c: 597:     clear_parsing_notif();
  4773   0011D8  EC4C  F00C         	call	_clear_parsing_notif	;wreg free
  4774   0011DC                     
  4775                           ;OBCII_PIC18F46K22.c: 599:     LCD_cursor_set(2,1);
  4776   0011DC  0E01               	movlw	1
  4777   0011DE  6E06               	movwf	LCD_cursor_set@column^0,c
  4778   0011E0  0E02               	movlw	2
  4779   0011E2  ECD3  F00A         	call	_LCD_cursor_set
  4780   0011E6                     
  4781                           ;OBCII_PIC18F46K22.c: 600:     LCD_write_string("SAE:");
  4782   0011E6  0EDF               	movlw	low STR_29
  4783   0011E8  6E06               	movwf	LCD_write_string@string^0,c
  4784   0011EA  0EFF               	movlw	high STR_29
  4785   0011EC  6E07               	movwf	(LCD_write_string@string+1)^0,c
  4786   0011EE  ECC3  F009         	call	_LCD_write_string	;wreg free
  4787   0011F2                     
  4788                           ;OBCII_PIC18F46K22.c: 601:     LCD_write_string(buffer);
  4789   0011F2  0E80               	movlw	low _buffer
  4790   0011F4  6E06               	movwf	LCD_write_string@string^0,c
  4791   0011F6  6A07               	clrf	(LCD_write_string@string+1)^0,c
  4792   0011F8  ECC3  F009         	call	_LCD_write_string	;wreg free
  4793   0011FC                     
  4794                           ;OBCII_PIC18F46K22.c: 604:     buffer_count = 0;
  4795   0011FC  6A4E               	clrf	_buffer_count^0,c
  4796   0011FE                     
  4797                           ;OBCII_PIC18F46K22.c: 605:     message_complete = 0;
  4798   0011FE  6A4C               	clrf	_message_complete^0,c	;volatile
  4799   001200  0012               	return		;funcret
  4800   001202                     __end_of_print_SAEVer:
  4801                           	callstack 0
  4802                           
  4803 ;; *************** function _print_ELMVer *****************
  4804 ;; Defined at:
  4805 ;;		line 553 in file "OBCII_PIC18F46K22.c"
  4806 ;; Parameters:    Size  Location     Type
  4807 ;;		None
  4808 ;; Auto vars:     Size  Location     Type
  4809 ;;		None
  4810 ;; Return value:  Size  Location     Type
  4811 ;;                  1    wreg      void 
  4812 ;; Registers used:
  4813 ;;		wreg, fsr0l, fsr0h, status,2, status,0, tblptrl, tblptrh, tblptru, cstack
  4814 ;; Tracked objects:
  4815 ;;		On entry : 0/0
  4816 ;;		On exit  : 0/0
  4817 ;;		Unchanged: 0/0
  4818 ;; Data sizes:     COMRAM   BANK0   BANK1   BANK2   BANK3   BANK4   BANK5   BANK6   BANK7   BANK8   BANK9  BANK10  BANK1
      +1  BANK12  BANK13  BANK14  BANK15
  4819 ;;      Params:         0       0       0       0       0       0       0       0       0       0       0       0       
      +0       0       0       0       0
  4820 ;;      Locals:         0       0       0       0       0       0       0       0       0       0       0       0       
      +0       0       0       0       0
  4821 ;;      Temps:          1       0       0       0       0       0       0       0       0       0       0       0       
      +0       0       0       0       0
  4822 ;;      Totals:         1       0       0       0       0       0       0       0       0       0       0       0       
      +0       0       0       0       0
  4823 ;;Total ram usage:        1 bytes
  4824 ;; Hardware stack levels used: 1
  4825 ;; Hardware stack levels required when called: 5
  4826 ;; This function calls:
  4827 ;;		_LCD_clear
  4828 ;;		_LCD_cursor_set
  4829 ;;		_LCD_write_string
  4830 ;;		_UART1_SendString
  4831 ;;		_clear_parsing_notif
  4832 ;;		_display_mm
  4833 ;;		_parsing_notif
  4834 ;; This function is called by:
  4835 ;;		_display_system_info
  4836 ;; This function uses a non-reentrant model
  4837 ;;
  4838                           
  4839                           	psect	text24
  4840   001202                     __ptext24:
  4841                           	callstack 0
  4842   001202                     _print_ELMVer:
  4843                           	callstack 23
  4844   001202                     
  4845                           ;OBCII_PIC18F46K22.c: 555:     UART1_SendString("ATI\r");
  4846   001202  0EDA               	movlw	low STR_4
  4847   001204  6E04               	movwf	UART1_SendString@string^0,c
  4848   001206  0EFF               	movlw	high STR_4
  4849   001208  6E05               	movwf	(UART1_SendString@string+1)^0,c
  4850   00120A  EC03  F00B         	call	_UART1_SendString	;wreg free
  4851                           
  4852                           ;OBCII_PIC18F46K22.c: 557:     while(!message_complete) {
  4853   00120E  EF29  F009         	goto	l2684
  4854   001212                     l279:
  4855                           
  4856                           ;OBCII_PIC18F46K22.c: 559:         if (PORTCbits.RC5 == 0) {
  4857   001212  BA82               	btfsc	130,5,c	;volatile
  4858   001214  EF0E  F009         	goto	u1731
  4859   001218  EF10  F009         	goto	u1730
  4860   00121C                     u1731:
  4861   00121C  EF27  F009         	goto	l2682
  4862   001220                     u1730:
  4863   001220                     
  4864                           ;OBCII_PIC18F46K22.c: 560:             _delay((unsigned long)((20)*(16000000/4000.0)));
  4865   001220  0E68               	movlw	104
  4866   001222  6E0B               	movwf	??_print_ELMVer^0,c
  4867   001224  0EE4               	movlw	228
  4868   001226                     u2597:
  4869   001226  2EE8               	decfsz	wreg,f,c
  4870   001228  D7FE               	bra	u2597
  4871   00122A  2E0B               	decfsz	??_print_ELMVer^0,f,c
  4872   00122C  D7FC               	bra	u2597
  4873   00122E  D000               	nop2	
  4874   001230                     
  4875                           ;OBCII_PIC18F46K22.c: 561:             if (PORTCbits.RC5 == 0) {
  4876   001230  BA82               	btfsc	130,5,c	;volatile
  4877   001232  EF1D  F009         	goto	u1741
  4878   001236  EF1F  F009         	goto	u1740
  4879   00123A                     u1741:
  4880   00123A  EF27  F009         	goto	l2682
  4881   00123E                     u1740:
  4882   00123E                     
  4883                           ;OBCII_PIC18F46K22.c: 562:                 LCD_clear();
  4884   00123E  EC32  F00C         	call	_LCD_clear	;wreg free
  4885   001242                     
  4886                           ;OBCII_PIC18F46K22.c: 563:                 display_mm();
  4887   001242  ECE1  F00B         	call	_display_mm	;wreg free
  4888   001246                     
  4889                           ;OBCII_PIC18F46K22.c: 564:                 menu_sel = -1;
  4890   001246  684F               	setf	_menu_sel^0,c
  4891   001248  6850               	setf	(_menu_sel+1)^0,c
  4892                           
  4893                           ;OBCII_PIC18F46K22.c: 565:                 break;
  4894   00124A  EF31  F009         	goto	l2686
  4895   00124E                     l2682:
  4896                           
  4897                           ;OBCII_PIC18F46K22.c: 568:         parsing_notif();
  4898   00124E  EC40  F00C         	call	_parsing_notif	;wreg free
  4899   001252                     l2684:
  4900                           
  4901                           ;OBCII_PIC18F46K22.c: 557:     while(!message_complete) {
  4902   001252  504C               	movf	_message_complete^0,w,c	;volatile
  4903   001254  B4D8               	btfsc	status,2,c
  4904   001256  EF2F  F009         	goto	u1751
  4905   00125A  EF31  F009         	goto	u1750
  4906   00125E                     u1751:
  4907   00125E  EF09  F009         	goto	l279
  4908   001262                     u1750:
  4909   001262                     l2686:
  4910                           
  4911                           ;OBCII_PIC18F46K22.c: 570:     clear_parsing_notif();
  4912   001262  EC4C  F00C         	call	_clear_parsing_notif	;wreg free
  4913   001266                     
  4914                           ;OBCII_PIC18F46K22.c: 572:     LCD_cursor_set(1,1);
  4915   001266  0E01               	movlw	1
  4916   001268  6E06               	movwf	LCD_cursor_set@column^0,c
  4917   00126A  0E01               	movlw	1
  4918   00126C  ECD3  F00A         	call	_LCD_cursor_set
  4919   001270                     
  4920                           ;OBCII_PIC18F46K22.c: 573:     LCD_write_string("OS:");
  4921   001270  0EE8               	movlw	low STR_27
  4922   001272  6E06               	movwf	LCD_write_string@string^0,c
  4923   001274  0EFF               	movlw	high STR_27
  4924   001276  6E07               	movwf	(LCD_write_string@string+1)^0,c
  4925   001278  ECC3  F009         	call	_LCD_write_string	;wreg free
  4926   00127C                     
  4927                           ;OBCII_PIC18F46K22.c: 574:     LCD_write_string(buffer);
  4928   00127C  0E80               	movlw	low _buffer
  4929   00127E  6E06               	movwf	LCD_write_string@string^0,c
  4930   001280  6A07               	clrf	(LCD_write_string@string+1)^0,c
  4931   001282  ECC3  F009         	call	_LCD_write_string	;wreg free
  4932   001286                     
  4933                           ;OBCII_PIC18F46K22.c: 577:     buffer_count = 0;
  4934   001286  6A4E               	clrf	_buffer_count^0,c
  4935   001288                     
  4936                           ;OBCII_PIC18F46K22.c: 578:     message_complete = 0;
  4937   001288  6A4C               	clrf	_message_complete^0,c	;volatile
  4938   00128A  0012               	return		;funcret
  4939   00128C                     __end_of_print_ELMVer:
  4940                           	callstack 0
  4941                           
  4942 ;; *************** function _clear_diagnostic_codes *****************
  4943 ;; Defined at:
  4944 ;;		line 624 in file "OBCII_PIC18F46K22.c"
  4945 ;; Parameters:    Size  Location     Type
  4946 ;;		None
  4947 ;; Auto vars:     Size  Location     Type
  4948 ;;  opt_sel         2   12[COMRAM] int 
  4949 ;; Return value:  Size  Location     Type
  4950 ;;                  1    wreg      void 
  4951 ;; Registers used:
  4952 ;;		wreg, fsr0l, fsr0h, status,2, status,0, tblptrl, tblptrh, tblptru, cstack
  4953 ;; Tracked objects:
  4954 ;;		On entry : 0/0
  4955 ;;		On exit  : 0/0
  4956 ;;		Unchanged: 0/0
  4957 ;; Data sizes:     COMRAM   BANK0   BANK1   BANK2   BANK3   BANK4   BANK5   BANK6   BANK7   BANK8   BANK9  BANK10  BANK1
      +1  BANK12  BANK13  BANK14  BANK15
  4958 ;;      Params:         0       0       0       0       0       0       0       0       0       0       0       0       
      +0       0       0       0       0
  4959 ;;      Locals:         2       0       0       0       0       0       0       0       0       0       0       0       
      +0       0       0       0       0
  4960 ;;      Temps:          2       0       0       0       0       0       0       0       0       0       0       0       
      +0       0       0       0       0
  4961 ;;      Totals:         4       0       0       0       0       0       0       0       0       0       0       0       
      +0       0       0       0       0
  4962 ;;Total ram usage:        4 bytes
  4963 ;; Hardware stack levels used: 1
  4964 ;; Hardware stack levels required when called: 5
  4965 ;; This function calls:
  4966 ;;		_LCD_clear
  4967 ;;		_LCD_configure_cursor_blink
  4968 ;;		_LCD_cursor_set
  4969 ;;		_LCD_write_string
  4970 ;;		_UART1_SendString
  4971 ;;		_clear_parsing_notif
  4972 ;;		_display_mm
  4973 ;;		_parsing_notif
  4974 ;;		_readADC
  4975 ;; This function is called by:
  4976 ;;		_main_menu
  4977 ;; This function uses a non-reentrant model
  4978 ;;
  4979                           
  4980                           	psect	text25
  4981   00030E                     __ptext25:
  4982                           	callstack 0
  4983   00030E                     _clear_diagnostic_codes:
  4984                           	callstack 24
  4985   00030E                     
  4986                           ;OBCII_PIC18F46K22.c: 626:     int opt_sel = 0;
  4987   00030E  0E00               	movlw	0
  4988   000310  6E0E               	movwf	(clear_diagnostic_codes@opt_sel+1)^0,c
  4989   000312  0E00               	movlw	0
  4990   000314  6E0D               	movwf	clear_diagnostic_codes@opt_sel^0,c
  4991   000316                     
  4992                           ;OBCII_PIC18F46K22.c: 627:     LCD_clear();
  4993   000316  EC32  F00C         	call	_LCD_clear	;wreg free
  4994   00031A                     
  4995                           ;OBCII_PIC18F46K22.c: 628:     LCD_cursor_set(1,1);
  4996   00031A  0E01               	movlw	1
  4997   00031C  6E06               	movwf	LCD_cursor_set@column^0,c
  4998   00031E  0E01               	movlw	1
  4999   000320  ECD3  F00A         	call	_LCD_cursor_set
  5000   000324                     
  5001                           ;OBCII_PIC18F46K22.c: 629:     LCD_write_string("Clear Code(s)?");
  5002   000324  0E71               	movlw	low STR_32
  5003   000326  6E06               	movwf	LCD_write_string@string^0,c
  5004   000328  0EFF               	movlw	high STR_32
  5005   00032A  6E07               	movwf	(LCD_write_string@string+1)^0,c
  5006   00032C  ECC3  F009         	call	_LCD_write_string	;wreg free
  5007   000330                     
  5008                           ;OBCII_PIC18F46K22.c: 630:     LCD_cursor_set(2,1);
  5009   000330  0E01               	movlw	1
  5010   000332  6E06               	movwf	LCD_cursor_set@column^0,c
  5011   000334  0E02               	movlw	2
  5012   000336  ECD3  F00A         	call	_LCD_cursor_set
  5013   00033A                     
  5014                           ;OBCII_PIC18F46K22.c: 631:     LCD_write_string("Y/N <<<<<<<<<<<<");
  5015   00033A  0E21               	movlw	low STR_33
  5016   00033C  6E06               	movwf	LCD_write_string@string^0,c
  5017   00033E  0EFF               	movlw	high STR_33
  5018   000340  6E07               	movwf	(LCD_write_string@string+1)^0,c
  5019   000342  ECC3  F009         	call	_LCD_write_string	;wreg free
  5020   000346                     
  5021                           ;OBCII_PIC18F46K22.c: 632:     LCD_configure_cursor_blink(1);
  5022   000346  0E01               	movlw	1
  5023   000348  EC21  F00C         	call	_LCD_configure_cursor_blink
  5024   00034C                     l2878:
  5025                           
  5026                           ;OBCII_PIC18F46K22.c: 635:         result = readADC();
  5027   00034C  ECC6  F00B         	call	_readADC	;wreg free
  5028   000350  C003  F049         	movff	?_readADC,_result
  5029   000354  C004  F04A         	movff	?_readADC+1,_result+1
  5030   000358                     
  5031                           ;OBCII_PIC18F46K22.c: 636:         if(result >= 0 && result <= 511){
  5032   000358  0E02               	movlw	2
  5033   00035A  5C4A               	subwf	(_result+1)^0,w,c
  5034   00035C  B0D8               	btfsc	status,0,c
  5035   00035E  EFB3  F001         	goto	u1981
  5036   000362  EFB5  F001         	goto	u1980
  5037   000366                     u1981:
  5038   000366  EFBE  F001         	goto	l2886
  5039   00036A                     u1980:
  5040   00036A                     
  5041                           ;OBCII_PIC18F46K22.c: 637:             opt_sel = 0;
  5042   00036A  0E00               	movlw	0
  5043   00036C  6E0E               	movwf	(clear_diagnostic_codes@opt_sel+1)^0,c
  5044   00036E  0E00               	movlw	0
  5045   000370  6E0D               	movwf	clear_diagnostic_codes@opt_sel^0,c
  5046   000372                     
  5047                           ;OBCII_PIC18F46K22.c: 638:             LCD_cursor_set(2,1);
  5048   000372  0E01               	movlw	1
  5049   000374  6E06               	movwf	LCD_cursor_set@column^0,c
  5050   000376  0E02               	movlw	2
  5051   000378  ECD3  F00A         	call	_LCD_cursor_set
  5052   00037C                     l2886:
  5053                           
  5054                           ;OBCII_PIC18F46K22.c: 641:         if(result >= 512 && result <=1023){
  5055   00037C  0E02               	movlw	2
  5056   00037E  5C4A               	subwf	(_result+1)^0,w,c
  5057   000380  A0D8               	btfss	status,0,c
  5058   000382  EFC5  F001         	goto	u1991
  5059   000386  EFC7  F001         	goto	u1990
  5060   00038A                     u1991:
  5061   00038A  EFD9  F001         	goto	l2894
  5062   00038E                     u1990:
  5063   00038E  0E04               	movlw	4
  5064   000390  5C4A               	subwf	(_result+1)^0,w,c
  5065   000392  B0D8               	btfsc	status,0,c
  5066   000394  EFCE  F001         	goto	u2001
  5067   000398  EFD0  F001         	goto	u2000
  5068   00039C                     u2001:
  5069   00039C  EFD9  F001         	goto	l2894
  5070   0003A0                     u2000:
  5071   0003A0                     
  5072                           ;OBCII_PIC18F46K22.c: 642:             opt_sel = 1;
  5073   0003A0  0E00               	movlw	0
  5074   0003A2  6E0E               	movwf	(clear_diagnostic_codes@opt_sel+1)^0,c
  5075   0003A4  0E01               	movlw	1
  5076   0003A6  6E0D               	movwf	clear_diagnostic_codes@opt_sel^0,c
  5077   0003A8                     
  5078                           ;OBCII_PIC18F46K22.c: 643:             LCD_cursor_set(2,3);
  5079   0003A8  0E03               	movlw	3
  5080   0003AA  6E06               	movwf	LCD_cursor_set@column^0,c
  5081   0003AC  0E02               	movlw	2
  5082   0003AE  ECD3  F00A         	call	_LCD_cursor_set
  5083   0003B2                     l2894:
  5084                           
  5085                           ;OBCII_PIC18F46K22.c: 645:             if (PORTCbits.RC5 == 0) {
  5086   0003B2  BA82               	btfsc	130,5,c	;volatile
  5087   0003B4  EFDE  F001         	goto	u2011
  5088   0003B8  EFE0  F001         	goto	u2010
  5089   0003BC                     u2011:
  5090   0003BC  EFF7  F001         	goto	l303
  5091   0003C0                     u2010:
  5092   0003C0                     
  5093                           ;OBCII_PIC18F46K22.c: 646:                 _delay((unsigned long)((20)*(16000000/4000.0)
      +                          ));
  5094   0003C0  0E68               	movlw	104
  5095   0003C2  6E0B               	movwf	??_clear_diagnostic_codes^0,c
  5096   0003C4  0EE4               	movlw	228
  5097   0003C6                     u2607:
  5098   0003C6  2EE8               	decfsz	wreg,f,c
  5099   0003C8  D7FE               	bra	u2607
  5100   0003CA  2E0B               	decfsz	??_clear_diagnostic_codes^0,f,c
  5101   0003CC  D7FC               	bra	u2607
  5102   0003CE  D000               	nop2	
  5103   0003D0                     
  5104                           ;OBCII_PIC18F46K22.c: 647:                 if (PORTCbits.RC5 == 0) {
  5105   0003D0  BA82               	btfsc	130,5,c	;volatile
  5106   0003D2  EFED  F001         	goto	u2021
  5107   0003D6  EFEF  F001         	goto	u2020
  5108   0003DA                     u2021:
  5109   0003DA  EFF7  F001         	goto	l303
  5110   0003DE                     u2020:
  5111   0003DE                     
  5112                           ;OBCII_PIC18F46K22.c: 648:                     LCD_clear();
  5113   0003DE  EC32  F00C         	call	_LCD_clear	;wreg free
  5114   0003E2                     
  5115                           ;OBCII_PIC18F46K22.c: 649:                     display_mm();
  5116   0003E2  ECE1  F00B         	call	_display_mm	;wreg free
  5117   0003E6                     
  5118                           ;OBCII_PIC18F46K22.c: 650:                     menu_sel = -1;
  5119   0003E6  684F               	setf	_menu_sel^0,c
  5120   0003E8  6850               	setf	(_menu_sel+1)^0,c
  5121                           
  5122                           ;OBCII_PIC18F46K22.c: 651:                     break;
  5123   0003EA  EF7B  F002         	goto	l317
  5124   0003EE                     l303:
  5125                           
  5126                           ;OBCII_PIC18F46K22.c: 655:         if (PORTBbits.RB4 == 0) {
  5127   0003EE  B881               	btfsc	129,4,c	;volatile
  5128   0003F0  EFFC  F001         	goto	u2031
  5129   0003F4  EFFE  F001         	goto	u2030
  5130   0003F8                     u2031:
  5131   0003F8  EFA6  F001         	goto	l2878
  5132   0003FC                     u2030:
  5133   0003FC                     
  5134                           ;OBCII_PIC18F46K22.c: 656:             _delay((unsigned long)((20)*(16000000/4000.0)));
  5135   0003FC  0E68               	movlw	104
  5136   0003FE  6E0B               	movwf	??_clear_diagnostic_codes^0,c
  5137   000400  0EE4               	movlw	228
  5138   000402                     u2617:
  5139   000402  2EE8               	decfsz	wreg,f,c
  5140   000404  D7FE               	bra	u2617
  5141   000406  2E0B               	decfsz	??_clear_diagnostic_codes^0,f,c
  5142   000408  D7FC               	bra	u2617
  5143   00040A  D000               	nop2	
  5144   00040C                     
  5145                           ;OBCII_PIC18F46K22.c: 657:             if (PORTBbits.RB4 == 0) {
  5146   00040C  B881               	btfsc	129,4,c	;volatile
  5147   00040E  EF0B  F002         	goto	u2041
  5148   000412  EF0D  F002         	goto	u2040
  5149   000416                     u2041:
  5150   000416  EFA6  F001         	goto	l2878
  5151   00041A                     u2040:
  5152   00041A  EF65  F002         	goto	l2944
  5153   00041E                     l2912:
  5154                           
  5155                           ;OBCII_PIC18F46K22.c: 661:                     UART1_SendString("04\r");
  5156   00041E  0EE4               	movlw	low STR_34
  5157   000420  6E04               	movwf	UART1_SendString@string^0,c
  5158   000422  0EFF               	movlw	high STR_34
  5159   000424  6E05               	movwf	(UART1_SendString@string+1)^0,c
  5160   000426  EC03  F00B         	call	_UART1_SendString	;wreg free
  5161                           
  5162                           ;OBCII_PIC18F46K22.c: 662:                     while(!message_complete){
  5163   00042A  EF19  F002         	goto	l2916
  5164   00042E                     l2914:
  5165                           
  5166                           ;OBCII_PIC18F46K22.c: 664:                         parsing_notif();
  5167   00042E  EC40  F00C         	call	_parsing_notif	;wreg free
  5168   000432                     l2916:
  5169                           
  5170                           ;OBCII_PIC18F46K22.c: 662:                     while(!message_complete){
  5171   000432  504C               	movf	_message_complete^0,w,c	;volatile
  5172   000434  B4D8               	btfsc	status,2,c
  5173   000436  EF1F  F002         	goto	u2051
  5174   00043A  EF21  F002         	goto	u2050
  5175   00043E                     u2051:
  5176   00043E  EF17  F002         	goto	l2914
  5177   000442                     u2050:
  5178   000442                     
  5179                           ;OBCII_PIC18F46K22.c: 666:                     clear_parsing_notif();
  5180   000442  EC4C  F00C         	call	_clear_parsing_notif	;wreg free
  5181   000446                     
  5182                           ;OBCII_PIC18F46K22.c: 668:                     LCD_clear();
  5183   000446  EC32  F00C         	call	_LCD_clear	;wreg free
  5184   00044A                     
  5185                           ;OBCII_PIC18F46K22.c: 669:                     LCD_cursor_set(1,1);
  5186   00044A  0E01               	movlw	1
  5187   00044C  6E06               	movwf	LCD_cursor_set@column^0,c
  5188   00044E  0E01               	movlw	1
  5189   000450  ECD3  F00A         	call	_LCD_cursor_set
  5190                           
  5191                           ;OBCII_PIC18F46K22.c: 670:                     LCD_write_string("Codes Cleared");
  5192   000454  0E9D               	movlw	low STR_35
  5193   000456  6E06               	movwf	LCD_write_string@string^0,c
  5194   000458  0EFF               	movlw	high STR_35
  5195   00045A  6E07               	movwf	(LCD_write_string@string+1)^0,c
  5196   00045C  ECC3  F009         	call	_LCD_write_string	;wreg free
  5197   000460                     
  5198                           ;OBCII_PIC18F46K22.c: 671:                     LCD_cursor_set(2,1);
  5199   000460  0E01               	movlw	1
  5200   000462  6E06               	movwf	LCD_cursor_set@column^0,c
  5201   000464  0E02               	movlw	2
  5202   000466  ECD3  F00A         	call	_LCD_cursor_set
  5203   00046A                     
  5204                           ;OBCII_PIC18F46K22.c: 672:                     LCD_write_string("To Menu...");
  5205   00046A  0EAB               	movlw	low STR_36
  5206   00046C  6E06               	movwf	LCD_write_string@string^0,c
  5207   00046E  0EFF               	movlw	high STR_36
  5208   000470  6E07               	movwf	(LCD_write_string@string+1)^0,c
  5209   000472  ECC3  F009         	call	_LCD_write_string	;wreg free
  5210   000476                     l2928:
  5211                           
  5212                           ;OBCII_PIC18F46K22.c: 674:                     menu_sel = -1;
  5213   000476  684F               	setf	_menu_sel^0,c
  5214   000478  6850               	setf	(_menu_sel+1)^0,c
  5215   00047A                     
  5216                           ;OBCII_PIC18F46K22.c: 675:                     _delay((unsigned long)((2000)*(16000000/4
      +                          000.0)));
  5217   00047A  0E29               	movlw	41
  5218   00047C  6E0C               	movwf	(??_clear_diagnostic_codes+1)^0,c
  5219   00047E  0E96               	movlw	150
  5220   000480  6E0B               	movwf	??_clear_diagnostic_codes^0,c
  5221   000482  0E7F               	movlw	127
  5222   000484                     u2627:
  5223   000484  2EE8               	decfsz	wreg,f,c
  5224   000486  D7FE               	bra	u2627
  5225   000488  2E0B               	decfsz	??_clear_diagnostic_codes^0,f,c
  5226   00048A  D7FC               	bra	u2627
  5227   00048C  2E0C               	decfsz	(??_clear_diagnostic_codes+1)^0,f,c
  5228   00048E  D7FA               	bra	u2627
  5229   000490  0000               	nop	
  5230                           
  5231                           ;OBCII_PIC18F46K22.c: 677:                         break;
  5232   000492  EF7B  F002         	goto	l317
  5233   000496                     l2932:
  5234                           
  5235                           ;OBCII_PIC18F46K22.c: 681:                     LCD_clear();
  5236   000496  EC32  F00C         	call	_LCD_clear	;wreg free
  5237                           
  5238                           ;OBCII_PIC18F46K22.c: 682:                     LCD_cursor_set(1,1);
  5239   00049A  0E01               	movlw	1
  5240   00049C  6E06               	movwf	LCD_cursor_set@column^0,c
  5241   00049E  0E01               	movlw	1
  5242   0004A0  ECD3  F00A         	call	_LCD_cursor_set
  5243   0004A4                     
  5244                           ;OBCII_PIC18F46K22.c: 683:                     LCD_write_string("Nothing Cleared");
  5245   0004A4  0E52               	movlw	low STR_37
  5246   0004A6  6E06               	movwf	LCD_write_string@string^0,c
  5247   0004A8  0EFF               	movlw	high STR_37
  5248   0004AA  6E07               	movwf	(LCD_write_string@string+1)^0,c
  5249   0004AC  ECC3  F009         	call	_LCD_write_string	;wreg free
  5250   0004B0                     
  5251                           ;OBCII_PIC18F46K22.c: 684:                     LCD_cursor_set(2,1);
  5252   0004B0  0E01               	movlw	1
  5253   0004B2  6E06               	movwf	LCD_cursor_set@column^0,c
  5254   0004B4  0E02               	movlw	2
  5255   0004B6  ECD3  F00A         	call	_LCD_cursor_set
  5256                           
  5257                           ;OBCII_PIC18F46K22.c: 685:                     LCD_write_string("To Menu...");
  5258   0004BA  0EAB               	movlw	low STR_36
  5259   0004BC  6E06               	movwf	LCD_write_string@string^0,c
  5260   0004BE  0EFF               	movlw	high STR_36
  5261   0004C0  6E07               	movwf	(LCD_write_string@string+1)^0,c
  5262   0004C2  ECC3  F009         	call	_LCD_write_string	;wreg free
  5263   0004C6  EF3B  F002         	goto	l2928
  5264   0004CA                     l2944:
  5265   0004CA  C00D  F00B         	movff	clear_diagnostic_codes@opt_sel,??_clear_diagnostic_codes
  5266   0004CE  C00E  F00C         	movff	clear_diagnostic_codes@opt_sel+1,??_clear_diagnostic_codes+1
  5267                           
  5268                           ; Switch on 2 bytes has been partitioned into a top level switch of size 1, and 1 sub-sw
      +                          itches
  5269                           ; Switch size 1, requested type "simple"
  5270                           ; Number of cases is 1, Range of values is 0 to 0
  5271                           ; switch strategies available:
  5272                           ; Name         Instructions Cycles
  5273                           ; simple_byte            4     3 (average)
  5274                           ;	Chosen strategy is simple_byte
  5275   0004D2  500C               	movf	(??_clear_diagnostic_codes+1)^0,w,c
  5276   0004D4  0A00               	xorlw	0	; case 0
  5277   0004D6  B4D8               	btfsc	status,2,c
  5278   0004D8  EF70  F002         	goto	l3342
  5279   0004DC  EF7B  F002         	goto	l317
  5280   0004E0                     l3342:
  5281                           
  5282                           ; Switch size 1, requested type "simple"
  5283                           ; Number of cases is 2, Range of values is 0 to 1
  5284                           ; switch strategies available:
  5285                           ; Name         Instructions Cycles
  5286                           ; simple_byte            7     4 (average)
  5287                           ;	Chosen strategy is simple_byte
  5288   0004E0  500B               	movf	??_clear_diagnostic_codes^0,w,c
  5289   0004E2  0A00               	xorlw	0	; case 0
  5290   0004E4  B4D8               	btfsc	status,2,c
  5291   0004E6  EF0F  F002         	goto	l2912
  5292   0004EA  0A01               	xorlw	1	; case 1
  5293   0004EC  B4D8               	btfsc	status,2,c
  5294   0004EE  EF4B  F002         	goto	l2932
  5295   0004F2  EF7B  F002         	goto	l317
  5296   0004F6                     l317:
  5297   0004F6  0012               	return		;funcret
  5298   0004F8                     __end_of_clear_diagnostic_codes:
  5299                           	callstack 0
  5300                           
  5301 ;; *************** function _readADC *****************
  5302 ;; Defined at:
  5303 ;;		line 282 in file "OBCII_PIC18F46K22.c"
  5304 ;; Parameters:    Size  Location     Type
  5305 ;;		None
  5306 ;; Auto vars:     Size  Location     Type
  5307 ;;		None
  5308 ;; Return value:  Size  Location     Type
  5309 ;;                  2    2[COMRAM] unsigned int 
  5310 ;; Registers used:
  5311 ;;		wreg, status,2, status,0
  5312 ;; Tracked objects:
  5313 ;;		On entry : 0/0
  5314 ;;		On exit  : 0/0
  5315 ;;		Unchanged: 0/0
  5316 ;; Data sizes:     COMRAM   BANK0   BANK1   BANK2   BANK3   BANK4   BANK5   BANK6   BANK7   BANK8   BANK9  BANK10  BANK1
      +1  BANK12  BANK13  BANK14  BANK15
  5317 ;;      Params:         2       0       0       0       0       0       0       0       0       0       0       0       
      +0       0       0       0       0
  5318 ;;      Locals:         0       0       0       0       0       0       0       0       0       0       0       0       
      +0       0       0       0       0
  5319 ;;      Temps:          2       0       0       0       0       0       0       0       0       0       0       0       
      +0       0       0       0       0
  5320 ;;      Totals:         4       0       0       0       0       0       0       0       0       0       0       0       
      +0       0       0       0       0
  5321 ;;Total ram usage:        4 bytes
  5322 ;; Hardware stack levels used: 1
  5323 ;; Hardware stack levels required when called: 1
  5324 ;; This function calls:
  5325 ;;		Nothing
  5326 ;; This function is called by:
  5327 ;;		_main_menu
  5328 ;;		_clear_diagnostic_codes
  5329 ;; This function uses a non-reentrant model
  5330 ;;
  5331                           
  5332                           	psect	text26
  5333   00178C                     __ptext26:
  5334                           	callstack 0
  5335   00178C                     _readADC:
  5336                           	callstack 28
  5337   00178C                     
  5338                           ;OBCII_PIC18F46K22.c: 283:     ADCON0bits.GO = 1;
  5339   00178C  82C2               	bsf	194,1,c	;volatile
  5340   00178E                     l189:
  5341   00178E  B2C2               	btfsc	194,1,c	;volatile
  5342   001790  EFCC  F00B         	goto	u1611
  5343   001794  EFCE  F00B         	goto	u1610
  5344   001798                     u1611:
  5345   001798  EFC7  F00B         	goto	l189
  5346   00179C                     u1610:
  5347   00179C                     
  5348                           ;OBCII_PIC18F46K22.c: 285:     _delay((unsigned long)((10)*(16000000/4000.0)));
  5349   00179C  0E34               	movlw	52
  5350   00179E  6E05               	movwf	??_readADC^0,c
  5351   0017A0  0EF2               	movlw	242
  5352   0017A2                     u2637:
  5353   0017A2  2EE8               	decfsz	wreg,f,c
  5354   0017A4  D7FE               	bra	u2637
  5355   0017A6  2E05               	decfsz	??_readADC^0,f,c
  5356   0017A8  D7FC               	bra	u2637
  5357   0017AA                     
  5358                           ;OBCII_PIC18F46K22.c: 286:     return ((ADRESH << 8) | ADRESL);
  5359   0017AA  50C3               	movf	195,w,c	;volatile
  5360   0017AC  CFC4 F005          	movff	4036,??_readADC	;volatile
  5361   0017B0  6A06               	clrf	(??_readADC+1)^0,c
  5362   0017B2  C005  F006         	movff	??_readADC,??_readADC+1
  5363   0017B6  6A05               	clrf	??_readADC^0,c
  5364   0017B8  1005               	iorwf	??_readADC^0,w,c
  5365   0017BA  6E03               	movwf	?_readADC^0,c
  5366   0017BC  5006               	movf	(??_readADC+1)^0,w,c
  5367   0017BE  6E04               	movwf	(?_readADC+1)^0,c
  5368   0017C0  0012               	return		;funcret
  5369   0017C2                     __end_of_readADC:
  5370                           	callstack 0
  5371                           
  5372 ;; *************** function _parsing_notif *****************
  5373 ;; Defined at:
  5374 ;;		line 296 in file "OBCII_PIC18F46K22.c"
  5375 ;; Parameters:    Size  Location     Type
  5376 ;;		None
  5377 ;; Auto vars:     Size  Location     Type
  5378 ;;		None
  5379 ;; Return value:  Size  Location     Type
  5380 ;;                  1    wreg      void 
  5381 ;; Registers used:
  5382 ;;		wreg, fsr0l, fsr0h, status,2, status,0, tblptrl, tblptrh, tblptru, cstack
  5383 ;; Tracked objects:
  5384 ;;		On entry : 0/0
  5385 ;;		On exit  : 0/0
  5386 ;;		Unchanged: 0/0
  5387 ;; Data sizes:     COMRAM   BANK0   BANK1   BANK2   BANK3   BANK4   BANK5   BANK6   BANK7   BANK8   BANK9  BANK10  BANK1
      +1  BANK12  BANK13  BANK14  BANK15
  5388 ;;      Params:         0       0       0       0       0       0       0       0       0       0       0       0       
      +0       0       0       0       0
  5389 ;;      Locals:         0       0       0       0       0       0       0       0       0       0       0       0       
      +0       0       0       0       0
  5390 ;;      Temps:          0       0       0       0       0       0       0       0       0       0       0       0       
      +0       0       0       0       0
  5391 ;;      Totals:         0       0       0       0       0       0       0       0       0       0       0       0       
      +0       0       0       0       0
  5392 ;;Total ram usage:        0 bytes
  5393 ;; Hardware stack levels used: 1
  5394 ;; Hardware stack levels required when called: 4
  5395 ;; This function calls:
  5396 ;;		_LCD_cursor_set
  5397 ;;		_LCD_write_string
  5398 ;; This function is called by:
  5399 ;;		_print_RPM
  5400 ;;		_print_Vbatt
  5401 ;;		_print_AI_Temp
  5402 ;;		_print_ELMVer
  5403 ;;		_print_SAEVer
  5404 ;;		_clear_diagnostic_codes
  5405 ;; This function uses a non-reentrant model
  5406 ;;
  5407                           
  5408                           	psect	text27
  5409   001880                     __ptext27:
  5410                           	callstack 0
  5411   001880                     _parsing_notif:
  5412                           	callstack 23
  5413   001880                     
  5414                           ;OBCII_PIC18F46K22.c: 297:     LCD_cursor_set(1,16);
  5415   001880  0E10               	movlw	16
  5416   001882  6E06               	movwf	LCD_cursor_set@column^0,c
  5417   001884  0E01               	movlw	1
  5418   001886  ECD3  F00A         	call	_LCD_cursor_set
  5419   00188A                     
  5420                           ;OBCII_PIC18F46K22.c: 298:     LCD_write_string("@");
  5421   00188A  0EFB               	movlw	low STR_11
  5422   00188C  6E06               	movwf	LCD_write_string@string^0,c
  5423   00188E  0EFF               	movlw	high STR_11
  5424   001890  6E07               	movwf	(LCD_write_string@string+1)^0,c
  5425   001892  ECC3  F009         	call	_LCD_write_string	;wreg free
  5426   001896  0012               	return		;funcret
  5427   001898                     __end_of_parsing_notif:
  5428                           	callstack 0
  5429                           
  5430 ;; *************** function _display_mm *****************
  5431 ;; Defined at:
  5432 ;;		line 289 in file "OBCII_PIC18F46K22.c"
  5433 ;; Parameters:    Size  Location     Type
  5434 ;;		None
  5435 ;; Auto vars:     Size  Location     Type
  5436 ;;		None
  5437 ;; Return value:  Size  Location     Type
  5438 ;;                  1    wreg      void 
  5439 ;; Registers used:
  5440 ;;		wreg, fsr0l, fsr0h, status,2, status,0, tblptrl, tblptrh, tblptru, cstack
  5441 ;; Tracked objects:
  5442 ;;		On entry : 0/0
  5443 ;;		On exit  : 0/0
  5444 ;;		Unchanged: 0/0
  5445 ;; Data sizes:     COMRAM   BANK0   BANK1   BANK2   BANK3   BANK4   BANK5   BANK6   BANK7   BANK8   BANK9  BANK10  BANK1
      +1  BANK12  BANK13  BANK14  BANK15
  5446 ;;      Params:         0       0       0       0       0       0       0       0       0       0       0       0       
      +0       0       0       0       0
  5447 ;;      Locals:         0       0       0       0       0       0       0       0       0       0       0       0       
      +0       0       0       0       0
  5448 ;;      Temps:          0       0       0       0       0       0       0       0       0       0       0       0       
      +0       0       0       0       0
  5449 ;;      Totals:         0       0       0       0       0       0       0       0       0       0       0       0       
      +0       0       0       0       0
  5450 ;;Total ram usage:        0 bytes
  5451 ;; Hardware stack levels used: 1
  5452 ;; Hardware stack levels required when called: 4
  5453 ;; This function calls:
  5454 ;;		_LCD_cursor_set
  5455 ;;		_LCD_write_string
  5456 ;; This function is called by:
  5457 ;;		_main_menu
  5458 ;;		_print_RPM
  5459 ;;		_print_Vbatt
  5460 ;;		_print_AI_Temp
  5461 ;;		_print_ELMVer
  5462 ;;		_print_SAEVer
  5463 ;;		_clear_diagnostic_codes
  5464 ;; This function uses a non-reentrant model
  5465 ;;
  5466                           
  5467                           	psect	text28
  5468   0017C2                     __ptext28:
  5469                           	callstack 0
  5470   0017C2                     _display_mm:
  5471                           	callstack 23
  5472   0017C2                     
  5473                           ;OBCII_PIC18F46K22.c: 290:     LCD_cursor_set(1,1);
  5474   0017C2  0E01               	movlw	1
  5475   0017C4  6E06               	movwf	LCD_cursor_set@column^0,c
  5476   0017C6  0E01               	movlw	1
  5477   0017C8  ECD3  F00A         	call	_LCD_cursor_set
  5478   0017CC                     
  5479                           ;OBCII_PIC18F46K22.c: 291:     LCD_write_string("MENU <OBDIIPIC>");
  5480   0017CC  0E32               	movlw	low STR_9
  5481   0017CE  6E06               	movwf	LCD_write_string@string^0,c
  5482   0017D0  0EFF               	movlw	high STR_9
  5483   0017D2  6E07               	movwf	(LCD_write_string@string+1)^0,c
  5484   0017D4  ECC3  F009         	call	_LCD_write_string	;wreg free
  5485   0017D8                     
  5486                           ;OBCII_PIC18F46K22.c: 292:     LCD_cursor_set(2,1);
  5487   0017D8  0E01               	movlw	1
  5488   0017DA  6E06               	movwf	LCD_cursor_set@column^0,c
  5489   0017DC  0E02               	movlw	2
  5490   0017DE  ECD3  F00A         	call	_LCD_cursor_set
  5491                           
  5492                           ;OBCII_PIC18F46K22.c: 293:     LCD_write_string("LRM RDC CDC DSI");
  5493   0017E2  0E42               	movlw	low STR_10
  5494   0017E4  6E06               	movwf	LCD_write_string@string^0,c
  5495   0017E6  0EFF               	movlw	high STR_10
  5496   0017E8  6E07               	movwf	(LCD_write_string@string+1)^0,c
  5497   0017EA  ECC3  F009         	call	_LCD_write_string	;wreg free
  5498   0017EE  0012               	return		;funcret
  5499   0017F0                     __end_of_display_mm:
  5500                           	callstack 0
  5501                           
  5502 ;; *************** function _clear_parsing_notif *****************
  5503 ;; Defined at:
  5504 ;;		line 300 in file "OBCII_PIC18F46K22.c"
  5505 ;; Parameters:    Size  Location     Type
  5506 ;;		None
  5507 ;; Auto vars:     Size  Location     Type
  5508 ;;		None
  5509 ;; Return value:  Size  Location     Type
  5510 ;;                  1    wreg      void 
  5511 ;; Registers used:
  5512 ;;		wreg, fsr0l, fsr0h, status,2, status,0, tblptrl, tblptrh, tblptru, cstack
  5513 ;; Tracked objects:
  5514 ;;		On entry : 0/0
  5515 ;;		On exit  : 0/0
  5516 ;;		Unchanged: 0/0
  5517 ;; Data sizes:     COMRAM   BANK0   BANK1   BANK2   BANK3   BANK4   BANK5   BANK6   BANK7   BANK8   BANK9  BANK10  BANK1
      +1  BANK12  BANK13  BANK14  BANK15
  5518 ;;      Params:         0       0       0       0       0       0       0       0       0       0       0       0       
      +0       0       0       0       0
  5519 ;;      Locals:         0       0       0       0       0       0       0       0       0       0       0       0       
      +0       0       0       0       0
  5520 ;;      Temps:          0       0       0       0       0       0       0       0       0       0       0       0       
      +0       0       0       0       0
  5521 ;;      Totals:         0       0       0       0       0       0       0       0       0       0       0       0       
      +0       0       0       0       0
  5522 ;;Total ram usage:        0 bytes
  5523 ;; Hardware stack levels used: 1
  5524 ;; Hardware stack levels required when called: 4
  5525 ;; This function calls:
  5526 ;;		_LCD_cursor_set
  5527 ;;		_LCD_write_string
  5528 ;; This function is called by:
  5529 ;;		_print_RPM
  5530 ;;		_print_Vbatt
  5531 ;;		_print_AI_Temp
  5532 ;;		_print_ELMVer
  5533 ;;		_print_SAEVer
  5534 ;;		_clear_diagnostic_codes
  5535 ;; This function uses a non-reentrant model
  5536 ;;
  5537                           
  5538                           	psect	text29
  5539   001898                     __ptext29:
  5540                           	callstack 0
  5541   001898                     _clear_parsing_notif:
  5542                           	callstack 23
  5543   001898                     
  5544                           ;OBCII_PIC18F46K22.c: 301:     LCD_cursor_set(1,16);
  5545   001898  0E10               	movlw	16
  5546   00189A  6E06               	movwf	LCD_cursor_set@column^0,c
  5547   00189C  0E01               	movlw	1
  5548   00189E  ECD3  F00A         	call	_LCD_cursor_set
  5549   0018A2                     
  5550                           ;OBCII_PIC18F46K22.c: 302:     LCD_write_string(" ");
  5551   0018A2  0E9B               	movlw	low (STR_31+12)
  5552   0018A4  6E06               	movwf	LCD_write_string@string^0,c
  5553   0018A6  0EFF               	movlw	high (STR_31+12)
  5554   0018A8  6E07               	movwf	(LCD_write_string@string+1)^0,c
  5555   0018AA  ECC3  F009         	call	_LCD_write_string	;wreg free
  5556   0018AE  0012               	return		;funcret
  5557   0018B0                     __end_of_clear_parsing_notif:
  5558                           	callstack 0
  5559                           
  5560 ;; *************** function _LCD_write_string *****************
  5561 ;; Defined at:
  5562 ;;		line 362 in file "LCD.c"
  5563 ;; Parameters:    Size  Location     Type
  5564 ;;  string          2    5[COMRAM] PTR unsigned char 
  5565 ;;		 -> STR_38(11), STR_37(16), STR_36(11), STR_35(14), 
  5566 ;;		 -> STR_33(17), STR_32(15), STR_31(14), STR_30(13), 
  5567 ;;		 -> STR_29(5), STR_27(4), STR_25(2), STR_24(4), 
  5568 ;;		 -> air_intake_string(16), STR_22(4), STR_20(4), STR_19(6), 
  5569 ;;		 -> STR_18(6), STR_16(4), STR_15(6), rpm_string(16), 
  5570 ;;		 -> STR_12(2), STR_11(2), STR_10(16), STR_9(16), 
  5571 ;;		 -> STR_7(15), STR_5(17), STR_3(15), STR_2(17), 
  5572 ;;		 -> buffer(32), 
  5573 ;; Auto vars:     Size  Location     Type
  5574 ;;  i               1    9[COMRAM] unsigned char 
  5575 ;; Return value:  Size  Location     Type
  5576 ;;                  1    wreg      void 
  5577 ;; Registers used:
  5578 ;;		wreg, fsr0l, fsr0h, status,2, status,0, tblptrl, tblptrh, tblptru, cstack
  5579 ;; Tracked objects:
  5580 ;;		On entry : 0/0
  5581 ;;		On exit  : 0/0
  5582 ;;		Unchanged: 0/0
  5583 ;; Data sizes:     COMRAM   BANK0   BANK1   BANK2   BANK3   BANK4   BANK5   BANK6   BANK7   BANK8   BANK9  BANK10  BANK1
      +1  BANK12  BANK13  BANK14  BANK15
  5584 ;;      Params:         2       0       0       0       0       0       0       0       0       0       0       0       
      +0       0       0       0       0
  5585 ;;      Locals:         1       0       0       0       0       0       0       0       0       0       0       0       
      +0       0       0       0       0
  5586 ;;      Temps:          2       0       0       0       0       0       0       0       0       0       0       0       
      +0       0       0       0       0
  5587 ;;      Totals:         5       0       0       0       0       0       0       0       0       0       0       0       
      +0       0       0       0       0
  5588 ;;Total ram usage:        5 bytes
  5589 ;; Hardware stack levels used: 1
  5590 ;; Hardware stack levels required when called: 3
  5591 ;; This function calls:
  5592 ;;		_LCD_write_data
  5593 ;; This function is called by:
  5594 ;;		_welcome_splash
  5595 ;;		_display_mm
  5596 ;;		_parsing_notif
  5597 ;;		_clear_parsing_notif
  5598 ;;		_print_RPM
  5599 ;;		_print_Vbatt
  5600 ;;		_print_AI_Temp
  5601 ;;		_print_ELMVer
  5602 ;;		_print_SAEVer
  5603 ;;		_display_system_info
  5604 ;;		_clear_diagnostic_codes
  5605 ;; This function uses a non-reentrant model
  5606 ;;
  5607                           
  5608                           	psect	text30
  5609   001386                     __ptext30:
  5610                           	callstack 0
  5611   001386                     _LCD_write_string:
  5612                           	callstack 26
  5613   001386                     
  5614                           ;LCD.c: 365:     for(uint8_t i=0 ; string[i] != '\0' ; i++){
  5615   001386  6A0A               	clrf	LCD_write_string@i^0,c
  5616   001388  EFE0  F009         	goto	l2442
  5617   00138C                     l2438:
  5618                           
  5619                           ;LCD.c: 366:         LCD_write_data(string[i]);
  5620   00138C  500A               	movf	LCD_write_string@i^0,w,c
  5621   00138E  2406               	addwf	LCD_write_string@string^0,w,c
  5622   001390  6E08               	movwf	??_LCD_write_string^0,c
  5623   001392  0E00               	movlw	0
  5624   001394  2007               	addwfc	(LCD_write_string@string+1)^0,w,c
  5625   001396  6E09               	movwf	(??_LCD_write_string+1)^0,c
  5626   001398  C008  FFF6         	movff	??_LCD_write_string,tblptrl
  5627   00139C  C009  FFF7         	movff	??_LCD_write_string+1,tblptrh
  5628   0013A0  0E00               	movlw	low (__mediumconst shr (0+16))
  5629   0013A2  6EF8               	movwf	tblptru,c
  5630   0013A4  0E0F               	movlw	(high __ramtop+-1)
  5631   0013A6  64F7               	cpfsgt	tblptrh,c
  5632   0013A8  D003               	bra	u1487
  5633   0013AA  0008               	tblrd		*
  5634   0013AC  50F5               	movf	tablat,w,c
  5635   0013AE  D005               	bra	u1480
  5636   0013B0                     u1487:
  5637   0013B0  CFF6 FFE9          	movff	tblptrl,fsr0l
  5638   0013B4  CFF7 FFEA          	movff	tblptrh,fsr0h
  5639   0013B8  50EF               	movf	indf0,w,c
  5640   0013BA                     u1480:
  5641   0013BA  EC89  F006         	call	_LCD_write_data
  5642   0013BE                     
  5643                           ;LCD.c: 367:     }
  5644   0013BE  2A0A               	incf	LCD_write_string@i^0,f,c
  5645   0013C0                     l2442:
  5646   0013C0  500A               	movf	LCD_write_string@i^0,w,c
  5647   0013C2  2406               	addwf	LCD_write_string@string^0,w,c
  5648   0013C4  6E08               	movwf	??_LCD_write_string^0,c
  5649   0013C6  0E00               	movlw	0
  5650   0013C8  2007               	addwfc	(LCD_write_string@string+1)^0,w,c
  5651   0013CA  6E09               	movwf	(??_LCD_write_string+1)^0,c
  5652   0013CC  C008  FFF6         	movff	??_LCD_write_string,tblptrl
  5653   0013D0  C009  FFF7         	movff	??_LCD_write_string+1,tblptrh
  5654   0013D4  0E00               	movlw	low (__mediumconst shr (0+16))
  5655   0013D6  6EF8               	movwf	tblptru,c
  5656   0013D8  0E0F               	movlw	(high __ramtop+-1)
  5657   0013DA  64F7               	cpfsgt	tblptrh,c
  5658   0013DC  D003               	bra	u1497
  5659   0013DE  0008               	tblrd		*
  5660   0013E0  50F5               	movf	tablat,w,c
  5661   0013E2  D005               	bra	u1490
  5662   0013E4                     u1497:
  5663   0013E4  CFF6 FFE9          	movff	tblptrl,fsr0l
  5664   0013E8  CFF7 FFEA          	movff	tblptrh,fsr0h
  5665   0013EC  50EF               	movf	indf0,w,c
  5666   0013EE                     u1490:
  5667   0013EE  0900               	iorlw	0
  5668   0013F0  A4D8               	btfss	status,2,c
  5669   0013F2  EFFD  F009         	goto	u1501
  5670   0013F6  EFFF  F009         	goto	u1500
  5671   0013FA                     u1501:
  5672   0013FA  EFC6  F009         	goto	l2438
  5673   0013FE                     u1500:
  5674   0013FE  0012               	return		;funcret
  5675   001400                     __end_of_LCD_write_string:
  5676                           	callstack 0
  5677                           
  5678 ;; *************** function _LCD_write_data *****************
  5679 ;; Defined at:
  5680 ;;		line 74 in file "LCD.c"
  5681 ;; Parameters:    Size  Location     Type
  5682 ;;  data            1    wreg     unsigned char 
  5683 ;; Auto vars:     Size  Location     Type
  5684 ;;  data            1    4[COMRAM] unsigned char 
  5685 ;; Return value:  Size  Location     Type
  5686 ;;                  1    wreg      void 
  5687 ;; Registers used:
  5688 ;;		wreg, status,2, status,0, cstack
  5689 ;; Tracked objects:
  5690 ;;		On entry : 0/0
  5691 ;;		On exit  : 0/0
  5692 ;;		Unchanged: 0/0
  5693 ;; Data sizes:     COMRAM   BANK0   BANK1   BANK2   BANK3   BANK4   BANK5   BANK6   BANK7   BANK8   BANK9  BANK10  BANK1
      +1  BANK12  BANK13  BANK14  BANK15
  5694 ;;      Params:         0       0       0       0       0       0       0       0       0       0       0       0       
      +0       0       0       0       0
  5695 ;;      Locals:         1       0       0       0       0       0       0       0       0       0       0       0       
      +0       0       0       0       0
  5696 ;;      Temps:          2       0       0       0       0       0       0       0       0       0       0       0       
      +0       0       0       0       0
  5697 ;;      Totals:         3       0       0       0       0       0       0       0       0       0       0       0       
      +0       0       0       0       0
  5698 ;;Total ram usage:        3 bytes
  5699 ;; Hardware stack levels used: 1
  5700 ;; Hardware stack levels required when called: 2
  5701 ;; This function calls:
  5702 ;;		_LCD_pulse_clock
  5703 ;; This function is called by:
  5704 ;;		_LCD_write_string
  5705 ;;		_LCD_write_variable
  5706 ;;		_LCD_add_character
  5707 ;;		_LCD_write_char
  5708 ;;		_LCD_write_float
  5709 ;; This function uses a non-reentrant model
  5710 ;;
  5711                           
  5712                           	psect	text31
  5713   000D12                     __ptext31:
  5714                           	callstack 0
  5715   000D12                     _LCD_write_data:
  5716                           	callstack 26
  5717                           
  5718                           ;incstack = 0
  5719                           ;LCD_write_data@data stored from wreg
  5720   000D12  6E05               	movwf	LCD_write_data@data^0,c
  5721   000D14                     
  5722                           ;LCD.c: 76:     LATDbits.LATD2 = 1;
  5723   000D14  848C               	bsf	140,2,c	;volatile
  5724   000D16                     
  5725                           ;LCD.c: 79:     LATDbits.LATD7 = (data & 0b10000000) >> 7;
  5726   000D16  6A03               	clrf	??_LCD_write_data^0,c
  5727   000D18  AE05               	btfss	LCD_write_data@data^0,7,c
  5728   000D1A  D001               	bra	u1355
  5729   000D1C  2A03               	incf	??_LCD_write_data^0,f,c
  5730   000D1E                     u1355:
  5731   000D1E  0E01               	movlw	1
  5732   000D20  1603               	andwf	??_LCD_write_data^0,f,c
  5733   000D22  3203               	rrcf	??_LCD_write_data^0,f,c
  5734   000D24  3203               	rrcf	??_LCD_write_data^0,f,c
  5735   000D26  508C               	movf	140,w,c	;volatile
  5736   000D28  1803               	xorwf	??_LCD_write_data^0,w,c
  5737   000D2A  0B7F               	andlw	-129
  5738   000D2C  1803               	xorwf	??_LCD_write_data^0,w,c
  5739   000D2E  6E8C               	movwf	140,c	;volatile
  5740                           
  5741                           ;LCD.c: 80:     LATDbits.LATD6 = (data & 0b01000000) >> 6;
  5742   000D30  C005  F003         	movff	LCD_write_data@data,??_LCD_write_data
  5743   000D34  0E06               	movlw	6
  5744   000D36  6E04               	movwf	(??_LCD_write_data+1)^0,c
  5745   000D38                     u1365:
  5746   000D38  90D8               	bcf	status,0,c
  5747   000D3A  3203               	rrcf	??_LCD_write_data^0,f,c
  5748   000D3C  2E04               	decfsz	(??_LCD_write_data+1)^0,f,c
  5749   000D3E  EF9C  F006         	goto	u1365
  5750   000D42  0E01               	movlw	1
  5751   000D44  1603               	andwf	??_LCD_write_data^0,f,c
  5752   000D46  3A03               	swapf	??_LCD_write_data^0,f,c
  5753   000D48  4603               	rlncf	??_LCD_write_data^0,f,c
  5754   000D4A  4603               	rlncf	??_LCD_write_data^0,f,c
  5755   000D4C  508C               	movf	140,w,c	;volatile
  5756   000D4E  1803               	xorwf	??_LCD_write_data^0,w,c
  5757   000D50  0BBF               	andlw	-65
  5758   000D52  1803               	xorwf	??_LCD_write_data^0,w,c
  5759   000D54  6E8C               	movwf	140,c	;volatile
  5760                           
  5761                           ;LCD.c: 81:     LATDbits.LATD5 = (data & 0b00100000) >> 5;
  5762   000D56  C005  F003         	movff	LCD_write_data@data,??_LCD_write_data
  5763   000D5A  0E05               	movlw	5
  5764   000D5C  6E04               	movwf	(??_LCD_write_data+1)^0,c
  5765   000D5E                     u1375:
  5766   000D5E  90D8               	bcf	status,0,c
  5767   000D60  3203               	rrcf	??_LCD_write_data^0,f,c
  5768   000D62  2E04               	decfsz	(??_LCD_write_data+1)^0,f,c
  5769   000D64  EFAF  F006         	goto	u1375
  5770   000D68  0E01               	movlw	1
  5771   000D6A  1603               	andwf	??_LCD_write_data^0,f,c
  5772   000D6C  3A03               	swapf	??_LCD_write_data^0,f,c
  5773   000D6E  4603               	rlncf	??_LCD_write_data^0,f,c
  5774   000D70  508C               	movf	140,w,c	;volatile
  5775   000D72  1803               	xorwf	??_LCD_write_data^0,w,c
  5776   000D74  0BDF               	andlw	-33
  5777   000D76  1803               	xorwf	??_LCD_write_data^0,w,c
  5778   000D78  6E8C               	movwf	140,c	;volatile
  5779                           
  5780                           ;LCD.c: 82:     LATDbits.LATD4 = (data & 0b00010000) >> 4;
  5781   000D7A  C005  F003         	movff	LCD_write_data@data,??_LCD_write_data
  5782   000D7E  3A03               	swapf	??_LCD_write_data^0,f,c
  5783   000D80  0E0F               	movlw	15
  5784   000D82  1603               	andwf	??_LCD_write_data^0,f,c
  5785   000D84  0E01               	movlw	1
  5786   000D86  1603               	andwf	??_LCD_write_data^0,f,c
  5787   000D88  3A03               	swapf	??_LCD_write_data^0,f,c
  5788   000D8A  508C               	movf	140,w,c	;volatile
  5789   000D8C  1803               	xorwf	??_LCD_write_data^0,w,c
  5790   000D8E  0BEF               	andlw	-17
  5791   000D90  1803               	xorwf	??_LCD_write_data^0,w,c
  5792   000D92  6E8C               	movwf	140,c	;volatile
  5793   000D94                     
  5794                           ;LCD.c: 85:     LCD_pulse_clock();
  5795   000D94  EC7C  F00C         	call	_LCD_pulse_clock	;wreg free
  5796   000D98                     
  5797                           ;LCD.c: 88:     LATDbits.LATD7 = (data & 0b00001000) >> 3;
  5798   000D98  C005  F003         	movff	LCD_write_data@data,??_LCD_write_data
  5799   000D9C  90D8               	bcf	status,0,c
  5800   000D9E  3203               	rrcf	??_LCD_write_data^0,f,c
  5801   000DA0  90D8               	bcf	status,0,c
  5802   000DA2  3203               	rrcf	??_LCD_write_data^0,f,c
  5803   000DA4  90D8               	bcf	status,0,c
  5804   000DA6  3203               	rrcf	??_LCD_write_data^0,f,c
  5805   000DA8  0E01               	movlw	1
  5806   000DAA  1603               	andwf	??_LCD_write_data^0,f,c
  5807   000DAC  3203               	rrcf	??_LCD_write_data^0,f,c
  5808   000DAE  3203               	rrcf	??_LCD_write_data^0,f,c
  5809   000DB0  508C               	movf	140,w,c	;volatile
  5810   000DB2  1803               	xorwf	??_LCD_write_data^0,w,c
  5811   000DB4  0B7F               	andlw	-129
  5812   000DB6  1803               	xorwf	??_LCD_write_data^0,w,c
  5813   000DB8  6E8C               	movwf	140,c	;volatile
  5814   000DBA                     
  5815                           ;LCD.c: 89:     LATDbits.LATD6 = (data & 0b00000100) >> 2;
  5816   000DBA  C005  F003         	movff	LCD_write_data@data,??_LCD_write_data
  5817   000DBE  90D8               	bcf	status,0,c
  5818   000DC0  3203               	rrcf	??_LCD_write_data^0,f,c
  5819   000DC2  90D8               	bcf	status,0,c
  5820   000DC4  3203               	rrcf	??_LCD_write_data^0,f,c
  5821   000DC6  0E01               	movlw	1
  5822   000DC8  1603               	andwf	??_LCD_write_data^0,f,c
  5823   000DCA  3A03               	swapf	??_LCD_write_data^0,f,c
  5824   000DCC  4603               	rlncf	??_LCD_write_data^0,f,c
  5825   000DCE  4603               	rlncf	??_LCD_write_data^0,f,c
  5826   000DD0  508C               	movf	140,w,c	;volatile
  5827   000DD2  1803               	xorwf	??_LCD_write_data^0,w,c
  5828   000DD4  0BBF               	andlw	-65
  5829   000DD6  1803               	xorwf	??_LCD_write_data^0,w,c
  5830   000DD8  6E8C               	movwf	140,c	;volatile
  5831   000DDA                     
  5832                           ;LCD.c: 90:     LATDbits.LATD5 = (data & 0b00000010) >> 1;
  5833   000DDA  C005  F003         	movff	LCD_write_data@data,??_LCD_write_data
  5834   000DDE  90D8               	bcf	status,0,c
  5835   000DE0  3203               	rrcf	??_LCD_write_data^0,f,c
  5836   000DE2  0E01               	movlw	1
  5837   000DE4  1603               	andwf	??_LCD_write_data^0,f,c
  5838   000DE6  3A03               	swapf	??_LCD_write_data^0,f,c
  5839   000DE8  4603               	rlncf	??_LCD_write_data^0,f,c
  5840   000DEA  508C               	movf	140,w,c	;volatile
  5841   000DEC  1803               	xorwf	??_LCD_write_data^0,w,c
  5842   000DEE  0BDF               	andlw	-33
  5843   000DF0  1803               	xorwf	??_LCD_write_data^0,w,c
  5844   000DF2  6E8C               	movwf	140,c	;volatile
  5845   000DF4                     
  5846                           ;LCD.c: 91:     LATDbits.LATD4 = (data & 0b00000001) ;
  5847   000DF4  C005  F003         	movff	LCD_write_data@data,??_LCD_write_data
  5848   000DF8  0E01               	movlw	1
  5849   000DFA  1603               	andwf	??_LCD_write_data^0,f,c
  5850   000DFC  3A03               	swapf	??_LCD_write_data^0,f,c
  5851   000DFE  508C               	movf	140,w,c	;volatile
  5852   000E00  1803               	xorwf	??_LCD_write_data^0,w,c
  5853   000E02  0BEF               	andlw	-17
  5854   000E04  1803               	xorwf	??_LCD_write_data^0,w,c
  5855   000E06  6E8C               	movwf	140,c	;volatile
  5856   000E08                     
  5857                           ;LCD.c: 94:     LCD_pulse_clock();
  5858   000E08  EC7C  F00C         	call	_LCD_pulse_clock	;wreg free
  5859   000E0C  0012               	return		;funcret
  5860   000E0E                     __end_of_LCD_write_data:
  5861                           	callstack 0
  5862                           
  5863 ;; *************** function _LCD_cursor_set *****************
  5864 ;; Defined at:
  5865 ;;		line 159 in file "LCD.c"
  5866 ;; Parameters:    Size  Location     Type
  5867 ;;  row             1    wreg     unsigned char 
  5868 ;;  column          1    5[COMRAM] unsigned char 
  5869 ;; Auto vars:     Size  Location     Type
  5870 ;;  row             1    6[COMRAM] unsigned char 
  5871 ;; Return value:  Size  Location     Type
  5872 ;;                  1    wreg      void 
  5873 ;; Registers used:
  5874 ;;		wreg, status,2, status,0, cstack
  5875 ;; Tracked objects:
  5876 ;;		On entry : 0/0
  5877 ;;		On exit  : 0/0
  5878 ;;		Unchanged: 0/0
  5879 ;; Data sizes:     COMRAM   BANK0   BANK1   BANK2   BANK3   BANK4   BANK5   BANK6   BANK7   BANK8   BANK9  BANK10  BANK1
      +1  BANK12  BANK13  BANK14  BANK15
  5880 ;;      Params:         1       0       0       0       0       0       0       0       0       0       0       0       
      +0       0       0       0       0
  5881 ;;      Locals:         1       0       0       0       0       0       0       0       0       0       0       0       
      +0       0       0       0       0
  5882 ;;      Temps:          0       0       0       0       0       0       0       0       0       0       0       0       
      +0       0       0       0       0
  5883 ;;      Totals:         2       0       0       0       0       0       0       0       0       0       0       0       
      +0       0       0       0       0
  5884 ;;Total ram usage:        2 bytes
  5885 ;; Hardware stack levels used: 1
  5886 ;; Hardware stack levels required when called: 3
  5887 ;; This function calls:
  5888 ;;		_LCD_write_command
  5889 ;; This function is called by:
  5890 ;;		_welcome_splash
  5891 ;;		_display_mm
  5892 ;;		_parsing_notif
  5893 ;;		_clear_parsing_notif
  5894 ;;		_main_menu
  5895 ;;		_print_RPM
  5896 ;;		_print_Vbatt
  5897 ;;		_print_AI_Temp
  5898 ;;		_print_ELMVer
  5899 ;;		_print_SAEVer
  5900 ;;		_display_system_info
  5901 ;;		_clear_diagnostic_codes
  5902 ;;		_LCD_add_character
  5903 ;; This function uses a non-reentrant model
  5904 ;;
  5905                           
  5906                           	psect	text32
  5907   0015A6                     __ptext32:
  5908                           	callstack 0
  5909   0015A6                     _LCD_cursor_set:
  5910                           	callstack 26
  5911                           
  5912                           ;incstack = 0
  5913                           ;LCD_cursor_set@row stored from wreg
  5914   0015A6  6E07               	movwf	LCD_cursor_set@row^0,c
  5915   0015A8                     
  5916                           ;LCD.c: 162:     if(row == 1) column += (0x80-1);
  5917   0015A8  0407               	decf	LCD_cursor_set@row^0,w,c
  5918   0015AA  A4D8               	btfss	status,2,c
  5919   0015AC  EFDA  F00A         	goto	u1441
  5920   0015B0  EFDC  F00A         	goto	u1440
  5921   0015B4                     u1441:
  5922   0015B4  EFDE  F00A         	goto	l346
  5923   0015B8                     u1440:
  5924   0015B8  0E7F               	movlw	127
  5925   0015BA  2606               	addwf	LCD_cursor_set@column^0,f,c
  5926   0015BC                     l346:
  5927                           
  5928                           ;LCD.c: 163:     if(row == 2) column += (0xC0-1);
  5929   0015BC  0E02               	movlw	2
  5930   0015BE  1807               	xorwf	LCD_cursor_set@row^0,w,c
  5931   0015C0  A4D8               	btfss	status,2,c
  5932   0015C2  EFE5  F00A         	goto	u1451
  5933   0015C6  EFE7  F00A         	goto	u1450
  5934   0015CA                     u1451:
  5935   0015CA  EFE9  F00A         	goto	l347
  5936   0015CE                     u1450:
  5937   0015CE  0EBF               	movlw	191
  5938   0015D0  2606               	addwf	LCD_cursor_set@column^0,f,c
  5939   0015D2                     l347:
  5940                           
  5941                           ;LCD.c: 164:     if(row == 3) column += (0x80+19);
  5942   0015D2  0E03               	movlw	3
  5943   0015D4  1807               	xorwf	LCD_cursor_set@row^0,w,c
  5944   0015D6  A4D8               	btfss	status,2,c
  5945   0015D8  EFF0  F00A         	goto	u1461
  5946   0015DC  EFF2  F00A         	goto	u1460
  5947   0015E0                     u1461:
  5948   0015E0  EFF4  F00A         	goto	l348
  5949   0015E4                     u1460:
  5950   0015E4  0E93               	movlw	147
  5951   0015E6  2606               	addwf	LCD_cursor_set@column^0,f,c
  5952   0015E8                     l348:
  5953                           
  5954                           ;LCD.c: 165:     if(row == 4) column += (0xC0+19);
  5955   0015E8  0E04               	movlw	4
  5956   0015EA  1807               	xorwf	LCD_cursor_set@row^0,w,c
  5957   0015EC  A4D8               	btfss	status,2,c
  5958   0015EE  EFFB  F00A         	goto	u1471
  5959   0015F2  EFFD  F00A         	goto	u1470
  5960   0015F6                     u1471:
  5961   0015F6  EFFF  F00A         	goto	l2434
  5962   0015FA                     u1470:
  5963   0015FA  0ED3               	movlw	211
  5964   0015FC  2606               	addwf	LCD_cursor_set@column^0,f,c
  5965   0015FE                     l2434:
  5966                           
  5967                           ;LCD.c: 168:    LCD_write_command(column);
  5968   0015FE  5006               	movf	LCD_cursor_set@column^0,w,c
  5969   001600  EC07  F007         	call	_LCD_write_command
  5970   001604  0012               	return		;funcret
  5971   001606                     __end_of_LCD_cursor_set:
  5972                           	callstack 0
  5973                           
  5974 ;; *************** function _UART1_SendString *****************
  5975 ;; Defined at:
  5976 ;;		line 178 in file "OBCII_PIC18F46K22.c"
  5977 ;; Parameters:    Size  Location     Type
  5978 ;;  string          2    3[COMRAM] PTR unsigned char 
  5979 ;;		 -> STR_34(4), STR_28(6), STR_26(5), STR_21(6), 
  5980 ;;		 -> STR_17(6), STR_13(6), STR_8(6), STR_6(5), 
  5981 ;;		 -> STR_4(5), STR_1(6), 
  5982 ;; Auto vars:     Size  Location     Type
  5983 ;;  i               2    7[COMRAM] unsigned int 
  5984 ;; Return value:  Size  Location     Type
  5985 ;;                  1    wreg      void 
  5986 ;; Registers used:
  5987 ;;		wreg, status,2, status,0, tblptrl, tblptrh, tblptru, cstack
  5988 ;; Tracked objects:
  5989 ;;		On entry : 0/0
  5990 ;;		On exit  : 0/0
  5991 ;;		Unchanged: 0/0
  5992 ;; Data sizes:     COMRAM   BANK0   BANK1   BANK2   BANK3   BANK4   BANK5   BANK6   BANK7   BANK8   BANK9  BANK10  BANK1
      +1  BANK12  BANK13  BANK14  BANK15
  5993 ;;      Params:         2       0       0       0       0       0       0       0       0       0       0       0       
      +0       0       0       0       0
  5994 ;;      Locals:         2       0       0       0       0       0       0       0       0       0       0       0       
      +0       0       0       0       0
  5995 ;;      Temps:          2       0       0       0       0       0       0       0       0       0       0       0       
      +0       0       0       0       0
  5996 ;;      Totals:         6       0       0       0       0       0       0       0       0       0       0       0       
      +0       0       0       0       0
  5997 ;;Total ram usage:        6 bytes
  5998 ;; Hardware stack levels used: 1
  5999 ;; Hardware stack levels required when called: 2
  6000 ;; This function calls:
  6001 ;;		_UART1_SendChar
  6002 ;; This function is called by:
  6003 ;;		_main
  6004 ;;		_welcome_splash
  6005 ;;		_print_RPM
  6006 ;;		_print_Vbatt
  6007 ;;		_print_AI_Temp
  6008 ;;		_print_ELMVer
  6009 ;;		_print_SAEVer
  6010 ;;		_clear_diagnostic_codes
  6011 ;; This function uses a non-reentrant model
  6012 ;;
  6013                           
  6014                           	psect	text33
  6015   001606                     __ptext33:
  6016                           	callstack 0
  6017   001606                     _UART1_SendString:
  6018                           	callstack 27
  6019   001606                     
  6020                           ;OBCII_PIC18F46K22.c: 179:     for (unsigned int i = 0; string[i] != '\0'; i++){
  6021   001606  0E00               	movlw	0
  6022   001608  6E09               	movwf	(UART1_SendString@i+1)^0,c
  6023   00160A  0E00               	movlw	0
  6024   00160C  6E08               	movwf	UART1_SendString@i^0,c
  6025   00160E  EF19  F00B         	goto	l2466
  6026   001612                     l2462:
  6027                           
  6028                           ;OBCII_PIC18F46K22.c: 180:         UART1_SendChar(string[i]);
  6029   001612  5008               	movf	UART1_SendString@i^0,w,c
  6030   001614  2404               	addwf	UART1_SendString@string^0,w,c
  6031   001616  6E06               	movwf	??_UART1_SendString^0,c
  6032   001618  5009               	movf	(UART1_SendString@i+1)^0,w,c
  6033   00161A  2005               	addwfc	(UART1_SendString@string+1)^0,w,c
  6034   00161C  6E07               	movwf	(??_UART1_SendString+1)^0,c
  6035   00161E  C006  FFF6         	movff	??_UART1_SendString,tblptrl
  6036   001622  C007  FFF7         	movff	??_UART1_SendString+1,tblptrh
  6037   001626                     	if	0	;tblptru may be non-zero
  6038   001626                     	endif
  6039   001626                     	if	0	;tblptru may be non-zero
  6040   001626                     	endif
  6041   001626  0008               	tblrd		*
  6042   001628  50F5               	movf	tablat,w,c
  6043   00162A  EC58  F00C         	call	_UART1_SendChar
  6044   00162E                     
  6045                           ;OBCII_PIC18F46K22.c: 181:     }
  6046   00162E  4A08               	infsnz	UART1_SendString@i^0,f,c
  6047   001630  2A09               	incf	(UART1_SendString@i+1)^0,f,c
  6048   001632                     l2466:
  6049   001632  5008               	movf	UART1_SendString@i^0,w,c
  6050   001634  2404               	addwf	UART1_SendString@string^0,w,c
  6051   001636  6E06               	movwf	??_UART1_SendString^0,c
  6052   001638  5009               	movf	(UART1_SendString@i+1)^0,w,c
  6053   00163A  2005               	addwfc	(UART1_SendString@string+1)^0,w,c
  6054   00163C  6E07               	movwf	(??_UART1_SendString+1)^0,c
  6055   00163E  C006  FFF6         	movff	??_UART1_SendString,tblptrl
  6056   001642  C007  FFF7         	movff	??_UART1_SendString+1,tblptrh
  6057   001646                     	if	0	;tblptru may be non-zero
  6058   001646                     	endif
  6059   001646                     	if	0	;tblptru may be non-zero
  6060   001646                     	endif
  6061   001646  0008               	tblrd		*
  6062   001648  50F5               	movf	tablat,w,c
  6063   00164A  0900               	iorlw	0
  6064   00164C  A4D8               	btfss	status,2,c
  6065   00164E  EF2B  F00B         	goto	u1521
  6066   001652  EF2D  F00B         	goto	u1520
  6067   001656                     u1521:
  6068   001656  EF09  F00B         	goto	l2462
  6069   00165A                     u1520:
  6070   00165A  0012               	return		;funcret
  6071   00165C                     __end_of_UART1_SendString:
  6072                           	callstack 0
  6073                           
  6074 ;; *************** function _UART1_SendChar *****************
  6075 ;; Defined at:
  6076 ;;		line 184 in file "OBCII_PIC18F46K22.c"
  6077 ;; Parameters:    Size  Location     Type
  6078 ;;  c               1    wreg     unsigned char 
  6079 ;; Auto vars:     Size  Location     Type
  6080 ;;  c               1    2[COMRAM] unsigned char 
  6081 ;; Return value:  Size  Location     Type
  6082 ;;                  1    wreg      void 
  6083 ;; Registers used:
  6084 ;;		wreg
  6085 ;; Tracked objects:
  6086 ;;		On entry : 0/0
  6087 ;;		On exit  : 0/0
  6088 ;;		Unchanged: 0/0
  6089 ;; Data sizes:     COMRAM   BANK0   BANK1   BANK2   BANK3   BANK4   BANK5   BANK6   BANK7   BANK8   BANK9  BANK10  BANK1
      +1  BANK12  BANK13  BANK14  BANK15
  6090 ;;      Params:         0       0       0       0       0       0       0       0       0       0       0       0       
      +0       0       0       0       0
  6091 ;;      Locals:         1       0       0       0       0       0       0       0       0       0       0       0       
      +0       0       0       0       0
  6092 ;;      Temps:          0       0       0       0       0       0       0       0       0       0       0       0       
      +0       0       0       0       0
  6093 ;;      Totals:         1       0       0       0       0       0       0       0       0       0       0       0       
      +0       0       0       0       0
  6094 ;;Total ram usage:        1 bytes
  6095 ;; Hardware stack levels used: 1
  6096 ;; Hardware stack levels required when called: 1
  6097 ;; This function calls:
  6098 ;;		Nothing
  6099 ;; This function is called by:
  6100 ;;		_UART1_SendString
  6101 ;; This function uses a non-reentrant model
  6102 ;;
  6103                           
  6104                           	psect	text34
  6105   0018B0                     __ptext34:
  6106                           	callstack 0
  6107   0018B0                     _UART1_SendChar:
  6108                           	callstack 27
  6109                           
  6110                           ;incstack = 0
  6111                           ;UART1_SendChar@c stored from wreg
  6112   0018B0  6E03               	movwf	UART1_SendChar@c^0,c
  6113   0018B2                     l165:
  6114   0018B2  A2AC               	btfss	172,1,c	;volatile
  6115   0018B4  EF5E  F00C         	goto	u1431
  6116   0018B8  EF60  F00C         	goto	u1430
  6117   0018BC                     u1431:
  6118   0018BC  EF59  F00C         	goto	l165
  6119   0018C0                     u1430:
  6120   0018C0                     
  6121                           ;OBCII_PIC18F46K22.c: 186:         TXREG = c;
  6122   0018C0  C003  FFAD         	movff	UART1_SendChar@c,4013	;volatile
  6123   0018C4  0012               	return		;funcret
  6124   0018C6                     __end_of_UART1_SendChar:
  6125                           	callstack 0
  6126                           
  6127 ;; *************** function _LCD_configure_cursor_blink *****************
  6128 ;; Defined at:
  6129 ;;		line 231 in file "LCD.c"
  6130 ;; Parameters:    Size  Location     Type
  6131 ;;  state           1    wreg     unsigned char 
  6132 ;; Auto vars:     Size  Location     Type
  6133 ;;  state           1    5[COMRAM] unsigned char 
  6134 ;; Return value:  Size  Location     Type
  6135 ;;                  1    wreg      void 
  6136 ;; Registers used:
  6137 ;;		wreg, status,2, status,0, cstack
  6138 ;; Tracked objects:
  6139 ;;		On entry : 0/0
  6140 ;;		On exit  : 0/0
  6141 ;;		Unchanged: 0/0
  6142 ;; Data sizes:     COMRAM   BANK0   BANK1   BANK2   BANK3   BANK4   BANK5   BANK6   BANK7   BANK8   BANK9  BANK10  BANK1
      +1  BANK12  BANK13  BANK14  BANK15
  6143 ;;      Params:         0       0       0       0       0       0       0       0       0       0       0       0       
      +0       0       0       0       0
  6144 ;;      Locals:         1       0       0       0       0       0       0       0       0       0       0       0       
      +0       0       0       0       0
  6145 ;;      Temps:          0       0       0       0       0       0       0       0       0       0       0       0       
      +0       0       0       0       0
  6146 ;;      Totals:         1       0       0       0       0       0       0       0       0       0       0       0       
      +0       0       0       0       0
  6147 ;;Total ram usage:        1 bytes
  6148 ;; Hardware stack levels used: 1
  6149 ;; Hardware stack levels required when called: 3
  6150 ;; This function calls:
  6151 ;;		_LCD_write_command
  6152 ;; This function is called by:
  6153 ;;		_main_menu
  6154 ;;		_clear_diagnostic_codes
  6155 ;; This function uses a non-reentrant model
  6156 ;;
  6157                           
  6158                           	psect	text35
  6159   001842                     __ptext35:
  6160                           	callstack 0
  6161   001842                     _LCD_configure_cursor_blink:
  6162                           	callstack 25
  6163                           
  6164                           ;incstack = 0
  6165                           ;LCD_configure_cursor_blink@state stored from wreg
  6166   001842  6E06               	movwf	LCD_configure_cursor_blink@state^0,c
  6167   001844                     
  6168                           ;LCD.c: 234:     if(state){
  6169   001844  5006               	movf	LCD_configure_cursor_blink@state^0,w,c
  6170   001846  B4D8               	btfsc	status,2,c
  6171   001848  EF28  F00C         	goto	u1621
  6172   00184C  EF2A  F00C         	goto	u1620
  6173   001850                     u1621:
  6174   001850  EF2D  F00C         	goto	l2546
  6175   001854                     u1620:
  6176   001854                     
  6177                           ;LCD.c: 235:         LCD_display_control |= 0b00000001;
  6178   001854  8052               	bsf	_LCD_display_control^0,0,c
  6179                           
  6180                           ;LCD.c: 236:     }
  6181   001856  EF2E  F00C         	goto	l2548
  6182   00185A                     l2546:
  6183                           
  6184                           ;LCD.c: 238:         LCD_display_control &= 0b11111110;
  6185   00185A  9052               	bcf	_LCD_display_control^0,0,c
  6186   00185C                     l2548:
  6187                           
  6188                           ;LCD.c: 242:     LCD_write_command(LCD_display_control);
  6189   00185C  5052               	movf	_LCD_display_control^0,w,c
  6190   00185E  EC07  F007         	call	_LCD_write_command
  6191   001862  0012               	return		;funcret
  6192   001864                     __end_of_LCD_configure_cursor_blink:
  6193                           	callstack 0
  6194                           
  6195 ;; *************** function _input_init *****************
  6196 ;; Defined at:
  6197 ;;		line 94 in file "OBCII_PIC18F46K22.c"
  6198 ;; Parameters:    Size  Location     Type
  6199 ;;		None
  6200 ;; Auto vars:     Size  Location     Type
  6201 ;;		None
  6202 ;; Return value:  Size  Location     Type
  6203 ;;                  1    wreg      void 
  6204 ;; Registers used:
  6205 ;;		None
  6206 ;; Tracked objects:
  6207 ;;		On entry : 0/0
  6208 ;;		On exit  : 0/0
  6209 ;;		Unchanged: 0/0
  6210 ;; Data sizes:     COMRAM   BANK0   BANK1   BANK2   BANK3   BANK4   BANK5   BANK6   BANK7   BANK8   BANK9  BANK10  BANK1
      +1  BANK12  BANK13  BANK14  BANK15
  6211 ;;      Params:         0       0       0       0       0       0       0       0       0       0       0       0       
      +0       0       0       0       0
  6212 ;;      Locals:         0       0       0       0       0       0       0       0       0       0       0       0       
      +0       0       0       0       0
  6213 ;;      Temps:          0       0       0       0       0       0       0       0       0       0       0       0       
      +0       0       0       0       0
  6214 ;;      Totals:         0       0       0       0       0       0       0       0       0       0       0       0       
      +0       0       0       0       0
  6215 ;;Total ram usage:        0 bytes
  6216 ;; Hardware stack levels used: 1
  6217 ;; Hardware stack levels required when called: 1
  6218 ;; This function calls:
  6219 ;;		Nothing
  6220 ;; This function is called by:
  6221 ;;		_main
  6222 ;; This function uses a non-reentrant model
  6223 ;;
  6224                           
  6225                           	psect	text36
  6226   0018E8                     __ptext36:
  6227                           	callstack 0
  6228   0018E8                     _input_init:
  6229                           	callstack 29
  6230   0018E8                     
  6231                           ;OBCII_PIC18F46K22.c: 97:     TRISBbits.TRISB4 = 1;
  6232   0018E8  8893               	bsf	147,4,c	;volatile
  6233                           
  6234                           ;OBCII_PIC18F46K22.c: 98:     ANSELBbits.ANSB4 = 0;
  6235   0018EA  010F               	movlb	15	; () banked
  6236   0018EC  9939               	bcf	57,4,b	;volatile
  6237                           
  6238                           ;OBCII_PIC18F46K22.c: 100:     TRISCbits.TRISC5 = 1;
  6239   0018EE  8A94               	bsf	148,5,c	;volatile
  6240                           
  6241                           ;OBCII_PIC18F46K22.c: 101:     ANSELCbits.ANSC5 = 0;
  6242   0018F0  9B3A               	bcf	58,5,b	;volatile
  6243                           
  6244                           ;OBCII_PIC18F46K22.c: 103:     TRISAbits.TRISA0 = 1;
  6245   0018F2  8092               	bsf	146,0,c	;volatile
  6246                           
  6247                           ;OBCII_PIC18F46K22.c: 104:     ANSELAbits.ANSA0 = 1;
  6248   0018F4  8138               	bsf	56,0,b	;volatile
  6249   0018F6                     
  6250                           ; BSR set to: 15
  6251   0018F6  0012               	return		;funcret
  6252   0018F8                     __end_of_input_init:
  6253                           	callstack 0
  6254                           
  6255 ;; *************** function _UART1_Init *****************
  6256 ;; Defined at:
  6257 ;;		line 116 in file "OBCII_PIC18F46K22.c"
  6258 ;; Parameters:    Size  Location     Type
  6259 ;;		None
  6260 ;; Auto vars:     Size  Location     Type
  6261 ;;		None
  6262 ;; Return value:  Size  Location     Type
  6263 ;;                  1    wreg      void 
  6264 ;; Registers used:
  6265 ;;		wreg, status,2
  6266 ;; Tracked objects:
  6267 ;;		On entry : 0/0
  6268 ;;		On exit  : 0/0
  6269 ;;		Unchanged: 0/0
  6270 ;; Data sizes:     COMRAM   BANK0   BANK1   BANK2   BANK3   BANK4   BANK5   BANK6   BANK7   BANK8   BANK9  BANK10  BANK1
      +1  BANK12  BANK13  BANK14  BANK15
  6271 ;;      Params:         0       0       0       0       0       0       0       0       0       0       0       0       
      +0       0       0       0       0
  6272 ;;      Locals:         0       0       0       0       0       0       0       0       0       0       0       0       
      +0       0       0       0       0
  6273 ;;      Temps:          0       0       0       0       0       0       0       0       0       0       0       0       
      +0       0       0       0       0
  6274 ;;      Totals:         0       0       0       0       0       0       0       0       0       0       0       0       
      +0       0       0       0       0
  6275 ;;Total ram usage:        0 bytes
  6276 ;; Hardware stack levels used: 1
  6277 ;; Hardware stack levels required when called: 1
  6278 ;; This function calls:
  6279 ;;		Nothing
  6280 ;; This function is called by:
  6281 ;;		_main
  6282 ;; This function uses a non-reentrant model
  6283 ;;
  6284                           
  6285                           	psect	text37
  6286   0017F0                     __ptext37:
  6287                           	callstack 0
  6288   0017F0                     _UART1_Init:
  6289                           	callstack 29
  6290   0017F0                     
  6291                           ;OBCII_PIC18F46K22.c: 117:     ANSELC = 0;
  6292   0017F0  010F               	movlb	15	; () banked
  6293   0017F2  6B3A               	clrf	58,b	;volatile
  6294                           
  6295                           ;OBCII_PIC18F46K22.c: 120:     TRISCbits.TRISC6 = 0;
  6296   0017F4  9C94               	bcf	148,6,c	;volatile
  6297                           
  6298                           ;OBCII_PIC18F46K22.c: 121:     TRISCbits.TRISC7 = 1;
  6299   0017F6  8E94               	bsf	148,7,c	;volatile
  6300                           
  6301                           ;OBCII_PIC18F46K22.c: 125:     TXSTA1bits.TXEN = 1;
  6302   0017F8  8AAC               	bsf	172,5,c	;volatile
  6303                           
  6304                           ;OBCII_PIC18F46K22.c: 126:     TXSTA1bits.TX9 = 0;
  6305   0017FA  9CAC               	bcf	172,6,c	;volatile
  6306                           
  6307                           ;OBCII_PIC18F46K22.c: 127:     TXSTA1bits.SYNC = 0;
  6308   0017FC  98AC               	bcf	172,4,c	;volatile
  6309                           
  6310                           ;OBCII_PIC18F46K22.c: 130:     TXSTA1bits.BRGH = 1;
  6311   0017FE  84AC               	bsf	172,2,c	;volatile
  6312                           
  6313                           ;OBCII_PIC18F46K22.c: 131:     BAUDCON1bits.BRG16 = 1;
  6314   001800  86B8               	bsf	184,3,c	;volatile
  6315   001802                     
  6316                           ; BSR set to: 15
  6317                           ;OBCII_PIC18F46K22.c: 134:     SPBRGH1 = 0b00000001;
  6318   001802  0E01               	movlw	1
  6319   001804  6EB0               	movwf	176,c	;volatile
  6320                           
  6321                           ;OBCII_PIC18F46K22.c: 135:     SPBRG1 = 0b10100000;
  6322   001806  0EA0               	movlw	160
  6323   001808  6EAF               	movwf	175,c	;volatile
  6324   00180A                     
  6325                           ; BSR set to: 15
  6326                           ;OBCII_PIC18F46K22.c: 138:     BAUDCON1bits.CKTXP = 0;
  6327   00180A  98B8               	bcf	184,4,c	;volatile
  6328   00180C                     
  6329                           ; BSR set to: 15
  6330                           ;OBCII_PIC18F46K22.c: 139:     BAUDCON1bits.DTRXP = 0;
  6331   00180C  9AB8               	bcf	184,5,c	;volatile
  6332   00180E                     
  6333                           ; BSR set to: 15
  6334                           ;OBCII_PIC18F46K22.c: 142:     RCSTA1bits.SPEN = 1;
  6335   00180E  8EAB               	bsf	171,7,c	;volatile
  6336   001810                     
  6337                           ; BSR set to: 15
  6338                           ;OBCII_PIC18F46K22.c: 143:     RCSTA1bits.CREN = 1;
  6339   001810  88AB               	bsf	171,4,c	;volatile
  6340   001812                     
  6341                           ; BSR set to: 15
  6342                           ;OBCII_PIC18F46K22.c: 144:     RCSTA1bits.RX9 = 0;
  6343   001812  9CAB               	bcf	171,6,c	;volatile
  6344   001814                     
  6345                           ; BSR set to: 15
  6346                           ;OBCII_PIC18F46K22.c: 147:     PIE1bits.RC1IE = 1;
  6347   001814  8A9D               	bsf	157,5,c	;volatile
  6348   001816                     
  6349                           ; BSR set to: 15
  6350                           ;OBCII_PIC18F46K22.c: 148:     INTCONbits.PEIE = 1;
  6351   001816  8CF2               	bsf	242,6,c	;volatile
  6352   001818                     
  6353                           ; BSR set to: 15
  6354                           ;OBCII_PIC18F46K22.c: 149:     INTCONbits.GIE = 1;
  6355   001818  8EF2               	bsf	242,7,c	;volatile
  6356   00181A                     
  6357                           ; BSR set to: 15
  6358   00181A  0012               	return		;funcret
  6359   00181C                     __end_of_UART1_Init:
  6360                           	callstack 0
  6361                           
  6362 ;; *************** function _LCD_init *****************
  6363 ;; Defined at:
  6364 ;;		line 106 in file "LCD.c"
  6365 ;; Parameters:    Size  Location     Type
  6366 ;;		None
  6367 ;; Auto vars:     Size  Location     Type
  6368 ;;		None
  6369 ;; Return value:  Size  Location     Type
  6370 ;;                  1    wreg      void 
  6371 ;; Registers used:
  6372 ;;		wreg, status,2, status,0, cstack
  6373 ;; Tracked objects:
  6374 ;;		On entry : 0/0
  6375 ;;		On exit  : 0/0
  6376 ;;		Unchanged: 0/0
  6377 ;; Data sizes:     COMRAM   BANK0   BANK1   BANK2   BANK3   BANK4   BANK5   BANK6   BANK7   BANK8   BANK9  BANK10  BANK1
      +1  BANK12  BANK13  BANK14  BANK15
  6378 ;;      Params:         0       0       0       0       0       0       0       0       0       0       0       0       
      +0       0       0       0       0
  6379 ;;      Locals:         0       0       0       0       0       0       0       0       0       0       0       0       
      +0       0       0       0       0
  6380 ;;      Temps:          2       0       0       0       0       0       0       0       0       0       0       0       
      +0       0       0       0       0
  6381 ;;      Totals:         2       0       0       0       0       0       0       0       0       0       0       0       
      +0       0       0       0       0
  6382 ;;Total ram usage:        2 bytes
  6383 ;; Hardware stack levels used: 1
  6384 ;; Hardware stack levels required when called: 4
  6385 ;; This function calls:
  6386 ;;		_LCD_clear
  6387 ;;		_LCD_pulse_clock
  6388 ;;		_LCD_write_command
  6389 ;; This function is called by:
  6390 ;;		_main
  6391 ;; This function uses a non-reentrant model
  6392 ;;
  6393                           
  6394                           	psect	text38
  6395   00130A                     __ptext38:
  6396                           	callstack 0
  6397   00130A                     _LCD_init:
  6398                           	callstack 26
  6399   00130A                     
  6400                           ;LCD.c: 109:     TRISDbits.TRISD2 = 0; LATDbits.LATD2 = 0;
  6401   00130A  9495               	bcf	149,2,c	;volatile
  6402   00130C  948C               	bcf	140,2,c	;volatile
  6403                           
  6404                           ;LCD.c: 110:     TRISDbits.TRISD3 = 0; LATDbits.LATD3 = 0;
  6405   00130E  9695               	bcf	149,3,c	;volatile
  6406   001310  968C               	bcf	140,3,c	;volatile
  6407                           
  6408                           ;LCD.c: 111:     TRISDbits.TRISD4 = 0; LATDbits.LATD4 = 0;
  6409   001312  9895               	bcf	149,4,c	;volatile
  6410   001314  988C               	bcf	140,4,c	;volatile
  6411                           
  6412                           ;LCD.c: 112:     TRISDbits.TRISD5 = 0; LATDbits.LATD5 = 0;
  6413   001316  9A95               	bcf	149,5,c	;volatile
  6414   001318  9A8C               	bcf	140,5,c	;volatile
  6415                           
  6416                           ;LCD.c: 113:     TRISDbits.TRISD6 = 0; LATDbits.LATD6 = 0;
  6417   00131A  9C95               	bcf	149,6,c	;volatile
  6418   00131C  9C8C               	bcf	140,6,c	;volatile
  6419                           
  6420                           ;LCD.c: 114:     TRISDbits.TRISD7 = 0; LATDbits.LATD7 = 0;
  6421   00131E  9E95               	bcf	149,7,c	;volatile
  6422   001320  9E8C               	bcf	140,7,c	;volatile
  6423   001322                     
  6424                           ;LCD.c: 121:     _delay((unsigned long)((60)*(16000000/4000.0)));
  6425   001322  0E02               	movlw	2
  6426   001324  6E08               	movwf	(??_LCD_init+1)^0,c
  6427   001326  0E38               	movlw	56
  6428   001328  6E07               	movwf	??_LCD_init^0,c
  6429   00132A  0EAD               	movlw	173
  6430   00132C                     u2647:
  6431   00132C  2EE8               	decfsz	wreg,f,c
  6432   00132E  D7FE               	bra	u2647
  6433   001330  2E07               	decfsz	??_LCD_init^0,f,c
  6434   001332  D7FC               	bra	u2647
  6435   001334  2E08               	decfsz	(??_LCD_init+1)^0,f,c
  6436   001336  D7FA               	bra	u2647
  6437   001338  0000               	nop	
  6438   00133A                     
  6439                           ;LCD.c: 124:     LATDbits.LATD7 = 0; LATDbits.LATD6 = 0; LATDbits.LATD5 = 1; LATDbits.LA
      +                          TD4 = 1;
  6440   00133A  9E8C               	bcf	140,7,c	;volatile
  6441   00133C  9C8C               	bcf	140,6,c	;volatile
  6442   00133E  8A8C               	bsf	140,5,c	;volatile
  6443   001340  888C               	bsf	140,4,c	;volatile
  6444   001342                     
  6445                           ;LCD.c: 127:     LCD_pulse_clock();
  6446   001342  EC7C  F00C         	call	_LCD_pulse_clock	;wreg free
  6447   001346                     
  6448                           ;LCD.c: 130:     _delay((unsigned long)((6)*(16000000/4000.0)));
  6449   001346  0E20               	movlw	32
  6450   001348  6E07               	movwf	??_LCD_init^0,c
  6451   00134A  0E2A               	movlw	42
  6452   00134C                     u2657:
  6453   00134C  2EE8               	decfsz	wreg,f,c
  6454   00134E  D7FE               	bra	u2657
  6455   001350  2E07               	decfsz	??_LCD_init^0,f,c
  6456   001352  D7FC               	bra	u2657
  6457                           
  6458                           ;LCD.c: 133:     LCD_pulse_clock();
  6459   001354  EC7C  F00C         	call	_LCD_pulse_clock	;wreg free
  6460   001358                     
  6461                           ;LCD.c: 136:     _delay((unsigned long)((150)*(16000000/4000000.0)));
  6462   001358  0EC8               	movlw	200
  6463   00135A                     u2667:
  6464   00135A  2EE8               	decfsz	wreg,f,c
  6465   00135C  D7FE               	bra	u2667
  6466   00135E                     
  6467                           ;LCD.c: 139:     LCD_pulse_clock();
  6468   00135E  EC7C  F00C         	call	_LCD_pulse_clock	;wreg free
  6469   001362                     
  6470                           ;LCD.c: 142:     LATDbits.LATD7 = 0; LATDbits.LATD6 = 0; LATDbits.LATD5 = 1; LATDbits.LA
      +                          TD4 = 0;
  6471   001362  9E8C               	bcf	140,7,c	;volatile
  6472   001364  9C8C               	bcf	140,6,c	;volatile
  6473   001366  8A8C               	bsf	140,5,c	;volatile
  6474   001368  988C               	bcf	140,4,c	;volatile
  6475   00136A                     
  6476                           ;LCD.c: 145:     LCD_pulse_clock();
  6477   00136A  EC7C  F00C         	call	_LCD_pulse_clock	;wreg free
  6478   00136E                     
  6479                           ;LCD.c: 148:     LCD_write_command(0x28);
  6480   00136E  0E28               	movlw	40
  6481   001370  EC07  F007         	call	_LCD_write_command
  6482   001374                     
  6483                           ;LCD.c: 149:     LCD_write_command(LCD_display_control);
  6484   001374  5052               	movf	_LCD_display_control^0,w,c
  6485   001376  EC07  F007         	call	_LCD_write_command
  6486   00137A                     
  6487                           ;LCD.c: 150:     LCD_write_command(LCD_entry_mode);
  6488   00137A  5051               	movf	_LCD_entry_mode^0,w,c
  6489   00137C  EC07  F007         	call	_LCD_write_command
  6490   001380                     
  6491                           ;LCD.c: 151:     LCD_clear();
  6492   001380  EC32  F00C         	call	_LCD_clear	;wreg free
  6493   001384  0012               	return		;funcret
  6494   001386                     __end_of_LCD_init:
  6495                           	callstack 0
  6496                           
  6497 ;; *************** function _LCD_clear *****************
  6498 ;; Defined at:
  6499 ;;		line 248 in file "LCD.c"
  6500 ;; Parameters:    Size  Location     Type
  6501 ;;		None
  6502 ;; Auto vars:     Size  Location     Type
  6503 ;;		None
  6504 ;; Return value:  Size  Location     Type
  6505 ;;                  1    wreg      void 
  6506 ;; Registers used:
  6507 ;;		wreg, status,2, status,0, cstack
  6508 ;; Tracked objects:
  6509 ;;		On entry : 0/0
  6510 ;;		On exit  : 0/0
  6511 ;;		Unchanged: 0/0
  6512 ;; Data sizes:     COMRAM   BANK0   BANK1   BANK2   BANK3   BANK4   BANK5   BANK6   BANK7   BANK8   BANK9  BANK10  BANK1
      +1  BANK12  BANK13  BANK14  BANK15
  6513 ;;      Params:         0       0       0       0       0       0       0       0       0       0       0       0       
      +0       0       0       0       0
  6514 ;;      Locals:         0       0       0       0       0       0       0       0       0       0       0       0       
      +0       0       0       0       0
  6515 ;;      Temps:          1       0       0       0       0       0       0       0       0       0       0       0       
      +0       0       0       0       0
  6516 ;;      Totals:         1       0       0       0       0       0       0       0       0       0       0       0       
      +0       0       0       0       0
  6517 ;;Total ram usage:        1 bytes
  6518 ;; Hardware stack levels used: 1
  6519 ;; Hardware stack levels required when called: 3
  6520 ;; This function calls:
  6521 ;;		_LCD_write_command
  6522 ;; This function is called by:
  6523 ;;		_main
  6524 ;;		_welcome_splash
  6525 ;;		_main_menu
  6526 ;;		_print_RPM
  6527 ;;		_print_Vbatt
  6528 ;;		_print_AI_Temp
  6529 ;;		_print_ELMVer
  6530 ;;		_print_SAEVer
  6531 ;;		_clear_diagnostic_codes
  6532 ;;		_LCD_init
  6533 ;; This function uses a non-reentrant model
  6534 ;;
  6535                           
  6536                           	psect	text39
  6537   001864                     __ptext39:
  6538                           	callstack 0
  6539   001864                     _LCD_clear:
  6540                           	callstack 26
  6541   001864                     
  6542                           ;LCD.c: 251:     LCD_write_command(0x01);
  6543   001864  0E01               	movlw	1
  6544   001866  EC07  F007         	call	_LCD_write_command
  6545   00186A                     
  6546                           ;LCD.c: 254:     _delay((unsigned long)(((2300-60))*(16000000/4000000.0)));
  6547   00186A  0E0C               	movlw	12
  6548   00186C  6E06               	movwf	??_LCD_clear^0,c
  6549   00186E  0EA2               	movlw	162
  6550   001870                     u2677:
  6551   001870  2EE8               	decfsz	wreg,f,c
  6552   001872  D7FE               	bra	u2677
  6553   001874  2E06               	decfsz	??_LCD_clear^0,f,c
  6554   001876  D7FC               	bra	u2677
  6555   001878                     
  6556                           ;LCD.c: 257:     LCD_write_command(LCD_entry_mode);
  6557   001878  5051               	movf	_LCD_entry_mode^0,w,c
  6558   00187A  EC07  F007         	call	_LCD_write_command
  6559   00187E  0012               	return		;funcret
  6560   001880                     __end_of_LCD_clear:
  6561                           	callstack 0
  6562                           
  6563 ;; *************** function _LCD_write_command *****************
  6564 ;; Defined at:
  6565 ;;		line 46 in file "LCD.c"
  6566 ;; Parameters:    Size  Location     Type
  6567 ;;  command         1    wreg     unsigned char 
  6568 ;; Auto vars:     Size  Location     Type
  6569 ;;  command         1    4[COMRAM] unsigned char 
  6570 ;; Return value:  Size  Location     Type
  6571 ;;                  1    wreg      void 
  6572 ;; Registers used:
  6573 ;;		wreg, status,2, status,0, cstack
  6574 ;; Tracked objects:
  6575 ;;		On entry : 0/0
  6576 ;;		On exit  : 0/0
  6577 ;;		Unchanged: 0/0
  6578 ;; Data sizes:     COMRAM   BANK0   BANK1   BANK2   BANK3   BANK4   BANK5   BANK6   BANK7   BANK8   BANK9  BANK10  BANK1
      +1  BANK12  BANK13  BANK14  BANK15
  6579 ;;      Params:         0       0       0       0       0       0       0       0       0       0       0       0       
      +0       0       0       0       0
  6580 ;;      Locals:         1       0       0       0       0       0       0       0       0       0       0       0       
      +0       0       0       0       0
  6581 ;;      Temps:          2       0       0       0       0       0       0       0       0       0       0       0       
      +0       0       0       0       0
  6582 ;;      Totals:         3       0       0       0       0       0       0       0       0       0       0       0       
      +0       0       0       0       0
  6583 ;;Total ram usage:        3 bytes
  6584 ;; Hardware stack levels used: 1
  6585 ;; Hardware stack levels required when called: 2
  6586 ;; This function calls:
  6587 ;;		_LCD_pulse_clock
  6588 ;; This function is called by:
  6589 ;;		_LCD_init
  6590 ;;		_LCD_cursor_set
  6591 ;;		_LCD_configure_cursor_blink
  6592 ;;		_LCD_clear
  6593 ;;		_LCD_cursor_increment
  6594 ;;		_LCD_cursor_decrement
  6595 ;;		_LCD_configure_lcd_display
  6596 ;;		_LCD_configure_cursor_display
  6597 ;;		_LCD_shift_reset
  6598 ;;		_LCD_shift_left
  6599 ;;		_LCD_shift_right
  6600 ;;		_LCD_configure_entry_id
  6601 ;;		_LCD_configure_entry_shift
  6602 ;;		_LCD_add_character
  6603 ;; This function uses a non-reentrant model
  6604 ;;
  6605                           
  6606                           	psect	text40
  6607   000E0E                     __ptext40:
  6608                           	callstack 0
  6609   000E0E                     _LCD_write_command:
  6610                           	callstack 26
  6611                           
  6612                           ;incstack = 0
  6613                           ;LCD_write_command@command stored from wreg
  6614   000E0E  6E05               	movwf	LCD_write_command@command^0,c
  6615   000E10                     
  6616                           ;LCD.c: 48:     LATDbits.LATD2 = 0;
  6617   000E10  948C               	bcf	140,2,c	;volatile
  6618   000E12                     
  6619                           ;LCD.c: 51:     LATDbits.LATD7 = (command & 0b10000000) >> 7;
  6620   000E12  6A03               	clrf	??_LCD_write_command^0,c
  6621   000E14  AE05               	btfss	LCD_write_command@command^0,7,c
  6622   000E16  D001               	bra	u1325
  6623   000E18  2A03               	incf	??_LCD_write_command^0,f,c
  6624   000E1A                     u1325:
  6625   000E1A  0E01               	movlw	1
  6626   000E1C  1603               	andwf	??_LCD_write_command^0,f,c
  6627   000E1E  3203               	rrcf	??_LCD_write_command^0,f,c
  6628   000E20  3203               	rrcf	??_LCD_write_command^0,f,c
  6629   000E22  508C               	movf	140,w,c	;volatile
  6630   000E24  1803               	xorwf	??_LCD_write_command^0,w,c
  6631   000E26  0B7F               	andlw	-129
  6632   000E28  1803               	xorwf	??_LCD_write_command^0,w,c
  6633   000E2A  6E8C               	movwf	140,c	;volatile
  6634                           
  6635                           ;LCD.c: 52:     LATDbits.LATD6 = (command & 0b01000000) >> 6;
  6636   000E2C  C005  F003         	movff	LCD_write_command@command,??_LCD_write_command
  6637   000E30  0E06               	movlw	6
  6638   000E32  6E04               	movwf	(??_LCD_write_command+1)^0,c
  6639   000E34                     u1335:
  6640   000E34  90D8               	bcf	status,0,c
  6641   000E36  3203               	rrcf	??_LCD_write_command^0,f,c
  6642   000E38  2E04               	decfsz	(??_LCD_write_command+1)^0,f,c
  6643   000E3A  EF1A  F007         	goto	u1335
  6644   000E3E  0E01               	movlw	1
  6645   000E40  1603               	andwf	??_LCD_write_command^0,f,c
  6646   000E42  3A03               	swapf	??_LCD_write_command^0,f,c
  6647   000E44  4603               	rlncf	??_LCD_write_command^0,f,c
  6648   000E46  4603               	rlncf	??_LCD_write_command^0,f,c
  6649   000E48  508C               	movf	140,w,c	;volatile
  6650   000E4A  1803               	xorwf	??_LCD_write_command^0,w,c
  6651   000E4C  0BBF               	andlw	-65
  6652   000E4E  1803               	xorwf	??_LCD_write_command^0,w,c
  6653   000E50  6E8C               	movwf	140,c	;volatile
  6654                           
  6655                           ;LCD.c: 53:     LATDbits.LATD5 = (command & 0b00100000) >> 5;
  6656   000E52  C005  F003         	movff	LCD_write_command@command,??_LCD_write_command
  6657   000E56  0E05               	movlw	5
  6658   000E58  6E04               	movwf	(??_LCD_write_command+1)^0,c
  6659   000E5A                     u1345:
  6660   000E5A  90D8               	bcf	status,0,c
  6661   000E5C  3203               	rrcf	??_LCD_write_command^0,f,c
  6662   000E5E  2E04               	decfsz	(??_LCD_write_command+1)^0,f,c
  6663   000E60  EF2D  F007         	goto	u1345
  6664   000E64  0E01               	movlw	1
  6665   000E66  1603               	andwf	??_LCD_write_command^0,f,c
  6666   000E68  3A03               	swapf	??_LCD_write_command^0,f,c
  6667   000E6A  4603               	rlncf	??_LCD_write_command^0,f,c
  6668   000E6C  508C               	movf	140,w,c	;volatile
  6669   000E6E  1803               	xorwf	??_LCD_write_command^0,w,c
  6670   000E70  0BDF               	andlw	-33
  6671   000E72  1803               	xorwf	??_LCD_write_command^0,w,c
  6672   000E74  6E8C               	movwf	140,c	;volatile
  6673                           
  6674                           ;LCD.c: 54:     LATDbits.LATD4 = (command & 0b00010000) >> 4;
  6675   000E76  C005  F003         	movff	LCD_write_command@command,??_LCD_write_command
  6676   000E7A  3A03               	swapf	??_LCD_write_command^0,f,c
  6677   000E7C  0E0F               	movlw	15
  6678   000E7E  1603               	andwf	??_LCD_write_command^0,f,c
  6679   000E80  0E01               	movlw	1
  6680   000E82  1603               	andwf	??_LCD_write_command^0,f,c
  6681   000E84  3A03               	swapf	??_LCD_write_command^0,f,c
  6682   000E86  508C               	movf	140,w,c	;volatile
  6683   000E88  1803               	xorwf	??_LCD_write_command^0,w,c
  6684   000E8A  0BEF               	andlw	-17
  6685   000E8C  1803               	xorwf	??_LCD_write_command^0,w,c
  6686   000E8E  6E8C               	movwf	140,c	;volatile
  6687   000E90                     
  6688                           ;LCD.c: 57:     LCD_pulse_clock();
  6689   000E90  EC7C  F00C         	call	_LCD_pulse_clock	;wreg free
  6690   000E94                     
  6691                           ;LCD.c: 60:     LATDbits.LATD7 = (command & 0b00001000) >> 3;
  6692   000E94  C005  F003         	movff	LCD_write_command@command,??_LCD_write_command
  6693   000E98  90D8               	bcf	status,0,c
  6694   000E9A  3203               	rrcf	??_LCD_write_command^0,f,c
  6695   000E9C  90D8               	bcf	status,0,c
  6696   000E9E  3203               	rrcf	??_LCD_write_command^0,f,c
  6697   000EA0  90D8               	bcf	status,0,c
  6698   000EA2  3203               	rrcf	??_LCD_write_command^0,f,c
  6699   000EA4  0E01               	movlw	1
  6700   000EA6  1603               	andwf	??_LCD_write_command^0,f,c
  6701   000EA8  3203               	rrcf	??_LCD_write_command^0,f,c
  6702   000EAA  3203               	rrcf	??_LCD_write_command^0,f,c
  6703   000EAC  508C               	movf	140,w,c	;volatile
  6704   000EAE  1803               	xorwf	??_LCD_write_command^0,w,c
  6705   000EB0  0B7F               	andlw	-129
  6706   000EB2  1803               	xorwf	??_LCD_write_command^0,w,c
  6707   000EB4  6E8C               	movwf	140,c	;volatile
  6708   000EB6                     
  6709                           ;LCD.c: 61:     LATDbits.LATD6 = (command & 0b00000100) >> 2;
  6710   000EB6  C005  F003         	movff	LCD_write_command@command,??_LCD_write_command
  6711   000EBA  90D8               	bcf	status,0,c
  6712   000EBC  3203               	rrcf	??_LCD_write_command^0,f,c
  6713   000EBE  90D8               	bcf	status,0,c
  6714   000EC0  3203               	rrcf	??_LCD_write_command^0,f,c
  6715   000EC2  0E01               	movlw	1
  6716   000EC4  1603               	andwf	??_LCD_write_command^0,f,c
  6717   000EC6  3A03               	swapf	??_LCD_write_command^0,f,c
  6718   000EC8  4603               	rlncf	??_LCD_write_command^0,f,c
  6719   000ECA  4603               	rlncf	??_LCD_write_command^0,f,c
  6720   000ECC  508C               	movf	140,w,c	;volatile
  6721   000ECE  1803               	xorwf	??_LCD_write_command^0,w,c
  6722   000ED0  0BBF               	andlw	-65
  6723   000ED2  1803               	xorwf	??_LCD_write_command^0,w,c
  6724   000ED4  6E8C               	movwf	140,c	;volatile
  6725   000ED6                     
  6726                           ;LCD.c: 62:     LATDbits.LATD5 = (command & 0b00000010) >> 1;
  6727   000ED6  C005  F003         	movff	LCD_write_command@command,??_LCD_write_command
  6728   000EDA  90D8               	bcf	status,0,c
  6729   000EDC  3203               	rrcf	??_LCD_write_command^0,f,c
  6730   000EDE  0E01               	movlw	1
  6731   000EE0  1603               	andwf	??_LCD_write_command^0,f,c
  6732   000EE2  3A03               	swapf	??_LCD_write_command^0,f,c
  6733   000EE4  4603               	rlncf	??_LCD_write_command^0,f,c
  6734   000EE6  508C               	movf	140,w,c	;volatile
  6735   000EE8  1803               	xorwf	??_LCD_write_command^0,w,c
  6736   000EEA  0BDF               	andlw	-33
  6737   000EEC  1803               	xorwf	??_LCD_write_command^0,w,c
  6738   000EEE  6E8C               	movwf	140,c	;volatile
  6739   000EF0                     
  6740                           ;LCD.c: 63:     LATDbits.LATD4 = (command & 0b00000001) ;
  6741   000EF0  C005  F003         	movff	LCD_write_command@command,??_LCD_write_command
  6742   000EF4  0E01               	movlw	1
  6743   000EF6  1603               	andwf	??_LCD_write_command^0,f,c
  6744   000EF8  3A03               	swapf	??_LCD_write_command^0,f,c
  6745   000EFA  508C               	movf	140,w,c	;volatile
  6746   000EFC  1803               	xorwf	??_LCD_write_command^0,w,c
  6747   000EFE  0BEF               	andlw	-17
  6748   000F00  1803               	xorwf	??_LCD_write_command^0,w,c
  6749   000F02  6E8C               	movwf	140,c	;volatile
  6750   000F04                     
  6751                           ;LCD.c: 66:     LCD_pulse_clock();
  6752   000F04  EC7C  F00C         	call	_LCD_pulse_clock	;wreg free
  6753   000F08  0012               	return		;funcret
  6754   000F0A                     __end_of_LCD_write_command:
  6755                           	callstack 0
  6756                           
  6757 ;; *************** function _LCD_pulse_clock *****************
  6758 ;; Defined at:
  6759 ;;		line 34 in file "LCD.c"
  6760 ;; Parameters:    Size  Location     Type
  6761 ;;		None
  6762 ;; Auto vars:     Size  Location     Type
  6763 ;;		None
  6764 ;; Return value:  Size  Location     Type
  6765 ;;                  1    wreg      void 
  6766 ;; Registers used:
  6767 ;;		wreg
  6768 ;; Tracked objects:
  6769 ;;		On entry : 0/0
  6770 ;;		On exit  : 0/0
  6771 ;;		Unchanged: 0/0
  6772 ;; Data sizes:     COMRAM   BANK0   BANK1   BANK2   BANK3   BANK4   BANK5   BANK6   BANK7   BANK8   BANK9  BANK10  BANK1
      +1  BANK12  BANK13  BANK14  BANK15
  6773 ;;      Params:         0       0       0       0       0       0       0       0       0       0       0       0       
      +0       0       0       0       0
  6774 ;;      Locals:         0       0       0       0       0       0       0       0       0       0       0       0       
      +0       0       0       0       0
  6775 ;;      Temps:          0       0       0       0       0       0       0       0       0       0       0       0       
      +0       0       0       0       0
  6776 ;;      Totals:         0       0       0       0       0       0       0       0       0       0       0       0       
      +0       0       0       0       0
  6777 ;;Total ram usage:        0 bytes
  6778 ;; Hardware stack levels used: 1
  6779 ;; Hardware stack levels required when called: 1
  6780 ;; This function calls:
  6781 ;;		Nothing
  6782 ;; This function is called by:
  6783 ;;		_LCD_write_command
  6784 ;;		_LCD_write_data
  6785 ;;		_LCD_init
  6786 ;; This function uses a non-reentrant model
  6787 ;;
  6788                           
  6789                           	psect	text41
  6790   0018F8                     __ptext41:
  6791                           	callstack 0
  6792   0018F8                     _LCD_pulse_clock:
  6793                           	callstack 26
  6794   0018F8                     
  6795                           ;LCD.c: 36:   LATDbits.LATD3 = 1;
  6796   0018F8  868C               	bsf	140,3,c	;volatile
  6797   0018FA                     
  6798                           ;LCD.c: 37:   _delay((unsigned long)((60)*(16000000/4000000.0)));
  6799   0018FA  0E50               	movlw	80
  6800   0018FC                     u2687:
  6801   0018FC  2EE8               	decfsz	wreg,f,c
  6802   0018FE  D7FE               	bra	u2687
  6803   001900                     
  6804                           ;LCD.c: 38:   LATDbits.LATD3 = 0;
  6805   001900  968C               	bcf	140,3,c	;volatile
  6806   001902  0012               	return		;funcret
  6807   001904                     __end_of_LCD_pulse_clock:
  6808                           	callstack 0
  6809                           
  6810 ;; *************** function _ADC_init *****************
  6811 ;; Defined at:
  6812 ;;		line 108 in file "OBCII_PIC18F46K22.c"
  6813 ;; Parameters:    Size  Location     Type
  6814 ;;		None
  6815 ;; Auto vars:     Size  Location     Type
  6816 ;;		None
  6817 ;; Return value:  Size  Location     Type
  6818 ;;                  1    wreg      void 
  6819 ;; Registers used:
  6820 ;;		wreg, status,2
  6821 ;; Tracked objects:
  6822 ;;		On entry : 0/0
  6823 ;;		On exit  : 0/0
  6824 ;;		Unchanged: 0/0
  6825 ;; Data sizes:     COMRAM   BANK0   BANK1   BANK2   BANK3   BANK4   BANK5   BANK6   BANK7   BANK8   BANK9  BANK10  BANK1
      +1  BANK12  BANK13  BANK14  BANK15
  6826 ;;      Params:         0       0       0       0       0       0       0       0       0       0       0       0       
      +0       0       0       0       0
  6827 ;;      Locals:         0       0       0       0       0       0       0       0       0       0       0       0       
      +0       0       0       0       0
  6828 ;;      Temps:          0       0       0       0       0       0       0       0       0       0       0       0       
      +0       0       0       0       0
  6829 ;;      Totals:         0       0       0       0       0       0       0       0       0       0       0       0       
      +0       0       0       0       0
  6830 ;;Total ram usage:        0 bytes
  6831 ;; Hardware stack levels used: 1
  6832 ;; Hardware stack levels required when called: 1
  6833 ;; This function calls:
  6834 ;;		Nothing
  6835 ;; This function is called by:
  6836 ;;		_main
  6837 ;; This function uses a non-reentrant model
  6838 ;;
  6839                           
  6840                           	psect	text42
  6841   001904                     __ptext42:
  6842                           	callstack 0
  6843   001904                     _ADC_init:
  6844                           	callstack 29
  6845   001904                     
  6846                           ;OBCII_PIC18F46K22.c: 110:     ADCON0 = 0b00000001;
  6847   001904  0E01               	movlw	1
  6848   001906  6EC2               	movwf	194,c	;volatile
  6849   001908                     
  6850                           ;OBCII_PIC18F46K22.c: 111:     ADCON1 = 0b00000000;
  6851   001908  6AC1               	clrf	193,c	;volatile
  6852                           
  6853                           ;OBCII_PIC18F46K22.c: 112:     ADCON2 = 0b10101010;
  6854   00190A  0EAA               	movlw	170
  6855   00190C  6EC0               	movwf	192,c	;volatile
  6856   00190E  0012               	return		;funcret
  6857   001910                     __end_of_ADC_init:
  6858                           	callstack 0
  6859                           
  6860 ;; *************** function _UART_ISR *****************
  6861 ;; Defined at:
  6862 ;;		line 154 in file "OBCII_PIC18F46K22.c"
  6863 ;; Parameters:    Size  Location     Type
  6864 ;;		None
  6865 ;; Auto vars:     Size  Location     Type
  6866 ;;		None
  6867 ;; Return value:  Size  Location     Type
  6868 ;;                  1    wreg      void 
  6869 ;; Registers used:
  6870 ;;		wreg, fsr2l, fsr2h, status,2, status,0
  6871 ;; Tracked objects:
  6872 ;;		On entry : 0/0
  6873 ;;		On exit  : 0/0
  6874 ;;		Unchanged: 0/0
  6875 ;; Data sizes:     COMRAM   BANK0   BANK1   BANK2   BANK3   BANK4   BANK5   BANK6   BANK7   BANK8   BANK9  BANK10  BANK1
      +1  BANK12  BANK13  BANK14  BANK15
  6876 ;;      Params:         0       0       0       0       0       0       0       0       0       0       0       0       
      +0       0       0       0       0
  6877 ;;      Locals:         0       0       0       0       0       0       0       0       0       0       0       0       
      +0       0       0       0       0
  6878 ;;      Temps:          2       0       0       0       0       0       0       0       0       0       0       0       
      +0       0       0       0       0
  6879 ;;      Totals:         2       0       0       0       0       0       0       0       0       0       0       0       
      +0       0       0       0       0
  6880 ;;Total ram usage:        2 bytes
  6881 ;; Hardware stack levels used: 1
  6882 ;; This function calls:
  6883 ;;		Nothing
  6884 ;; This function is called by:
  6885 ;;		Interrupt level 2
  6886 ;; This function uses a non-reentrant model
  6887 ;;
  6888                           
  6889                           	psect	intcode
  6890   000008                     __pintcode:
  6891                           	callstack 0
  6892   000008                     _UART_ISR:
  6893                           	callstack 22
  6894                           
  6895                           ;incstack = 0
  6896   000008  8253               	bsf	int$flags,1,c	;set compiler interrupt flag (level 2)
  6897   00000A  CFD9 F001          	movff	fsr2l,??_UART_ISR
  6898   00000E  CFDA F002          	movff	fsr2h,??_UART_ISR+1
  6899   000012                     
  6900                           ;OBCII_PIC18F46K22.c: 155:     if (PIE1bits.RC1IE && PIR1bits.RC1IF) {
  6901   000012  AA9D               	btfss	157,5,c	;volatile
  6902   000014  EF0E  F000         	goto	i2u226_41
  6903   000018  EF10  F000         	goto	i2u226_40
  6904   00001C                     i2u226_41:
  6905   00001C  EF63  F000         	goto	i2l156
  6906   000020                     i2u226_40:
  6907   000020  AA9E               	btfss	158,5,c	;volatile
  6908   000022  EF15  F000         	goto	i2u227_41
  6909   000026  EF17  F000         	goto	i2u227_40
  6910   00002A                     i2u227_41:
  6911   00002A  EF63  F000         	goto	i2l156
  6912   00002E                     i2u227_40:
  6913   00002E                     
  6914                           ;OBCII_PIC18F46K22.c: 156:         RX_char = RCREG1;
  6915   00002E  CFAE F04D          	movff	4014,_RX_char	;volatile
  6916                           
  6917                           ;OBCII_PIC18F46K22.c: 159:         if (RCSTAbits.OERR) {
  6918   000032  A2AB               	btfss	171,1,c	;volatile
  6919   000034  EF1E  F000         	goto	i2u228_41
  6920   000038  EF20  F000         	goto	i2u228_40
  6921   00003C                     i2u228_41:
  6922   00003C  EF22  F000         	goto	i2l3202
  6923   000040                     i2u228_40:
  6924   000040                     
  6925                           ;OBCII_PIC18F46K22.c: 160:             RCSTAbits.CREN = 0;
  6926   000040  98AB               	bcf	171,4,c	;volatile
  6927                           
  6928                           ;OBCII_PIC18F46K22.c: 161:             RCSTAbits.CREN = 1;
  6929   000042  88AB               	bsf	171,4,c	;volatile
  6930   000044                     i2l3202:
  6931                           
  6932                           ;OBCII_PIC18F46K22.c: 165:         if ((RX_char >= 32 && RX_char <= 126) && RX_char != '
      +                          >') {
  6933   000044  0E1F               	movlw	31
  6934   000046  644D               	cpfsgt	_RX_char^0,c
  6935   000048  EF28  F000         	goto	i2u229_41
  6936   00004C  EF2A  F000         	goto	i2u229_40
  6937   000050                     i2u229_41:
  6938   000050  EF42  F000         	goto	i2l3212
  6939   000054                     i2u229_40:
  6940   000054  0E7F               	movlw	127
  6941   000056  604D               	cpfslt	_RX_char^0,c
  6942   000058  EF30  F000         	goto	i2u230_41
  6943   00005C  EF32  F000         	goto	i2u230_40
  6944   000060                     i2u230_41:
  6945   000060  EF42  F000         	goto	i2l3212
  6946   000064                     i2u230_40:
  6947   000064  0E3E               	movlw	62
  6948   000066  184D               	xorwf	_RX_char^0,w,c
  6949   000068  B4D8               	btfsc	status,2,c
  6950   00006A  EF39  F000         	goto	i2u231_41
  6951   00006E  EF3B  F000         	goto	i2u231_40
  6952   000072                     i2u231_41:
  6953   000072  EF42  F000         	goto	i2l3212
  6954   000076                     i2u231_40:
  6955   000076                     
  6956                           ;OBCII_PIC18F46K22.c: 166:             buffer[buffer_count] = RX_char;
  6957   000076  504E               	movf	_buffer_count^0,w,c
  6958   000078  0F80               	addlw	low _buffer
  6959   00007A  6ED9               	movwf	fsr2l,c
  6960   00007C  6ADA               	clrf	fsr2h,c
  6961   00007E  C04D  FFDF         	movff	_RX_char,indf2
  6962   000082                     
  6963                           ;OBCII_PIC18F46K22.c: 167:             buffer_count++;
  6964   000082  2A4E               	incf	_buffer_count^0,f,c
  6965   000084                     i2l3212:
  6966                           
  6967                           ;OBCII_PIC18F46K22.c: 170:         if (RX_char == '>' || RX_char == '\n' || buffer_count
      +                           >= 32 -1) {
  6968   000084  0E3E               	movlw	62
  6969   000086  184D               	xorwf	_RX_char^0,w,c
  6970   000088  B4D8               	btfsc	status,2,c
  6971   00008A  EF49  F000         	goto	i2u232_41
  6972   00008E  EF4B  F000         	goto	i2u232_40
  6973   000092                     i2u232_41:
  6974   000092  EF5C  F000         	goto	i2l3218
  6975   000096                     i2u232_40:
  6976   000096  0E0A               	movlw	10
  6977   000098  184D               	xorwf	_RX_char^0,w,c
  6978   00009A  B4D8               	btfsc	status,2,c
  6979   00009C  EF52  F000         	goto	i2u233_41
  6980   0000A0  EF54  F000         	goto	i2u233_40
  6981   0000A4                     i2u233_41:
  6982   0000A4  EF5C  F000         	goto	i2l3218
  6983   0000A8                     i2u233_40:
  6984   0000A8  0E1E               	movlw	30
  6985   0000AA  644E               	cpfsgt	_buffer_count^0,c
  6986   0000AC  EF5A  F000         	goto	i2u234_41
  6987   0000B0  EF5C  F000         	goto	i2u234_40
  6988   0000B4                     i2u234_41:
  6989   0000B4  EF63  F000         	goto	i2l156
  6990   0000B8                     i2u234_40:
  6991   0000B8                     i2l3218:
  6992                           
  6993                           ;OBCII_PIC18F46K22.c: 171:             buffer[buffer_count] = '\0';
  6994   0000B8  504E               	movf	_buffer_count^0,w,c
  6995   0000BA  0F80               	addlw	low _buffer
  6996   0000BC  6ED9               	movwf	fsr2l,c
  6997   0000BE  6ADA               	clrf	fsr2h,c
  6998   0000C0  6ADF               	clrf	indf2,c
  6999   0000C2                     
  7000                           ;OBCII_PIC18F46K22.c: 172:             message_complete = 1;
  7001   0000C2  0E01               	movlw	1
  7002   0000C4  6E4C               	movwf	_message_complete^0,c	;volatile
  7003   0000C6                     i2l156:
  7004   0000C6  C002  FFDA         	movff	??_UART_ISR+1,fsr2h
  7005   0000CA  C001  FFD9         	movff	??_UART_ISR,fsr2l
  7006   0000CE  9253               	bcf	int$flags,1,c	;clear compiler interrupt flag (level 2)
  7007   0000D0  0011               	retfie		f
  7008   0000D2                     __end_of_UART_ISR:
  7009                           	callstack 0
  7010                           
  7011                           	psect	rparam
  7012   000001                     ___rparam_used  equ	1
  7013   000000                     ___param_bank   equ	0
  7014   000000                     __Lparam        equ	__Lrparam
  7015   000000                     __Hparam        equ	__Hrparam
  7016                           
  7017                           	psect	temp
  7018   000053                     btemp:
  7019                           	callstack 0
  7020   000053                     	ds	1
  7021   000053                     int$flags       set	btemp
  7022   000054                     wtemp8          set	btemp+1
  7023   000054                     ttemp5          set	btemp+1
  7024   000057                     ttemp6          set	btemp+4
  7025   00005B                     ttemp7          set	btemp+8
  7026                           
  7027                           	psect	config
  7028                           
  7029                           ; Padding undefined space
  7030   300000                     	org	3145728
  7031   300000  FF                 	db	255
  7032                           
  7033                           ;Config register CONFIG1H @ 0x300001
  7034                           ;	Oscillator Selection bits
  7035                           ;	FOSC = INTIO67, Internal oscillator block
  7036                           ;	4X PLL Enable
  7037                           ;	PLLCFG = ON, Oscillator multiplied by 4
  7038                           ;	Primary clock enable bit
  7039                           ;	PRICLKEN = ON, Primary clock is always enabled
  7040                           ;	Fail-Safe Clock Monitor Enable bit
  7041                           ;	FCMEN = OFF, Fail-Safe Clock Monitor disabled
  7042                           ;	Internal/External Oscillator Switchover bit
  7043                           ;	IESO = OFF, Oscillator Switchover mode disabled
  7044   300001                     	org	3145729
  7045   300001  38                 	db	56
  7046                           
  7047                           ;Config register CONFIG2L @ 0x300002
  7048                           ;	Power-up Timer Enable bit
  7049                           ;	PWRTEN = ON, Power up timer enabled
  7050                           ;	Brown-out Reset Enable bits
  7051                           ;	BOREN = SBORDIS, Brown-out Reset enabled in hardware only (SBOREN is disabled)
  7052                           ;	Brown Out Reset Voltage bits
  7053                           ;	BORV = 250, VBOR set to 2.50 V nominal
  7054   300002                     	org	3145730
  7055   300002  0E                 	db	14
  7056                           
  7057                           ;Config register CONFIG2H @ 0x300003
  7058                           ;	Watchdog Timer Enable bits
  7059                           ;	WDTEN = OFF, Watch dog timer is always disabled. SWDTEN has no effect.
  7060                           ;	Watchdog Timer Postscale Select bits
  7061                           ;	WDTPS = 32768, 1:32768
  7062   300003                     	org	3145731
  7063   300003  3C                 	db	60
  7064                           
  7065                           ; Padding undefined space
  7066   300004                     	org	3145732
  7067   300004  FF                 	db	255
  7068                           
  7069                           ;Config register CONFIG3H @ 0x300005
  7070                           ;	CCP2 MUX bit
  7071                           ;	CCP2MX = PORTC1, CCP2 input/output is multiplexed with RC1
  7072                           ;	PORTB A/D Enable bit
  7073                           ;	PBADEN = ON, PORTB<5:0> pins are configured as analog input channels on Reset
  7074                           ;	P3A/CCP3 Mux bit
  7075                           ;	CCP3MX = PORTB5, P3A/CCP3 input/output is multiplexed with RB5
  7076                           ;	HFINTOSC Fast Start-up
  7077                           ;	HFOFST = ON, HFINTOSC output and ready status are not delayed by the oscillator stable
      +                           status
  7078                           ;	Timer3 Clock input mux bit
  7079                           ;	T3CMX = PORTC0, T3CKI is on RC0
  7080                           ;	ECCP2 B output mux bit
  7081                           ;	P2BMX = PORTD2, P2B is on RD2
  7082                           ;	MCLR Pin Enable bit
  7083                           ;	MCLRE = EXTMCLR, MCLR pin enabled, RE3 input pin disabled
  7084   300005                     	org	3145733
  7085   300005  BF                 	db	191
  7086                           
  7087                           ;Config register CONFIG4L @ 0x300006
  7088                           ;	Stack Full/Underflow Reset Enable bit
  7089                           ;	STVREN = ON, Stack full/underflow will cause Reset
  7090                           ;	Single-Supply ICSP Enable bit
  7091                           ;	LVP = ON, Single-Supply ICSP enabled if MCLRE is also 1
  7092                           ;	Extended Instruction Set Enable bit
  7093                           ;	XINST = OFF, Instruction set extension and Indexed Addressing mode disabled (Legacy mo
      +                          de)
  7094                           ;	Background Debug
  7095                           ;	DEBUG = 0x1, unprogrammed default
  7096   300006                     	org	3145734
  7097   300006  85                 	db	133
  7098                           
  7099                           ; Padding undefined space
  7100   300007                     	org	3145735
  7101   300007  FF                 	db	255
  7102                           
  7103                           ;Config register CONFIG5L @ 0x300008
  7104                           ;	Code Protection Block 0
  7105                           ;	CP0 = OFF, Block 0 (000800-003FFFh) not code-protected
  7106                           ;	Code Protection Block 1
  7107                           ;	CP1 = OFF, Block 1 (004000-007FFFh) not code-protected
  7108                           ;	Code Protection Block 2
  7109                           ;	CP2 = OFF, Block 2 (008000-00BFFFh) not code-protected
  7110                           ;	Code Protection Block 3
  7111                           ;	CP3 = OFF, Block 3 (00C000-00FFFFh) not code-protected
  7112   300008                     	org	3145736
  7113   300008  0F                 	db	15
  7114                           
  7115                           ;Config register CONFIG5H @ 0x300009
  7116                           ;	Boot Block Code Protection bit
  7117                           ;	CPB = OFF, Boot block (000000-0007FFh) not code-protected
  7118                           ;	Data EEPROM Code Protection bit
  7119                           ;	CPD = OFF, Data EEPROM not code-protected
  7120   300009                     	org	3145737
  7121   300009  C0                 	db	192
  7122                           
  7123                           ;Config register CONFIG6L @ 0x30000A
  7124                           ;	Write Protection Block 0
  7125                           ;	WRT0 = OFF, Block 0 (000800-003FFFh) not write-protected
  7126                           ;	Write Protection Block 1
  7127                           ;	WRT1 = OFF, Block 1 (004000-007FFFh) not write-protected
  7128                           ;	Write Protection Block 2
  7129                           ;	WRT2 = OFF, Block 2 (008000-00BFFFh) not write-protected
  7130                           ;	Write Protection Block 3
  7131                           ;	WRT3 = OFF, Block 3 (00C000-00FFFFh) not write-protected
  7132   30000A                     	org	3145738
  7133   30000A  0F                 	db	15
  7134                           
  7135                           ;Config register CONFIG6H @ 0x30000B
  7136                           ;	Configuration Register Write Protection bit
  7137                           ;	WRTC = OFF, Configuration registers (300000-3000FFh) not write-protected
  7138                           ;	Boot Block Write Protection bit
  7139                           ;	WRTB = OFF, Boot Block (000000-0007FFh) not write-protected
  7140                           ;	Data EEPROM Write Protection bit
  7141                           ;	WRTD = OFF, Data EEPROM not write-protected
  7142   30000B                     	org	3145739
  7143   30000B  E0                 	db	224
  7144                           
  7145                           ;Config register CONFIG7L @ 0x30000C
  7146                           ;	Table Read Protection Block 0
  7147                           ;	EBTR0 = OFF, Block 0 (000800-003FFFh) not protected from table reads executed in other
      +                           blocks
  7148                           ;	Table Read Protection Block 1
  7149                           ;	EBTR1 = OFF, Block 1 (004000-007FFFh) not protected from table reads executed in other
      +                           blocks
  7150                           ;	Table Read Protection Block 2
  7151                           ;	EBTR2 = OFF, Block 2 (008000-00BFFFh) not protected from table reads executed in other
      +                           blocks
  7152                           ;	Table Read Protection Block 3
  7153                           ;	EBTR3 = OFF, Block 3 (00C000-00FFFFh) not protected from table reads executed in other
      +                           blocks
  7154   30000C                     	org	3145740
  7155   30000C  0F                 	db	15
  7156                           
  7157                           ;Config register CONFIG7H @ 0x30000D
  7158                           ;	Boot Block Table Read Protection bit
  7159                           ;	EBTRB = OFF, Boot Block (000000-0007FFh) not protected from table reads executed in ot
      +                          her blocks
  7160   30000D                     	org	3145741
  7161   30000D  40                 	db	64
  7162                           tosu	equ	0xFFF
  7163                           tosh	equ	0xFFE
  7164                           tosl	equ	0xFFD
  7165                           stkptr	equ	0xFFC
  7166                           pclatu	equ	0xFFB
  7167                           pclath	equ	0xFFA
  7168                           pcl	equ	0xFF9
  7169                           tblptru	equ	0xFF8
  7170                           tblptrh	equ	0xFF7
  7171                           tblptrl	equ	0xFF6
  7172                           tablat	equ	0xFF5
  7173                           prodh	equ	0xFF4
  7174                           prodl	equ	0xFF3
  7175                           indf0	equ	0xFEF
  7176                           postinc0	equ	0xFEE
  7177                           postdec0	equ	0xFED
  7178                           preinc0	equ	0xFEC
  7179                           plusw0	equ	0xFEB
  7180                           fsr0h	equ	0xFEA
  7181                           fsr0l	equ	0xFE9
  7182                           wreg	equ	0xFE8
  7183                           indf1	equ	0xFE7
  7184                           postinc1	equ	0xFE6
  7185                           postdec1	equ	0xFE5
  7186                           preinc1	equ	0xFE4
  7187                           plusw1	equ	0xFE3
  7188                           fsr1h	equ	0xFE2
  7189                           fsr1l	equ	0xFE1
  7190                           bsr	equ	0xFE0
  7191                           indf2	equ	0xFDF
  7192                           postinc2	equ	0xFDE
  7193                           postdec2	equ	0xFDD
  7194                           preinc2	equ	0xFDC
  7195                           plusw2	equ	0xFDB
  7196                           fsr2h	equ	0xFDA
  7197                           fsr2l	equ	0xFD9
  7198                           status	equ	0xFD8

Data Sizes:
    Strings     256
    Constant    0
    Data        4
    BSS         120
    Persistent  0
    Stack       0

Auto Spaces:
    Space          Size  Autos    Used
    COMRAM           94     54      82
    BANK0           160      0      96
    BANK1           256      0       0
    BANK2           256      0       0
    BANK3           256      0       0
    BANK4           256      0       0
    BANK5           256      0       0
    BANK6           256      0       0
    BANK7           256      0       0
    BANK8           256      0       0
    BANK9           256      0       0
    BANK10          256      0       0
    BANK11          256      0       0
    BANK12          256      0       0
    BANK13          256      0       0
    BANK14          256      0       0
    BANK15           56      0       0

Pointer List with Targets:

    f$.$buffer	PTR unsigned char  size(1) Largest target is 16
		 -> air_intake_string(BANK0[16]), rpm_string(BANK0[16]), 

    f$.$source	PTR const unsigned char  size(2) Largest target is 0

    fputc@fp	PTR struct _IO_FILE size(1) Largest target is 11
		 -> sprintf@f(COMRAM[11]), 

    fputc@fp$.$buffer	PTR unsigned char  size(1) Largest target is 16
		 -> air_intake_string(BANK0[16]), rpm_string(BANK0[16]), 

    fputc@fp$.$source	PTR const unsigned char  size(2) Largest target is 0

    LCD_write_string@string	PTR unsigned char  size(2) Largest target is 32
		 -> air_intake_string(BANK0[16]), buffer(BANK0[32]), rpm_string(BANK0[16]), STR_10(CODE[16]), 
		 -> STR_11(CODE[2]), STR_12(CODE[2]), STR_15(CODE[6]), STR_16(CODE[4]), 
		 -> STR_18(CODE[6]), STR_19(CODE[6]), STR_2(CODE[17]), STR_20(CODE[4]), 
		 -> STR_22(CODE[4]), STR_24(CODE[4]), STR_25(CODE[2]), STR_27(CODE[4]), 
		 -> STR_29(CODE[5]), STR_3(CODE[15]), STR_30(CODE[13]), STR_31(CODE[14]), 
		 -> STR_32(CODE[15]), STR_33(CODE[17]), STR_35(CODE[14]), STR_36(CODE[11]), 
		 -> STR_37(CODE[16]), STR_38(CODE[11]), STR_5(CODE[17]), STR_7(CODE[15]), 
		 -> STR_9(CODE[16]), 

    S1988$buffer	PTR unsigned char  size(1) Largest target is 16
		 -> air_intake_string(BANK0[16]), rpm_string(BANK0[16]), 

    S1988$source	PTR const unsigned char  size(2) Largest target is 0

    sp__strchr	PTR unsigned char  size(1) Largest target is 32
		 -> buffer(BANK0[32]), NULL(NULL[0]), 

    sprintf@ap	PTR void [1] size(1) Largest target is 2
		 -> ?_sprintf(COMRAM[2]), 

    sprintf@fmt	PTR const unsigned char  size(2) Largest target is 3
		 -> STR_14(CODE[3]), STR_23(CODE[3]), 

    sprintf@s	PTR unsigned char  size(1) Largest target is 16
		 -> air_intake_string(BANK0[16]), rpm_string(BANK0[16]), 

    strchr@s	PTR const unsigned char  size(1) Largest target is 32
		 -> buffer(BANK0[32]), 

    UART1_SendString@string	PTR unsigned char  size(2) Largest target is 6
		 -> STR_1(CODE[6]), STR_13(CODE[6]), STR_17(CODE[6]), STR_21(CODE[6]), 
		 -> STR_26(CODE[5]), STR_28(CODE[6]), STR_34(CODE[4]), STR_4(CODE[5]), 
		 -> STR_6(CODE[5]), STR_8(CODE[6]), 

    vfpfcnvrt@ap	PTR PTR void  size(1) Largest target is 1
		 -> sprintf@ap(COMRAM[1]), 

    vfpfcnvrt@cp	PTR unsigned char  size(2) Largest target is 3
		 -> STR_14(CODE[3]), STR_23(CODE[3]), 

    vfpfcnvrt@fmt	PTR PTR unsigned char  size(1) Largest target is 2
		 -> vfprintf@cfmt(COMRAM[2]), 

    vfpfcnvrt@fp	PTR struct _IO_FILE size(1) Largest target is 11
		 -> sprintf@f(COMRAM[11]), 

    vfprintf@ap	PTR PTR void  size(1) Largest target is 1
		 -> sprintf@ap(COMRAM[1]), 

    vfprintf@cfmt	PTR unsigned char  size(2) Largest target is 3
		 -> STR_14(CODE[3]), STR_23(CODE[3]), 

    vfprintf@fmt	PTR const unsigned char  size(2) Largest target is 3
		 -> STR_14(CODE[3]), STR_23(CODE[3]), 

    vfprintf@fp	PTR struct _IO_FILE size(1) Largest target is 11
		 -> sprintf@f(COMRAM[11]), 


Critical Paths under _main in COMRAM

    _main->_main_menu
    _welcome_splash->_LCD_write_variable
    _LCD_write_variable->___aldiv
    _main_menu->_live_reading_mode
    _live_reading_mode->_print_AI_Temp
    _live_reading_mode->_print_RPM
    _print_Vbatt->_LCD_write_string
    _print_RPM->_sprintf
    _print_AI_Temp->_sprintf
    _sprintf->_vfprintf
    _vfprintf->_vfpfcnvrt
    _vfpfcnvrt->_fputc
    _display_system_info->_print_ELMVer
    _display_system_info->_print_SAEVer
    _print_SAEVer->_LCD_write_string
    _print_ELMVer->_LCD_write_string
    _clear_diagnostic_codes->_LCD_write_string
    _parsing_notif->_LCD_write_string
    _display_mm->_LCD_write_string
    _clear_parsing_notif->_LCD_write_string
    _LCD_write_string->_LCD_write_data
    _LCD_cursor_set->_LCD_write_command
    _UART1_SendString->_UART1_SendChar
    _LCD_configure_cursor_blink->_LCD_write_command
    _LCD_init->_LCD_clear
    _LCD_clear->_LCD_write_command

Critical Paths under _UART_ISR in COMRAM

    None.

Critical Paths under _main in BANK0

    None.

Critical Paths under _UART_ISR in BANK0

    None.

Critical Paths under _main in BANK1

    None.

Critical Paths under _UART_ISR in BANK1

    None.

Critical Paths under _main in BANK2

    None.

Critical Paths under _UART_ISR in BANK2

    None.

Critical Paths under _main in BANK3

    None.

Critical Paths under _UART_ISR in BANK3

    None.

Critical Paths under _main in BANK4

    None.

Critical Paths under _UART_ISR in BANK4

    None.

Critical Paths under _main in BANK5

    None.

Critical Paths under _UART_ISR in BANK5

    None.

Critical Paths under _main in BANK6

    None.

Critical Paths under _UART_ISR in BANK6

    None.

Critical Paths under _main in BANK7

    None.

Critical Paths under _UART_ISR in BANK7

    None.

Critical Paths under _main in BANK8

    None.

Critical Paths under _UART_ISR in BANK8

    None.

Critical Paths under _main in BANK9

    None.

Critical Paths under _UART_ISR in BANK9

    None.

Critical Paths under _main in BANK10

    None.

Critical Paths under _UART_ISR in BANK10

    None.

Critical Paths under _main in BANK11

    None.

Critical Paths under _UART_ISR in BANK11

    None.

Critical Paths under _main in BANK12

    None.

Critical Paths under _UART_ISR in BANK12

    None.

Critical Paths under _main in BANK13

    None.

Critical Paths under _UART_ISR in BANK13

    None.

Critical Paths under _main in BANK14

    None.

Critical Paths under _UART_ISR in BANK14

    None.

Critical Paths under _main in BANK15

    None.

Critical Paths under _UART_ISR in BANK15

    None.

Call Graph Tables:

 ---------------------------------------------------------------------------------
 (Depth) Function   	        Calls       Base Space   Used Autos Params    Refs
 ---------------------------------------------------------------------------------
 (0) _main                                                 2     2      0   30079
                                             52 COMRAM     2     2      0
                           _ADC_init
                          _LCD_clear
                           _LCD_init
                         _UART1_Init
                   _UART1_SendString
                         _input_init
                          _main_menu
                     _welcome_splash
 ---------------------------------------------------------------------------------
 (1) _welcome_splash                                       6     6      0    2779
                                             27 COMRAM     6     6      0
                          _LCD_clear
                     _LCD_cursor_set
                   _LCD_write_string
                 _LCD_write_variable
                   _UART1_SendString
                            ___lwdiv
                            ___lwmod
                          _ccp1_init
                          _tmr1_init
 ---------------------------------------------------------------------------------
 (2) _tmr1_init                                            0     0      0       0
 ---------------------------------------------------------------------------------
 (2) _ccp1_init                                            0     0      0       0
 ---------------------------------------------------------------------------------
 (2) _LCD_write_variable                                  11     6      5    1231
                                             16 COMRAM    11     6      5
                     _LCD_write_data
                            ___aldiv
                            ___almod
                             ___lmul
                            ___lwdiv (ARG)
 ---------------------------------------------------------------------------------
 (3) ___lmul                                              12     4      8      94
                                              2 COMRAM    12     4      8
 ---------------------------------------------------------------------------------
 (3) ___almod                                             10     2      8     300
                                              2 COMRAM    10     2      8
 ---------------------------------------------------------------------------------
 (3) ___aldiv                                             14     6      8     304
                                              2 COMRAM    14     6      8
 ---------------------------------------------------------------------------------
 (1) _main_menu                                            2     2      0   26475
                                             50 COMRAM     2     2      0
                          _LCD_clear
         _LCD_configure_cursor_blink
                     _LCD_cursor_set
             _clear_diagnostic_codes
                         _display_mm
                _display_system_info
                  _live_reading_mode
                            _readADC
 ---------------------------------------------------------------------------------
 (2) _live_reading_mode                                    2     2      0   13521
                                             48 COMRAM     2     2      0
                      _print_AI_Temp
                          _print_RPM
                        _print_Vbatt
 ---------------------------------------------------------------------------------
 (3) _print_Vbatt                                          1     1      0    3503
                                             10 COMRAM     1     1      0
                          _LCD_clear
                     _LCD_cursor_set
                   _LCD_write_string
                   _UART1_SendString
                _clear_parsing_notif
                         _display_mm
                      _parsing_notif
                             _strchr
 ---------------------------------------------------------------------------------
 (4) _strchr                                               4     1      3      90
                                              2 COMRAM     4     1      3
 ---------------------------------------------------------------------------------
 (3) _print_RPM                                            3     3      0    5009
                                             45 COMRAM     3     3      0
                          _LCD_clear
                     _LCD_cursor_set
                   _LCD_write_string
                   _UART1_SendString
                _clear_parsing_notif
                         _display_mm
                  _hex_char_to_value
                      _parsing_notif
                            _sprintf
 ---------------------------------------------------------------------------------
 (3) _print_AI_Temp                                        3     3      0    5009
                                             45 COMRAM     3     3      0
                          _LCD_clear
                     _LCD_cursor_set
                   _LCD_write_string
                   _UART1_SendString
                _clear_parsing_notif
                         _display_mm
                  _hex_char_to_value
                      _parsing_notif
                            _sprintf
 ---------------------------------------------------------------------------------
 (4) _sprintf                                             19    14      5    1335
                                             28 COMRAM    17    12      5
                           _vfprintf
 ---------------------------------------------------------------------------------
 (5) _vfprintf                                             6     2      4    1132
                                             22 COMRAM     6     2      4
                          _vfpfcnvrt
 ---------------------------------------------------------------------------------
 (6) _vfpfcnvrt                                           13    10      3    1007
                                             10 COMRAM    12     9      3
                            ___lwdiv
                            ___lwmod
                              _fputc
 ---------------------------------------------------------------------------------
 (7) _fputc                                                8     5      3     230
                                              2 COMRAM     8     5      3
                              _putch
 ---------------------------------------------------------------------------------
 (8) _putch                                                1     1      0       0
 ---------------------------------------------------------------------------------
 (2) ___lwmod                                              5     1      4     163
                                              2 COMRAM     5     1      4
 ---------------------------------------------------------------------------------
 (2) ___lwdiv                                              7     3      4     166
                                              2 COMRAM     7     3      4
 ---------------------------------------------------------------------------------
 (4) _hex_char_to_value                                    1     1      0     261
                                              2 COMRAM     1     1      0
 ---------------------------------------------------------------------------------
 (2) _display_system_info                                  0     0      0    7589
                     _LCD_cursor_set
                   _LCD_write_string
                       _print_ELMVer
                       _print_SAEVer
 ---------------------------------------------------------------------------------
 (3) _print_SAEVer                                         1     1      0    3413
                                             10 COMRAM     1     1      0
                          _LCD_clear
                     _LCD_cursor_set
                   _LCD_write_string
                   _UART1_SendString
                _clear_parsing_notif
                         _display_mm
                      _parsing_notif
 ---------------------------------------------------------------------------------
 (3) _print_ELMVer                                         1     1      0    3413
                                             10 COMRAM     1     1      0
                          _LCD_clear
                     _LCD_cursor_set
                   _LCD_write_string
                   _UART1_SendString
                _clear_parsing_notif
                         _display_mm
                      _parsing_notif
 ---------------------------------------------------------------------------------
 (2) _clear_diagnostic_codes                               4     4      0    3699
                                             10 COMRAM     4     4      0
                          _LCD_clear
         _LCD_configure_cursor_blink
                     _LCD_cursor_set
                   _LCD_write_string
                   _UART1_SendString
                _clear_parsing_notif
                         _display_mm
                      _parsing_notif
                            _readADC
 ---------------------------------------------------------------------------------
 (2) _readADC                                              4     2      2       0
                                              2 COMRAM     4     2      2
 ---------------------------------------------------------------------------------
 (4) _parsing_notif                                        0     0      0     763
                     _LCD_cursor_set
                   _LCD_write_string
 ---------------------------------------------------------------------------------
 (4) _display_mm                                           0     0      0     763
                     _LCD_cursor_set
                   _LCD_write_string
 ---------------------------------------------------------------------------------
 (4) _clear_parsing_notif                                  0     0      0     763
                     _LCD_cursor_set
                   _LCD_write_string
 ---------------------------------------------------------------------------------
 (2) _LCD_write_string                                     5     3      2     353
                                              5 COMRAM     5     3      2
                     _LCD_write_data
 ---------------------------------------------------------------------------------
 (3) _LCD_write_data                                       3     3      0     232
                                              2 COMRAM     3     3      0
                    _LCD_pulse_clock
 ---------------------------------------------------------------------------------
 (2) _LCD_cursor_set                                       2     1      1     410
                                              5 COMRAM     2     1      1
                  _LCD_write_command
 ---------------------------------------------------------------------------------
 (2) _UART1_SendString                                     6     4      2     129
                                              3 COMRAM     6     4      2
                     _UART1_SendChar
 ---------------------------------------------------------------------------------
 (3) _UART1_SendChar                                       1     1      0      29
                                              2 COMRAM     1     1      0
 ---------------------------------------------------------------------------------
 (3) _LCD_configure_cursor_blink                           1     1      0     261
                                              5 COMRAM     1     1      0
                  _LCD_write_command
 ---------------------------------------------------------------------------------
 (1) _input_init                                           0     0      0       0
 ---------------------------------------------------------------------------------
 (1) _UART1_Init                                           0     0      0       0
 ---------------------------------------------------------------------------------
 (1) _LCD_init                                             2     2      0     464
                                              6 COMRAM     2     2      0
                          _LCD_clear
                    _LCD_pulse_clock
                  _LCD_write_command
 ---------------------------------------------------------------------------------
 (2) _LCD_clear                                            1     1      0     232
                                              5 COMRAM     1     1      0
                  _LCD_write_command
 ---------------------------------------------------------------------------------
 (3) _LCD_write_command                                    3     3      0     232
                                              2 COMRAM     3     3      0
                    _LCD_pulse_clock
 ---------------------------------------------------------------------------------
 (4) _LCD_pulse_clock                                      0     0      0       0
 ---------------------------------------------------------------------------------
 (1) _ADC_init                                             0     0      0       0
 ---------------------------------------------------------------------------------
 Estimated maximum stack depth 8
 ---------------------------------------------------------------------------------
 (Depth) Function   	        Calls       Base Space   Used Autos Params    Refs
 ---------------------------------------------------------------------------------
 (9) _UART_ISR                                             2     2      0       0
                                              0 COMRAM     2     2      0
 ---------------------------------------------------------------------------------
 Estimated maximum stack depth 9
 ---------------------------------------------------------------------------------

 Call Graph Graphs:

 _main (ROOT)
   _ADC_init
   _LCD_clear
     _LCD_write_command
       _LCD_pulse_clock
   _LCD_init
     _LCD_clear
     _LCD_pulse_clock
     _LCD_write_command
   _UART1_Init
   _UART1_SendString
     _UART1_SendChar
   _input_init
   _main_menu
     _LCD_clear
     _LCD_configure_cursor_blink
       _LCD_write_command
     _LCD_cursor_set
       _LCD_write_command
     _clear_diagnostic_codes
       _LCD_clear
       _LCD_configure_cursor_blink
       _LCD_cursor_set
       _LCD_write_string
         _LCD_write_data
           _LCD_pulse_clock
       _UART1_SendString
       _clear_parsing_notif
         _LCD_cursor_set
         _LCD_write_string
       _display_mm
         _LCD_cursor_set
         _LCD_write_string
       _parsing_notif
         _LCD_cursor_set
         _LCD_write_string
       _readADC
     _display_mm
     _display_system_info
       _LCD_cursor_set
       _LCD_write_string
       _print_ELMVer
         _LCD_clear
         _LCD_cursor_set
         _LCD_write_string
         _UART1_SendString
         _clear_parsing_notif
         _display_mm
         _parsing_notif
       _print_SAEVer
         _LCD_clear
         _LCD_cursor_set
         _LCD_write_string
         _UART1_SendString
         _clear_parsing_notif
         _display_mm
         _parsing_notif
     _live_reading_mode
       _print_AI_Temp
         _LCD_clear
         _LCD_cursor_set
         _LCD_write_string
         _UART1_SendString
         _clear_parsing_notif
         _display_mm
         _hex_char_to_value
         _parsing_notif
         _sprintf
           _vfprintf
             _vfpfcnvrt
               ___lwdiv
               ___lwmod
               _fputc
                 _putch
       _print_RPM
         _LCD_clear
         _LCD_cursor_set
         _LCD_write_string
         _UART1_SendString
         _clear_parsing_notif
         _display_mm
         _hex_char_to_value
         _parsing_notif
         _sprintf
       _print_Vbatt
         _LCD_clear
         _LCD_cursor_set
         _LCD_write_string
         _UART1_SendString
         _clear_parsing_notif
         _display_mm
         _parsing_notif
         _strchr
     _readADC
   _welcome_splash
     _LCD_clear
     _LCD_cursor_set
     _LCD_write_string
     _LCD_write_variable
       _LCD_write_data
       ___aldiv
       ___almod
       ___lmul
       ___lwdiv (ARG)
     _UART1_SendString
     ___lwdiv
     ___lwmod
     _ccp1_init
     _tmr1_init

 _UART_ISR (ROOT)

Address spaces:
Name               Size   Autos  Total    Usage
BIGRAM            3895      0       0      0.0%
BITBANK14          256      0       0      0.0%
BANK14             256      0       0      0.0%
BITBANK13          256      0       0      0.0%
BANK13             256      0       0      0.0%
BITBANK12          256      0       0      0.0%
BANK12             256      0       0      0.0%
BITBANK11          256      0       0      0.0%
BANK11             256      0       0      0.0%
BITBANK10          256      0       0      0.0%
BANK10             256      0       0      0.0%
BITBANK9           256      0       0      0.0%
BANK9              256      0       0      0.0%
BITBANK8           256      0       0      0.0%
BANK8              256      0       0      0.0%
BITBANK7           256      0       0      0.0%
BANK7              256      0       0      0.0%
BITBANK6           256      0       0      0.0%
BANK6              256      0       0      0.0%
BITBANK5           256      0       0      0.0%
BANK5              256      0       0      0.0%
BITBANK4           256      0       0      0.0%
BANK4              256      0       0      0.0%
BITBANK3           256      0       0      0.0%
BANK3              256      0       0      0.0%
BITBANK2           256      0       0      0.0%
BANK2              256      0       0      0.0%
BITBANK1           256      0       0      0.0%
BANK1              256      0       0      0.0%
BITBANK0           160      0       0      0.0%
BANK0              160      0      96     60.0%
BITCOMRAM           94      0       0      0.0%
COMRAM              94     54      82     87.2%
BITBIGSFRh          82      0       0      0.0%
BITBIGSFRllh        70      0       0      0.0%
BITBANK15           56      0       0      0.0%
BANK15              56      0       0      0.0%
BITBIGSFRlh         43      0       0      0.0%
STACK                0      0       0      0.0%
DATA                 0      0     178      0.0%


Microchip Technology PIC18 Macro Assembler V3.00 build 20241204225717 
Symbol Table                                                                                   Tue Apr 29 01:55:26 2025

                               l201 18AE                                 l210 02F0  
                               l220 0230                                 l142 190E  
                               l303 03EE                                 l145 181A  
                               l162 165A                                 l250 09BA  
                               l139 18F6                                 l171 18D6  
                               l340 0E0C                                 l404 13FE  
                               l244 1308                                 l165 18B2  
                               l317 04F6                                 l334 1902  
                               l350 1604                                 l254 0AF0  
                               l174 18E6                                 l343 1384  
                               l168 18C4                                 l192 17C0  
                               l272 0C06                                 l264 10CC  
                               l337 0F08                                 l346 15BC  
                               l258 1004                                 l530 0FF2  
                               l450 14DC                                 l426 09A8  
                               l186 06AE                                 l371 1862  
                               l347 15D2                                 l195 17EE  
                               l283 128A                                 l291 1200  
                               l275 1840                                 l419 090A  
                               l348 15E8                                 l268 0B02  
                               l189 178E                                 l517 0D10  
                               l374 187E                                 l198 1896  
                               l294 178A                                 l279 1212  
                               l287 1188                                 l449 14CC  
                               l936 1472                                 l929 146A  
                               l946 15A4                                 l939 159C  
                               _RPM 0043                                 wreg 0FE8  
                        _TXSTA1bits 0FAC                                l1125 1754  
                              l3000 0516                                l1162 0834  
                              l3010 0540                                l3002 0522  
                              l2300 1438                                l3100 01B6  
                              l3020 0566                                l3012 0548  
                              l3004 052C                                l1181 1176  
                              l2310 1464                                l2302 143E  
                              l3110 01F4                                l3102 01C4  
                              l3030 05DA                                l3022 0570  
                              l3014 0550                                l3006 0538  
                              l2304 1454                                l2320 1572  
                              l2312 1542                                l1192 1914  
                              l2400 07B8                                l3120 0228  
                              l3112 0202                                l3104 01D4  
                              l3032 05E2                                l3024 0598  
                              l3016 055E                                l3008 053C  
                              l1169 16E2                                l2306 145C  
                              l2322 1588                                l2314 1554  
                              l2330 10DE                                l2402 07D2  
                              l2410 0802                                l3122 023E  
                              l3114 0212                                l3106 01E2  
                              l3050 063C                                l3042 0612  
                              l3034 05E4                                l3026 05BE  
                              l3018 0562                                l1195 16E4  
                              l2420 18B2                                l2500 12EE  
                              l2308 145E                                l2324 1590  
                              l2316 155C                                l2332 10EE  
                              l2404 07D4                                l3132 0260  
                              l3124 024E                                l3116 0220  
                              l3108 01F0                                l3060 0696  
                              l3044 061A                                l3052 0658  
                              l3036 05E6                                l3028 05CA  
                              l1197 171C                                l2350 0EB6  
                              l2342 0E10                                l2422 18C0  
                              l2430 15E4                                l2502 12FE  
                              l2326 1596                                l2318 1564  
                              l2334 10F8                                l2414 0812  
                              l2510 171E                                l3150 0280  
                              l3134 0278                                l3118 0224  
                              l3070 00FE                                l3062 00D6  
                              l3054 0666                                l3046 0624  
                              l3038 05F8                                l2352 0ED6  
                              l2344 0E12                                l2432 15FA  
                              l2424 15A8                                l2360 0D16  
                              l2440 13BE                                l2336 1114  
                              l2328 10CE                                l2408 07EA  
                              l2512 1726                                l2600 1034  
                              l3152 0284                                l3080 013A  
                              l3072 0106                                l3064 00DA  
                              l3056 0672                                l3048 0630  
                              l2354 0EF0                                l2346 0E90  
                              l2434 15FE                                l2426 15B8  
                              l2370 0DF4                                l2362 0D94  
                              l2442 13C0                                l2506 1306  
                              l2290 1400                                l2338 1146  
                              l2450 16DA                                l2514 172E  
                              l2530 171A                                l2522 16E4  
                              l2610 1058                                l2602 1038  
                              l3154 0292                                l3090 017A  
                              l3082 0144                                l3074 0110  
                              l3066 00DE                                l3058 068A  
                              l2284 18F8                                l2356 0F04  
                              l2348 0E94                                l2460 1606  
                              l2428 15CE                                l2372 0E08  
                              l2364 0D98                                l2436 1386  
                              l2700 1196                                l2292 1408  
                              l2380 06EA                                l2444 16A2  
                              l2516 1736                                l2524 16FC  
                              l2620 10AE                                l2612 1062  
                              l2604 1040                                l3340 02CA  
                              l3156 02A2                                l3092 018C  
                              l3084 0156                                l3076 0120  
                              l3068 00EE                                l1732 18C6  
                              l3180 14E6                                l2286 18FA  
                              l2454 1864                                l2542 1844  
                              l2462 1612                                l2366 0DBA  
                              l2358 0D14                                l2438 138C  
                              l2470 17CC                                l2534 178C  
                              l3342 04E0                                l2702 11A6  
                              l2710 11C4                                l2294 141A  
                              l2390 074E                                l2382 06EE  
                              l2374 06B0                                l2446 16AE  
                              l2518 174A                                l2630 0B10  
                              l2550 09AA                                l2622 10BE  
                              l2614 1078                                l2606 1044  
                              l3166 02B4                                l3094 019E  
                              l3086 0168                                l3078 0132  
                              l1734 18CE                                l3190 1532  
                              l3182 14EA                                l2288 1900  
                              l2456 186A                                l1920 1802  
                              l1912 18E8                                l2544 1854  
                              l2464 162E                                l2368 0DDA  
                              l2480 18A2                                l2472 17D8  
                              l2536 179C                                l2720 11F2  
                              l2704 11B4                                l2712 11C8  
                              l2296 1422                                l2392 0752  
                              l2384 06FC                                l2376 06D2  
                              l2448 16BE                                l2632 0B20  
                              l2640 0B3E                                l2560 09EE  
                              l2552 09C8                                l2528 1702  
                              l2624 10C8                                l2616 1084  
                              l2608 1054                                l3168 02F0  
                              l3096 01A6                                l3088 0170  
                              l2800 0F84                                l1736 18D8  
                              l3192 1536                                l3184 14F6  
                              l3176 14DE                                l1914 1904  
                              l2458 1878                                l1930 1812  
                              l1922 180A                                l2546 185A  
                              l2466 1632                                l2474 1880  
                              l2538 17AA                                l2722 11FC  
                              l2714 11D8                                l2706 11B8  
                              l2490 12B6                                l2482 128E  
                              l2298 142A                                l2394 0776  
                              l2386 0718                                l2378 06DE  
                              l2650 0B9E                                l2634 0B2E  
                              l2642 0B42                                l2570 0A40  
                              l2554 09D8                                l2562 09F6  
                              l2626 10CA                                l2618 108E  
                              l3098 01B0                                l2810 0FD2  
                              l2802 0FA2                                l2730 1492  
                              l3186 150E                                l3178 14E2  
                              l1916 1908                                l1932 1814  
                              l1924 180C                                l2548 185C  
                              l2468 17C2                                l2476 188A  
                              l2900 03DE                                l2724 11FE  
                              l2716 11DC                                l2708 11BC  
                              l2492 12C6                                l2484 129E  
                              l2396 0792                                l2388 0730  
                              l2660 0BE2                                l2652 0BAA  
                              l2644 0B52                                l2636 0B32  
                              l2628 0AF2                                l2580 0AC2  
                              l2572 0A72                                l2556 09E6  
                              l2564 09FA                                l2740 0C18  
                              l2812 0FE2                                l2804 0FB2  
                              l2732 14A2                                l2820 0846  
                              l3188 151A                                l1934 1816  
                              l1926 180E                                l1918 17F0  
                              l2478 1898                                l2902 03E2  
                              l2670 1202                                l2718 11E6  
                              l2494 12D6                                l2486 12AE  
                              l2398 07A4                                l2662 0BEC  
                              l2654 0BC2                                l2646 0B56  
                              l2638 0B36                                l2590 0AEE  
                              l2582 0ACC                                l2574 0A94  
                              l2566 0A0A                                l2558 09EA  
                              l2750 0C4E                                l2742 0C28  
                              l2806 0FBC                                l2734 14AC  
                              l2726 1474                                l2830 08B0  
                              l2822 087A                                l1936 1818  
                              l1928 1810                                l2920 0446  
                              l2912 041E                                l2904 03E6  
                              l2680 1246                                l2672 1220  
                              l2664 0BF6                                l2656 0BCC  
                              l2648 0B60                                l2584 0AD8  
                              l2576 0AAC                                l2568 0A0E  
                              l2592 0FF4                                l2760 0C96  
                              l2752 0C5E                                l2744 0C2C  
                              l2736 0C08                                l2808 0FC2  
                              l2728 1484                                l2840 091A  
                              l2832 08E8                                l2824 088A  
                              l2816 0836                                l2930 047A  
                              l2922 044A                                l2914 042E  
                              l2906 03FC                                l2690 1270  
                              l2674 1230                                l2682 124E  
                              l2498 12DE                                l2666 0C02  
                              l2658 0BD8                                l2586 0AE2  
                              l2578 0AB6                                l2594 1012  
                              l2770 0CDA                                l2762 0CA0  
                              l2754 0C74                                l2746 0C3A  
                              l2738 0C0A                                l2850 0996  
                              l2842 0922                                l2826 088C  
                              l2818 0838                                l2932 0496  
                              l2924 0460                                l2916 0432  
                              l2908 040C                                l2692 127C  
                              l2676 123E                                l2684 1252  
                              l2668 0C04                                l2588 0AEC  
                              l2596 1022                                l2860 1824  
                              l2764 0CBE                                l2756 0C7C  
                              l2772 0CE0                                l2748 0C4A  
                              l2780 0F0A                                l2852 0998  
                              l2844 0956                                l2836 08FE  
                              l2934 04A4                                l2926 046A  
                              l2918 0442                                l2870 0324  
                              l2694 1286                                l2686 1262  
                              l2678 1242                                l2950 1756  
                              l2598 1030                                l2862 1828  
                              l2774 0CF0                                l2766 0CCE  
                              l2758 0C88                                l2790 0F3C  
                              l2782 0F0C                                l2846 0958  
                              l2838 0904                                l2960 133A  
                              l2936 04B0                                l2928 0476  
                              l2944 04CA                                l2880 0358  
                              l2872 0330                                l2864 030E  
                              l2696 1288                                l2688 1266  
                              l2952 1760                                l2856 181C  
                              l2776 0D00                                l2768 0CD0  
                              l2792 0F4C                                l2784 0F1A  
                              l2848 096A                                l2970 1346  
                              l2962 133C                                l2890 03A0  
                              l2882 036A                                l2874 033A  
                              l2866 0316                                l2698 1178  
                              l2954 176C                                l2858 1820  
                              l2794 0F62                                l2786 0F2A  
                              l2980 1366                                l2972 1358  
                              l2964 133E                                l2956 130A  
                              l2892 03A8                                l2884 0372  
                              l2876 0346                                l2868 031A  
                              l2796 0F6A                                l2788 0F2E  
                              l2990 137A                                l2982 1368  
                              l2974 135E                                l2966 1340  
                              l2958 1322                                l2894 03B2  
                              l2886 037C                                l2878 034C  
                              l2798 0F76                                l2992 1380  
                              l2984 136A                                l2976 1362  
                              l2968 1342                                l2896 03C0  
                              l2888 038E                                l2986 136E  
                              l2978 1364                                l2898 03D0  
                              l2994 04F8                                l2988 1374  
                              l2996 0508                                l2998 050C  
                              STR_1 FFB6                                STR_2 FF10  
                              STR_3 FF62                                STR_4 FFDA  
                              STR_5 FEFF                                STR_6 FFDA  
                              STR_7 FF80                                STR_8 FFB6  
                              STR_9 FF32                                u2000 03A0  
                              u2001 039C                                u2010 03C0  
                              u2011 03BC                                u2020 03DE  
                              u1220 141A                                u1300 1114  
                              u2100 060E                                u2021 03DA  
                              u1221 1416                                u1301 1110  
                              u2101 060A                                u2030 03FC  
                              u1230 1438                                u1310 1146  
                              u2110 00FE                                u2031 03F8  
                              u1231 1434                                u1311 1142  
                              u2111 00FA                                u2040 041A  
                              u1240 1454                                u1400 07A4  
                              u2200 0202                                u2120 0120  
                              u2041 0416                                u1241 1450  
                              u1401 07A0                                u2201 01FE  
                              u2121 011C                                u2050 0442  
                              u1250 1554                                u1410 07B4  
                              u2210 0220                                u2130 0132  
                              u2051 043E                                u1251 1550  
                              u1411 07B0                                u2211 021C  
                              u2131 012E                                u1500 13FE  
                              u1260 1572                                u1420 07E6  
                              u2220 023E                                u2140 0156  
                              u2060 055E                                u1325 0E1A  
                              u1501 13FA                                u1261 156E  
                              u1421 07E2                                u2221 023A  
                              u2141 0152                                u2061 055A  
                              u1430 18C0                                u1270 1588  
                              u1510 16DA                                u2230 025C  
                              u2150 0168                                u2070 05BE  
                              u1335 0E34                                u1431 18BC  
                              u1271 1584                                u1511 16D6  
                              u2231 0258                                u2151 0164  
                              u2071 05BA                                u1520 165A  
                              u1440 15B8                                u1280 10DE  
                              u1600 171A                                u2240 0292  
                              u2160 018C                                u2080 05DA  
                              u1345 0E5A                                u1521 1656  
                              u1441 15B4                                u1281 10DA  
                              u1601 1716                                u2241 028E  
                              u2161 0188                                u2081 05D6  
                              u1450 15CE                                u1610 179C  
                              u1530 129E                                u1290 10EE  
                              u2250 02B0                                u2170 019E  
                              u2090 05F8                                u1451 15CA  
                              u1355 0D1E                                u1611 1798  
                              u1531 129A                                u1291 10EA  
                              u2251 02AC                                u2171 019A  
                              u2091 05F4                                u1620 1854  
                              u1460 15E4                                u1540 12AE  
                              u1380 06D2                                u1700 0B10  
                              u2180 01C4                                u1621 1850  
                              u1461 15E0                                u1365 0D38  
                              u1541 12AA                                u1381 06CE  
                              u1701 0B0C                                u2181 01C0  
                              u1470 15FA                                u1550 12C6  
                              u1390 0718                                u1710 0B2E  
                              u1630 09C8                                u2190 01E2  
                              u1471 15F6                                u1375 0D5E  
                              u1551 12C2                                u1391 0714  
                              u1711 0B2A                                u1631 09C4  
                              u2191 01DE                                u1480 13BA  
                              u1560 12D6                                u1720 0B52  
                              u1640 09E6                                u1800 14CC  
                              u1561 12D2                                u1721 0B4E  
                              u1641 09E2                                u1801 14C8  
                              u1490 13EE                                u1730 1220  
                              u1570 12EE                                u1650 0A0A  
                              u1810 0C18                                u1731 121C  
                              u1571 12EA                                u1651 0A06  
                              u2507 0244                                u1811 0C14  
                              u1740 123E                                u1580 12FE  
                              u1660 1012                                u1820 0C3A  
                              u1900 0F84                                u1741 123A  
                              u1581 12FA                                u1661 100E  
                              u2517 026A                                u1821 0C36  
                              u1901 0F80                                u2437 1500  
                              u1750 1262                                u1590 16FC  
                              u1670 1030                                u1830 0C74  
                              u1910 0FA2                                u1487 13B0  
                              u2607 03C6                                u1751 125E  
                              u1591 16F8                                u1671 102C  
                              u2527 0298                                u1831 0C70  
                              u1911 0F9E                                u2447 1524  
                              u1760 1196                                u1680 1054  
                              u1840 0C96                                u1920 0FD2  
                              u1497 13E4                                u2617 0402  
                              u1761 1192                                u1681 1050  
                              u2537 02FA                                u1841 0C92  
                              u1921 0FCE                                u2457 0646  
                              u1770 11B4                                u1690 10AE  
                              u1850 0CBE                                u1930 0846  
                              u2627 0484                                u1771 11B0  
                              u1691 10AA                                u2547 1832  
                              u1851 0CBA                                u1931 0842  
                              u2467 067C                                u1780 11D8  
                              u1860 0CF0                                u1940 08AC  
                              u2637 17A2                                u1781 11D4  
                              u2557 1018                                u1861 0CEC  
                              u1941 08A8                                u2477 06A0  
                              u1870 0F1A                                u1790 1492  
                              u1950 08FA                                u2647 132C  
                              u2567 09CE                                u2487 01CA  
                              u1871 0F16                                u1791 148E  
                              u1951 08F6                                u1880 0F3C  
                              u1960 096A                                u2657 134C  
                              u2577 0B16                                u2497 0208  
                              u1881 0F38                                u1961 0966  
                              u1890 0F62                                u1970 09A8  
                              u2667 135A                                u2587 119C  
                              u1891 0F5E                                u1971 09A4  
                              u1980 036A                                u2677 1870  
                              u1981 0366                                u2597 1226  
                              u1990 038E                                u2687 18FC  
                              u1991 038A                      _UART1_SendChar 18B0  
                 _live_reading_mode 181C                   _air_intake_string 00A0  
                              _dbuf 0060                                _main 14DE  
                              _prec 003D                                fsr0h 0FEA  
                              fsr1h 0FE2                     ??_print_AI_Temp 002E  
                              indf0 0FEF                                fsr2h 0FDA  
                              fsr0l 0FE9                                indf2 0FDF  
                              fsr1l 0FE1                                fsr2l 0FD9  
                              btemp 0053                  ?_live_reading_mode 0001  
             __end_of_parsing_notif 1898                                start 00D2  
                  __end_of_ADC_init 1910                        ___param_bank 0000  
               ??_live_reading_mode 0031                         ?_UART1_Init 0001  
                      _BAUDCON1bits 0FB8                    __end_of_LCD_init 1386  
                   __end_of___aldiv 0D12                     __end_of___almod 0FF4  
                             ?_main 0001                               STR_10 FF42  
                             STR_11 FFFB                               STR_12 FF9B  
                             STR_20 FFEC                               STR_21 FFC8  
                             STR_13 FFC2                               STR_22 FF99  
                             STR_30 FF90                               STR_14 FFF8  
                             STR_15 FF97                               STR_23 FFF8  
                             STR_31 FF8F                               STR_24 FFF4  
                             STR_16 FFF0                               STR_32 FF71  
                             STR_25 FFFD                               STR_17 FFCE  
                             STR_33 FF21                               STR_26 FFDA  
                             STR_18 FF97                               STR_34 FFE4  
                             STR_27 FFE8                               STR_19 FFD4  
                             STR_35 FF9D                               STR_28 FFBC  
                             STR_36 FFAB                               STR_29 FFDF  
                             STR_37 FF52                               STR_38 FFAB  
                   __end_of___lwdiv 1474                     __end_of___lwmod 15A6  
                             i2l156 00C6                        vfpfcnvrt@fmt 000C  
                             _TXREG 0FAD                               _A_rpm 0047  
                             _B_rpm 0045                 ___lmul@multiplicand 0007  
                  __end_of_UART_ISR 00D2                     __end_of_readADC 17C2  
            __end_of_UART1_SendChar 18C6                               _flags 004B  
      welcome_splash@CCP1IF_counter 0020                               _fputc 10CE  
         __end_of_live_reading_mode 1842                               _width 003B  
                             _putch 1914                               tablat 0FF5  
                 UART1_SendString@i 0008             ?_clear_diagnostic_codes 0001  
                             ttemp5 0054                               ttemp6 0057  
                             ttemp7 005B                               status 0FD8  
                             wtemp8 0054                     __end_of_sprintf 1756  
                   __initialization 165C                        __end_of_main 1542  
                 ?_LCD_write_string 0006                              ??_main 0035  
                     __activetblptr 0002                  ??_LCD_write_string 0008  
       __end_of_clear_parsing_notif 18B0                   __end_of_LCD_clear 1880  
                            _ADCON0 0FC2                              _ADCON1 0FC1  
                            _ADCON2 0FC0                     ?_UART1_SendChar 0001  
                            ?_fputc 0003                              _ADRESH 0FC4  
                            _ADRESL 0FC3                              _CCPR1H 0FBF  
                            _CCPR1L 0FBE                              ?_putch 0001  
                            _ANSELC 0F3A      __end_of_clear_diagnostic_codes 04F8  
                            i2l3200 0040                              i2l3210 0082  
                            i2l3202 0044                              i2l3220 00C2  
                            i2l3204 0054                              i2l3212 0084  
                            i2l3214 0096                              i2l3206 0064  
                            i2l3216 00A8                              i2l3208 0076  
                            i2l3218 00B8                              i2l3194 0012  
                            i2l3196 0020                              i2l3198 002E  
                            _RCREG1 0FAE                 _display_system_info 1756  
            LCD_write_string@string 0006                              _OSCCON 0FD3  
                            _SPBRG1 0FAF       clear_diagnostic_codes@opt_sel 000D  
                  _UART1_SendString 1606     LCD_write_variable@temp_variable 0018  
                      vfprintf@cfmt 001B                              ___lmul 1474  
                         ??___aldiv 000B                           ??___almod 000B  
                         ??___lwdiv 0007        ??_LCD_configure_cursor_blink 0006  
                         ??___lwmod 0007                              _buffer 0080  
              ?_display_system_info 0001                              clear_0 1682  
                            clear_1 168E                              isa$std 0001  
                            _result 0049                              _strchr 16E4  
                         ??_readADC 0005                              fputc@c 0003  
                      __pdataCOMRAM 004F                    ??_welcome_splash 001C  
                      __mediumconst FEFE                              tblptrh 0FF7  
                            tblptrl 0FF6                              tblptru 0FF8  
                         ?_ADC_init 0001                              putch@c 0001  
                  __end_of_vfprintf 16E4                           ??_sprintf 0022  
                      ?_print_Vbatt 0001                          __accesstop 0060  
           __end_of__initialization 1694                           ?_LCD_init 0001  
                     ___rparam_used 0001                     UART1_SendChar@c 0003  
                    __pcstackCOMRAM 0001                           ?_UART_ISR 0001  
                    _LCD_entry_mode 0051                   _LCD_write_command 0E0E  
                     __end_of_fputc 1178               ??_display_system_info 000C  
                     __end_of_putch 1916                      _LCD_cursor_set 15A6  
                ?_LCD_write_command 0001          __end_of_LCD_write_variable 09AA  
                 _hex_char_to_value 128C                  ?_hex_char_to_value 0001  
               ??_LCD_write_command 0003                          ??_ADC_init 0003  
                           ??_fputc 0006                             ??_putch 0003  
                        __pbssBANK0 0060                 ??_hex_char_to_value 0003  
                        ??_LCD_init 0007           __end_of_LCD_write_command 0F0A  
                           ?___lmul 0003                        ??_UART1_Init 0003  
                        ??_UART_ISR 0001              __end_of_LCD_cursor_set 1606  
                    ___lmul@product 000B           __end_of_hex_char_to_value 130A  
                 __end_of_ccp1_init 18D8                             ?_strchr 0003  
                           _SPBRGH1 0FB0                          _display_mm 17C2  
          LCD_write_command@command 0005                  __end_of_UART1_Init 181C  
                           _RX_char 004D               __end_of_print_AI_Temp 0C08  
                           __Hparam 0000                             __Lparam 0000  
__end_of_LCD_configure_cursor_blink 1864          _LCD_configure_cursor_blink 1842  
                  _message_complete 004C                             ___aldiv 0C08  
                           ___almod 0F0A                     ?_LCD_cursor_set 0006  
                    _LCD_write_data 0D12                             ___lwdiv 1400  
        LCD_write_variable@variable 0011                             ___lwmod 1542  
                         ?_vfprintf 0017                   __end_of_main_menu 030E  
                           __pcinit 165C                             __ramtop 1000  
                           __ptext0 14DE                             __ptext1 04F8  
                           __ptext2 18D8                             __ptext3 18C6  
                           __ptext4 0836                             __ptext5 1474  
                           __ptext6 0F0A                             __ptext7 0C08  
                           __ptext8 00D6                             __ptext9 181C  
                           _readADC 178C                           _T1CONbits 0FCD  
                  ??_UART1_SendChar 0003                    ___aldiv@dividend 0003  
          __end_of_UART1_SendString 165C                          _input_init 18E8  
                           _sprintf 171E                           _LCD_clear 1864  
              end_of_initialization 1694                   __end_of_tmr1_init 18E8  
                           fputc@fp 0005                       __Lmediumconst FEFE  
              LCD_cursor_set@column 0006                   __end_of_print_RPM 0AF2  
                     ?_print_ELMVer 0001                        _buffer_count 004E  
               _LCD_display_control 0052              __end_of_LCD_write_data 0E0E  
                 __end_of_vfpfcnvrt 0836                       ?_print_SAEVer 0001  
                         _RCSTAbits 0FAB                    ___aldiv@quotient 000D  
                           postdec1 0FE5                             postdec2 0FDD  
                           postinc0 0FEE                             postinc1 0FE6  
                           postinc2 0FDE                    vfpfcnvrt@convarg 0012  
                        ??_vfprintf 001B                             strchr@c 0004  
                           strchr@s 0003                           _PORTBbits 0F81  
                         _PORTCbits 0F82                   ??_LCD_pulse_clock 0003  
                        _rpm_string 00B0                           _TRISAbits 0F92  
                         _TRISBbits 0F93                           _TRISCbits 0F94  
                         _TRISDbits 0F95                         ?_display_mm 0001  
                        ?_LCD_clear 0001                     _air_intake_temp 003F  
                       _CCP1CONbits 0FBD                           _TXSTAbits 0FAC  
                    ??_print_ELMVer 000B                       _parsing_notif 1880  
                    ??_print_SAEVer 000B                     ?_LCD_write_data 0001  
                    __end_of___lmul 14DE                         vfpfcnvrt@ap 000D  
                       vfpfcnvrt@cp 0010                         vfpfcnvrt@fp 000B  
                     __pidataCOMRAM 1910                      __end_of_strchr 171E  
               start_initialization 165C                         ?_input_init 0001  
                _LCD_write_variable 0836                 LCD_write_variable@i 0016  
               ?_LCD_write_variable 0011                      ?_parsing_notif 0001  
       __end_of_display_system_info 178C                         vfprintf@fmt 0018  
                          ??___lmul 000B                            ??_strchr 0006  
              ??_LCD_write_variable 0016            ??_clear_diagnostic_codes 000B  
                       __pbssCOMRAM 0037                           _ccp1_init 18C6  
                       ??_LCD_clear 0006                    _LCD_write_string 1386  
                  ??_LCD_cursor_set 0007                    ___lwdiv@dividend 0003  
   LCD_configure_cursor_blink@state 0006                           __pintcode 0008  
                     __pmediumconst FEFE                            ?___aldiv 0003  
                          ?___almod 0003         ?_LCD_configure_cursor_blink 0001  
                          ?___lwdiv 0003                            ?___lwmod 0003  
            UART1_SendString@string 0004                    ___almod@dividend 0003  
                          ?_readADC 0003                         __smallconst FEFE  
                         _main_menu 00D6                          ?_ccp1_init 0001  
              __end_of_print_ELMVer 128C                            _ADC_init 1904  
              __end_of_print_SAEVer 1202                   ?_UART1_SendString 0004  
                  ___lwdiv@quotient 0007                            ?_sprintf 001D  
                LCD_write_data@data 0005                  ??_UART1_SendString 0006  
                   ___aldiv@divisor 0007                     ___aldiv@counter 000B  
                   ??_parsing_notif 000B                            _LATDbits 0F8C  
                          _LCD_init 130A                            _PIE1bits 0F9D  
                         _tmr1_init 18D8                            i2u230_40 0064  
                          i2u230_41 0060                            i2u231_40 0076  
                          i2u231_41 0072                            i2u232_40 0096  
                          i2u232_41 0092                            i2u233_40 00A8  
                          i2u233_41 00A4                            i2u234_40 00B8  
                          i2u226_40 0020                            i2u234_41 00B4  
                          i2u226_41 001C                            i2u227_40 002E  
                          i2u227_41 002A                            i2u228_40 0040  
                          i2u228_41 003C                            i2u229_40 0054  
                          i2u229_41 0050                            _PIR1bits 0F9E  
                   _LCD_pulse_clock 18F8                            _UART_ISR 0008  
                         _print_RPM 09AA                 _clear_parsing_notif 1898  
                         _vfpfcnvrt 06B0                          _ADCON0bits 0FC2  
                        ?_main_menu 0001                        ??_display_mm 000B  
                        vfpfcnvrt@c 0016                       ??_print_Vbatt 000B  
                 ___lmul@multiplier 0003                           copy_data0 1670  
              ?_clear_parsing_notif 0001                    ??_LCD_write_data 0003  
                        ?_tmr1_init 0001                            __Hrparam 0000  
          LCD_write_variable@digits 0017                           modff@F522 0037  
                        vfprintf@ap 001A                            __Lrparam 0000  
                        vfprintf@fp 0017                  hex_char_to_value@c 0003  
                 LCD_cursor_set@row 0007                          ?_print_RPM 0001  
                __end_of_display_mm 17F0                          ?_vfpfcnvrt 000B  
                        _ANSELAbits 0F38                          _ANSELBbits 0F39  
                        _ANSELCbits 0F3A                          sprintf@fmt 001E  
                       ??_ccp1_init 0003                     ___lwdiv@divisor 0005  
                   ___lwdiv@counter 0009                        ??_input_init 0003  
                          __ptext10 0FF4                            __ptext11 16E4  
                          __ptext20 1400                            __ptext12 09AA  
                          __ptext21 128C                            __ptext13 0AF2  
                          __ptext30 1386                            __ptext22 1756  
                          __ptext14 171E                            __ptext31 0D12  
                          __ptext23 1178                            __ptext15 16A2  
                          __ptext40 0E0E                            __ptext32 15A6  
                          __ptext24 1202                            __ptext16 06B0  
                          __ptext41 18F8                            __ptext33 1606  
                          __ptext25 030E                            __ptext17 10CE  
                          __ptext42 1904                            __ptext34 18B0  
                          __ptext26 178C                            __ptext18 1914  
                          __ptext35 1842                            __ptext27 1880  
                          __ptext19 1542                            __ptext36 18E8  
                          __ptext28 17C2                            __ptext37 17F0  
                          __ptext29 1898                            __ptext38 130A  
                          __ptext39 1864               ??_clear_parsing_notif 000B  
                   ___almod@divisor 0007                     ___almod@counter 000B  
                    _welcome_splash 04F8             __end_of_LCD_pulse_clock 1904  
                          _menu_sel 004F                 __end_of_print_Vbatt 10CE  
            _clear_diagnostic_codes 030E                       _print_AI_Temp 0AF2  
                          isa$xinst 0000                            int$flags 0053  
                          _vfprintf 16A2                  __end_of_input_init 18F8  
          __end_of_LCD_write_string 1400       LCD_write_variable@left_offset 0015  
                       ??_main_menu 0033                          _INTCONbits 0FF2  
            __end_of_welcome_splash 06B0                   LCD_write_string@i 000A  
                          intlevel2 0000                           sprintf@ap 0022  
                  ___lwmod@dividend 0003                         ??_tmr1_init 0003  
                        _RCSTA1bits 0FAB                      ?_print_AI_Temp 0001  
           welcome_splash@plug_flag 001E                        _print_ELMVer 1202  
                      _print_SAEVer 1178                          _UART1_Init 17F0  
                       ??_print_RPM 002E                         ??_vfpfcnvrt 000E  
                          sprintf@f 0023                            sprintf@s 001D  
                   ___lwmod@divisor 0005                        _A_air_intake 0041  
                   ___lwmod@counter 0007                        ___aldiv@sign 000C  
                   ?_welcome_splash 0001                         _print_Vbatt 0FF4  
                      ___almod@sign 000C                    ?_LCD_pulse_clock 0001  
