

Microchip MPLAB XC8 Assembler V3.00 build 20241204225717 
                                                                                               Mon Apr 28 16:53:03 2025

Microchip MPLAB XC8 C Compiler v3.00 (Free license) build 20241204225717 Og1 
     1                           	processor	18F46K22
     2                           	fnconf	rparam,??,?,0
     3                           	pagewidth 120
     4                           	opt	flic
     5                           	psect	idataCOMRAM,global,class=CODE,space=0,delta=1,noexec
     6                           	psect	smallconst,global,reloc=2,class=SMALLCONST,space=0,delta=1,noexec
     7                           	psect	cinit,global,reloc=2,class=CODE,space=0,delta=1
     8                           	psect	bssCOMRAM,global,class=COMRAM,space=1,delta=1,lowdata,noexec
     9                           	psect	dataCOMRAM,global,class=COMRAM,space=1,delta=1,lowdata,noexec
    10                           	psect	bssBANK0,global,class=BANK0,space=1,delta=1,lowdata,noexec
    11                           	psect	cstackBANK0,global,class=BANK0,space=1,delta=1,lowdata,noexec
    12                           	psect	cstackCOMRAM,global,class=COMRAM,space=1,delta=1,lowdata,noexec
    13                           	psect	text0,global,reloc=2,class=CODE,space=0,delta=1
    14                           	psect	text1,global,reloc=2,class=CODE,space=0,delta=1
    15                           	psect	text2,global,reloc=2,class=CODE,space=0,delta=1
    16                           	psect	text3,global,reloc=2,class=CODE,space=0,delta=1
    17                           	psect	text4,global,reloc=2,class=CODE,space=0,delta=1
    18                           	psect	text5,global,reloc=2,class=CODE,space=0,delta=1
    19                           	psect	text6,global,reloc=2,class=CODE,space=0,delta=1
    20                           	psect	text7,global,reloc=2,class=CODE,space=0,delta=1
    21                           	psect	text8,global,reloc=2,class=CODE,space=0,delta=1,group=3
    22                           	psect	text9,global,reloc=2,class=CODE,space=0,delta=1
    23                           	psect	text10,global,reloc=2,class=CODE,space=0,delta=1
    24                           	psect	text11,global,reloc=2,class=CODE,space=0,delta=1,group=3
    25                           	psect	text12,global,reloc=2,class=CODE,space=0,delta=1,group=1
    26                           	psect	text13,global,reloc=2,class=CODE,space=0,delta=1,group=1
    27                           	psect	text14,global,reloc=2,class=CODE,space=0,delta=1,group=3
    28                           	psect	text15,global,reloc=2,class=CODE,space=0,delta=1,group=3
    29                           	psect	text16,global,reloc=2,class=CODE,space=0,delta=1,group=2
    30                           	psect	text17,global,reloc=2,class=CODE,space=0,delta=1,group=2
    31                           	psect	text18,global,reloc=2,class=CODE,space=0,delta=1
    32                           	psect	text19,global,reloc=2,class=CODE,space=0,delta=1
    33                           	psect	text20,global,reloc=2,class=CODE,space=0,delta=1
    34                           	psect	text21,global,reloc=2,class=CODE,space=0,delta=1
    35                           	psect	text22,global,reloc=2,class=CODE,space=0,delta=1
    36                           	psect	text23,global,reloc=2,class=CODE,space=0,delta=1
    37                           	psect	text24,global,reloc=2,class=CODE,space=0,delta=1
    38                           	psect	text25,global,reloc=2,class=CODE,space=0,delta=1
    39                           	psect	text26,global,reloc=2,class=CODE,space=0,delta=1
    40                           	psect	text27,global,reloc=2,class=CODE,space=0,delta=1
    41                           	psect	text28,global,reloc=2,class=CODE,space=0,delta=1
    42                           	psect	text29,global,reloc=2,class=CODE,space=0,delta=1
    43                           	psect	text30,global,reloc=2,class=CODE,space=0,delta=1
    44                           	psect	text31,global,reloc=2,class=CODE,space=0,delta=1
    45                           	psect	text32,global,reloc=2,class=CODE,space=0,delta=1
    46                           	psect	text33,global,reloc=2,class=CODE,space=0,delta=1
    47                           	psect	text34,global,reloc=2,class=CODE,space=0,delta=1
    48                           	psect	text35,global,reloc=2,class=CODE,space=0,delta=1
    49                           	psect	intcode,global,reloc=2,class=CODE,space=0,delta=1
    50                           	psect	intsave_regs,global,class=BIGRAM,space=1,delta=1,noexec
    51                           	psect	rparam,global,class=COMRAM,space=1,delta=1,noexec
    52                           	psect	temp,global,ovrld,common,class=COMRAM,space=1,delta=1,lowdata
    53                           	psect	config,global,abs,ovrld,class=CONFIG,space=4,delta=1,noexec
    54   000000                     
    55                           ; Generated 12/10/2023 GMT
    56                           ; 
    57                           ; Copyright © 2023, Microchip Technology Inc. and its subsidiaries ("Microchip")
    58                           ; All rights reserved.
    59                           ; 
    60                           ; This software is developed by Microchip Technology Inc. and its subsidiaries ("Microch
      +                          ip").
    61                           ; 
    62                           ; Redistribution and use in source and binary forms, with or without modification, are
    63                           ; permitted provided that the following conditions are met:
    64                           ; 
    65                           ;     1. Redistributions of source code must retain the above copyright notice, this lis
      +                          t of
    66                           ;        conditions and the following disclaimer.
    67                           ; 
    68                           ;     2. Redistributions in binary form must reproduce the above copyright notice, this 
      +                          list
    69                           ;        of conditions and the following disclaimer in the documentation and/or other
    70                           ;        materials provided with the distribution. Publication is not required when
    71                           ;        this file is used in an embedded application.
    72                           ; 
    73                           ;     3. Microchip's name may not be used to endorse or promote products derived from th
      +                          is
    74                           ;        software without specific prior written permission.
    75                           ; 
    76                           ; THIS SOFTWARE IS PROVIDED BY MICROCHIP "AS IS" AND ANY EXPRESS OR IMPLIED WARRANTIES,
    77                           ; INCLUDING, BUT NOT LIMITED TO, THE IMPLIED WARRANTIES OF MERCHANTABILITY AND FITNESS F
      +                          OR
    78                           ; PURPOSE ARE DISCLAIMED.  IN NO EVENT SHALL MICROCHIP BE LIABLE FOR ANY DIRECT, INDIREC
      +                          T,
    79                           ; INCIDENTAL, SPECIAL, EXEMPLARY, OR CONSEQUENTIAL DAMAGES (INCLUDING BUT NOT LIMITED TO
    80                           ; PROCUREMENT OF SUBSTITUTE GOODS OR SERVICES; LOSS OF USE, DATA OR PROFITS; OR BUSINESS
    81                           ; INTERRUPTION) HOWSOEVER CAUSED AND ON ANY THEORY OF LIABILITY, WHETHER IN CONTRACT, ST
      +                          RICT
    82                           ; LIABILITY, OR TORT (INCLUDING NEGLIGENCE OR OTHERWISE) ARISING IN ANY WAY OUT OF THE U
      +                          SE OF
    83                           ; THIS SOFTWARE, EVEN IF ADVISED OF THE POSSIBILITY OF SUCH DAMAGE.
    84                           ; 
    85                           ; 
    86                           ; Code-generator required, PIC18F46K22 Definitions
    87                           ; 
    88                           ; SFR Addresses
    89   000FE0                     bsr             equ	4064
    90   000FE9                     fsr0            equ	4073
    91   000FEA                     fsr0h           equ	4074
    92   000FE9                     fsr0l           equ	4073
    93   000FE1                     fsr1            equ	4065
    94   000FE2                     fsr1h           equ	4066
    95   000FE1                     fsr1l           equ	4065
    96   000FD9                     fsr2            equ	4057
    97   000FDA                     fsr2h           equ	4058
    98   000FD9                     fsr2l           equ	4057
    99   000FEF                     indf0           equ	4079
   100   000FE7                     indf1           equ	4071
   101   000FDF                     indf2           equ	4063
   102   000FF2                     intcon          equ	4082
   103   000000                     nvmcon          equ	0
   104   000FF9                     pcl             equ	4089
   105   000FFA                     pclath          equ	4090
   106   000FFB                     pclatu          equ	4091
   107   000FEB                     plusw0          equ	4075
   108   000FE3                     plusw1          equ	4067
   109   000FDB                     plusw2          equ	4059
   110   000FED                     postdec0        equ	4077
   111   000FE5                     postdec1        equ	4069
   112   000FDD                     postdec2        equ	4061
   113   000FEE                     postinc0        equ	4078
   114   000FE6                     postinc1        equ	4070
   115   000FDE                     postinc2        equ	4062
   116   000FEC                     preinc0         equ	4076
   117   000FE4                     preinc1         equ	4068
   118   000FDC                     preinc2         equ	4060
   119   000FF3                     prod            equ	4083
   120   000FF4                     prodh           equ	4084
   121   000FF3                     prodl           equ	4083
   122   000FD8                     status          equ	4056
   123   000FF5                     tablat          equ	4085
   124   000FF6                     tblptr          equ	4086
   125   000FF7                     tblptrh         equ	4087
   126   000FF6                     tblptrl         equ	4086
   127   000FF8                     tblptru         equ	4088
   128   000FFD                     tosl            equ	4093
   129   000FE8                     wreg            equ	4072
   130   000F38                     ANSELA          equ	3896	;# 
   131   000F39                     ANSELB          equ	3897	;# 
   132   000F3A                     ANSELC          equ	3898	;# 
   133   000F3B                     ANSELD          equ	3899	;# 
   134   000F3C                     ANSELE          equ	3900	;# 
   135   000F3D                     PMD2            equ	3901	;# 
   136   000F3E                     PMD1            equ	3902	;# 
   137   000F3F                     PMD0            equ	3903	;# 
   138   000F40                     VREFCON2        equ	3904	;# 
   139   000F40                     DACCON1         equ	3904	;# 
   140   000F41                     VREFCON1        equ	3905	;# 
   141   000F41                     DACCON0         equ	3905	;# 
   142   000F42                     VREFCON0        equ	3906	;# 
   143   000F42                     FVRCON          equ	3906	;# 
   144   000F43                     CTMUICON        equ	3907	;# 
   145   000F43                     CTMUICONH       equ	3907	;# 
   146   000F44                     CTMUCONL        equ	3908	;# 
   147   000F44                     CTMUCON1        equ	3908	;# 
   148   000F45                     CTMUCONH        equ	3909	;# 
   149   000F45                     CTMUCON0        equ	3909	;# 
   150   000F46                     SRCON1          equ	3910	;# 
   151   000F47                     SRCON0          equ	3911	;# 
   152   000F48                     CCPTMRS1        equ	3912	;# 
   153   000F49                     CCPTMRS0        equ	3913	;# 
   154   000F4A                     T6CON           equ	3914	;# 
   155   000F4B                     PR6             equ	3915	;# 
   156   000F4C                     TMR6            equ	3916	;# 
   157   000F4D                     T5GCON          equ	3917	;# 
   158   000F4E                     T5CON           equ	3918	;# 
   159   000F4F                     TMR5            equ	3919	;# 
   160   000F4F                     TMR5L           equ	3919	;# 
   161   000F50                     TMR5H           equ	3920	;# 
   162   000F51                     T4CON           equ	3921	;# 
   163   000F52                     PR4             equ	3922	;# 
   164   000F53                     TMR4            equ	3923	;# 
   165   000F54                     CCP5CON         equ	3924	;# 
   166   000F55                     CCPR5           equ	3925	;# 
   167   000F55                     CCPR5L          equ	3925	;# 
   168   000F56                     CCPR5H          equ	3926	;# 
   169   000F57                     CCP4CON         equ	3927	;# 
   170   000F58                     CCPR4           equ	3928	;# 
   171   000F58                     CCPR4L          equ	3928	;# 
   172   000F59                     CCPR4H          equ	3929	;# 
   173   000F5A                     PSTR3CON        equ	3930	;# 
   174   000F5B                     ECCP3AS         equ	3931	;# 
   175   000F5B                     CCP3AS          equ	3931	;# 
   176   000F5C                     PWM3CON         equ	3932	;# 
   177   000F5D                     CCP3CON         equ	3933	;# 
   178   000F5E                     CCPR3           equ	3934	;# 
   179   000F5E                     CCPR3L          equ	3934	;# 
   180   000F5F                     CCPR3H          equ	3935	;# 
   181   000F60                     SLRCON          equ	3936	;# 
   182   000F61                     WPUB            equ	3937	;# 
   183   000F62                     IOCB            equ	3938	;# 
   184   000F63                     PSTR2CON        equ	3939	;# 
   185   000F64                     ECCP2AS         equ	3940	;# 
   186   000F64                     CCP2AS          equ	3940	;# 
   187   000F65                     PWM2CON         equ	3941	;# 
   188   000F66                     CCP2CON         equ	3942	;# 
   189   000F67                     CCPR2           equ	3943	;# 
   190   000F67                     CCPR2L          equ	3943	;# 
   191   000F68                     CCPR2H          equ	3944	;# 
   192   000F69                     SSP2CON3        equ	3945	;# 
   193   000F6A                     SSP2MSK         equ	3946	;# 
   194   000F6B                     SSP2CON2        equ	3947	;# 
   195   000F6C                     SSP2CON1        equ	3948	;# 
   196   000F6D                     SSP2STAT        equ	3949	;# 
   197   000F6E                     SSP2ADD         equ	3950	;# 
   198   000F6F                     SSP2BUF         equ	3951	;# 
   199   000F70                     BAUDCON2        equ	3952	;# 
   200   000F70                     BAUD2CON        equ	3952	;# 
   201   000F71                     RCSTA2          equ	3953	;# 
   202   000F71                     RC2STA          equ	3953	;# 
   203   000F72                     TXSTA2          equ	3954	;# 
   204   000F72                     TX2STA          equ	3954	;# 
   205   000F73                     TXREG2          equ	3955	;# 
   206   000F73                     TX2REG          equ	3955	;# 
   207   000F74                     RCREG2          equ	3956	;# 
   208   000F74                     RC2REG          equ	3956	;# 
   209   000F75                     SPBRG2          equ	3957	;# 
   210   000F75                     SP2BRG          equ	3957	;# 
   211   000F76                     SPBRGH2         equ	3958	;# 
   212   000F76                     SP2BRGH         equ	3958	;# 
   213   000F77                     CM2CON1         equ	3959	;# 
   214   000F77                     CM12CON         equ	3959	;# 
   215   000F78                     CM2CON0         equ	3960	;# 
   216   000F78                     CM2CON          equ	3960	;# 
   217   000F79                     CM1CON0         equ	3961	;# 
   218   000F79                     CM1CON          equ	3961	;# 
   219   000F7A                     PIE4            equ	3962	;# 
   220   000F7B                     PIR4            equ	3963	;# 
   221   000F7C                     IPR4            equ	3964	;# 
   222   000F7D                     PIE5            equ	3965	;# 
   223   000F7E                     PIR5            equ	3966	;# 
   224   000F7F                     IPR5            equ	3967	;# 
   225   000F80                     PORTA           equ	3968	;# 
   226   000F81                     PORTB           equ	3969	;# 
   227   000F82                     PORTC           equ	3970	;# 
   228   000F83                     PORTD           equ	3971	;# 
   229   000F84                     PORTE           equ	3972	;# 
   230   000F89                     LATA            equ	3977	;# 
   231   000F8A                     LATB            equ	3978	;# 
   232   000F8B                     LATC            equ	3979	;# 
   233   000F8C                     LATD            equ	3980	;# 
   234   000F8D                     LATE            equ	3981	;# 
   235   000F92                     TRISA           equ	3986	;# 
   236   000F92                     DDRA            equ	3986	;# 
   237   000F93                     TRISB           equ	3987	;# 
   238   000F93                     DDRB            equ	3987	;# 
   239   000F94                     TRISC           equ	3988	;# 
   240   000F94                     DDRC            equ	3988	;# 
   241   000F95                     TRISD           equ	3989	;# 
   242   000F95                     DDRD            equ	3989	;# 
   243   000F96                     TRISE           equ	3990	;# 
   244   000F96                     DDRE            equ	3990	;# 
   245   000F9B                     OSCTUNE         equ	3995	;# 
   246   000F9C                     HLVDCON         equ	3996	;# 
   247   000F9C                     LVDCON          equ	3996	;# 
   248   000F9D                     PIE1            equ	3997	;# 
   249   000F9E                     PIR1            equ	3998	;# 
   250   000F9F                     IPR1            equ	3999	;# 
   251   000FA0                     PIE2            equ	4000	;# 
   252   000FA1                     PIR2            equ	4001	;# 
   253   000FA2                     IPR2            equ	4002	;# 
   254   000FA3                     PIE3            equ	4003	;# 
   255   000FA4                     PIR3            equ	4004	;# 
   256   000FA5                     IPR3            equ	4005	;# 
   257   000FA6                     EECON1          equ	4006	;# 
   258   000FA7                     EECON2          equ	4007	;# 
   259   000FA8                     EEDATA          equ	4008	;# 
   260   000FA9                     EEADR           equ	4009	;# 
   261   000FAA                     EEADRH          equ	4010	;# 
   262   000FAB                     RCSTA1          equ	4011	;# 
   263   000FAB                     RCSTA           equ	4011	;# 
   264   000FAB                     RC1STA          equ	4011	;# 
   265   000FAC                     TXSTA1          equ	4012	;# 
   266   000FAC                     TXSTA           equ	4012	;# 
   267   000FAC                     TX1STA          equ	4012	;# 
   268   000FAD                     TXREG1          equ	4013	;# 
   269   000FAD                     TXREG           equ	4013	;# 
   270   000FAD                     TX1REG          equ	4013	;# 
   271   000FAE                     RCREG1          equ	4014	;# 
   272   000FAE                     RCREG           equ	4014	;# 
   273   000FAE                     RC1REG          equ	4014	;# 
   274   000FAF                     SPBRG1          equ	4015	;# 
   275   000FAF                     SPBRG           equ	4015	;# 
   276   000FAF                     SP1BRG          equ	4015	;# 
   277   000FB0                     SPBRGH1         equ	4016	;# 
   278   000FB0                     SPBRGH          equ	4016	;# 
   279   000FB0                     SP1BRGH         equ	4016	;# 
   280   000FB1                     T3CON           equ	4017	;# 
   281   000FB2                     TMR3            equ	4018	;# 
   282   000FB2                     TMR3L           equ	4018	;# 
   283   000FB3                     TMR3H           equ	4019	;# 
   284   000FB4                     T3GCON          equ	4020	;# 
   285   000FB6                     ECCP1AS         equ	4022	;# 
   286   000FB6                     ECCPAS          equ	4022	;# 
   287   000FB7                     PWM1CON         equ	4023	;# 
   288   000FB7                     PWMCON          equ	4023	;# 
   289   000FB8                     BAUDCON1        equ	4024	;# 
   290   000FB8                     BAUDCON         equ	4024	;# 
   291   000FB8                     BAUDCTL         equ	4024	;# 
   292   000FB8                     BAUD1CON        equ	4024	;# 
   293   000FB9                     PSTR1CON        equ	4025	;# 
   294   000FB9                     PSTRCON         equ	4025	;# 
   295   000FBA                     T2CON           equ	4026	;# 
   296   000FBB                     PR2             equ	4027	;# 
   297   000FBC                     TMR2            equ	4028	;# 
   298   000FBD                     CCP1CON         equ	4029	;# 
   299   000FBE                     CCPR1           equ	4030	;# 
   300   000FBE                     CCPR1L          equ	4030	;# 
   301   000FBF                     CCPR1H          equ	4031	;# 
   302   000FC0                     ADCON2          equ	4032	;# 
   303   000FC1                     ADCON1          equ	4033	;# 
   304   000FC2                     ADCON0          equ	4034	;# 
   305   000FC3                     ADRES           equ	4035	;# 
   306   000FC3                     ADRESL          equ	4035	;# 
   307   000FC4                     ADRESH          equ	4036	;# 
   308   000FC5                     SSP1CON2        equ	4037	;# 
   309   000FC5                     SSPCON2         equ	4037	;# 
   310   000FC6                     SSP1CON1        equ	4038	;# 
   311   000FC6                     SSPCON1         equ	4038	;# 
   312   000FC7                     SSP1STAT        equ	4039	;# 
   313   000FC7                     SSPSTAT         equ	4039	;# 
   314   000FC8                     SSP1ADD         equ	4040	;# 
   315   000FC8                     SSPADD          equ	4040	;# 
   316   000FC9                     SSP1BUF         equ	4041	;# 
   317   000FC9                     SSPBUF          equ	4041	;# 
   318   000FCA                     SSP1MSK         equ	4042	;# 
   319   000FCA                     SSPMSK          equ	4042	;# 
   320   000FCB                     SSP1CON3        equ	4043	;# 
   321   000FCB                     SSPCON3         equ	4043	;# 
   322   000FCC                     T1GCON          equ	4044	;# 
   323   000FCD                     T1CON           equ	4045	;# 
   324   000FCE                     TMR1            equ	4046	;# 
   325   000FCE                     TMR1L           equ	4046	;# 
   326   000FCF                     TMR1H           equ	4047	;# 
   327   000FD0                     RCON            equ	4048	;# 
   328   000FD1                     WDTCON          equ	4049	;# 
   329   000FD2                     OSCCON2         equ	4050	;# 
   330   000FD3                     OSCCON          equ	4051	;# 
   331   000FD5                     T0CON           equ	4053	;# 
   332   000FD6                     TMR0            equ	4054	;# 
   333   000FD6                     TMR0L           equ	4054	;# 
   334   000FD7                     TMR0H           equ	4055	;# 
   335   000FD8                     STATUS          equ	4056	;# 
   336   000FD9                     FSR2            equ	4057	;# 
   337   000FD9                     FSR2L           equ	4057	;# 
   338   000FDA                     FSR2H           equ	4058	;# 
   339   000FDB                     PLUSW2          equ	4059	;# 
   340   000FDC                     PREINC2         equ	4060	;# 
   341   000FDD                     POSTDEC2        equ	4061	;# 
   342   000FDE                     POSTINC2        equ	4062	;# 
   343   000FDF                     INDF2           equ	4063	;# 
   344   000FE0                     BSR             equ	4064	;# 
   345   000FE1                     FSR1            equ	4065	;# 
   346   000FE1                     FSR1L           equ	4065	;# 
   347   000FE2                     FSR1H           equ	4066	;# 
   348   000FE3                     PLUSW1          equ	4067	;# 
   349   000FE4                     PREINC1         equ	4068	;# 
   350   000FE5                     POSTDEC1        equ	4069	;# 
   351   000FE6                     POSTINC1        equ	4070	;# 
   352   000FE7                     INDF1           equ	4071	;# 
   353   000FE8                     WREG            equ	4072	;# 
   354   000FE9                     FSR0            equ	4073	;# 
   355   000FE9                     FSR0L           equ	4073	;# 
   356   000FEA                     FSR0H           equ	4074	;# 
   357   000FEB                     PLUSW0          equ	4075	;# 
   358   000FEC                     PREINC0         equ	4076	;# 
   359   000FED                     POSTDEC0        equ	4077	;# 
   360   000FEE                     POSTINC0        equ	4078	;# 
   361   000FEF                     INDF0           equ	4079	;# 
   362   000FF0                     INTCON3         equ	4080	;# 
   363   000FF1                     INTCON2         equ	4081	;# 
   364   000FF2                     INTCON          equ	4082	;# 
   365   000FF3                     PROD            equ	4083	;# 
   366   000FF3                     PRODL           equ	4083	;# 
   367   000FF4                     PRODH           equ	4084	;# 
   368   000FF5                     TABLAT          equ	4085	;# 
   369   000FF6                     TBLPTR          equ	4086	;# 
   370   000FF6                     TBLPTRL         equ	4086	;# 
   371   000FF7                     TBLPTRH         equ	4087	;# 
   372   000FF8                     TBLPTRU         equ	4088	;# 
   373   000FF9                     PCLAT           equ	4089	;# 
   374   000FF9                     PC              equ	4089	;# 
   375   000FF9                     PCL             equ	4089	;# 
   376   000FFA                     PCLATH          equ	4090	;# 
   377   000FFB                     PCLATU          equ	4091	;# 
   378   000FFC                     STKPTR          equ	4092	;# 
   379   000FFD                     TOS             equ	4093	;# 
   380   000FFD                     TOSL            equ	4093	;# 
   381   000FFE                     TOSH            equ	4094	;# 
   382   000FFF                     TOSU            equ	4095	;# 
   383   000F38                     ANSELA          equ	3896	;# 
   384   000F39                     ANSELB          equ	3897	;# 
   385   000F3A                     ANSELC          equ	3898	;# 
   386   000F3B                     ANSELD          equ	3899	;# 
   387   000F3C                     ANSELE          equ	3900	;# 
   388   000F3D                     PMD2            equ	3901	;# 
   389   000F3E                     PMD1            equ	3902	;# 
   390   000F3F                     PMD0            equ	3903	;# 
   391   000F40                     VREFCON2        equ	3904	;# 
   392   000F40                     DACCON1         equ	3904	;# 
   393   000F41                     VREFCON1        equ	3905	;# 
   394   000F41                     DACCON0         equ	3905	;# 
   395   000F42                     VREFCON0        equ	3906	;# 
   396   000F42                     FVRCON          equ	3906	;# 
   397   000F43                     CTMUICON        equ	3907	;# 
   398   000F43                     CTMUICONH       equ	3907	;# 
   399   000F44                     CTMUCONL        equ	3908	;# 
   400   000F44                     CTMUCON1        equ	3908	;# 
   401   000F45                     CTMUCONH        equ	3909	;# 
   402   000F45                     CTMUCON0        equ	3909	;# 
   403   000F46                     SRCON1          equ	3910	;# 
   404   000F47                     SRCON0          equ	3911	;# 
   405   000F48                     CCPTMRS1        equ	3912	;# 
   406   000F49                     CCPTMRS0        equ	3913	;# 
   407   000F4A                     T6CON           equ	3914	;# 
   408   000F4B                     PR6             equ	3915	;# 
   409   000F4C                     TMR6            equ	3916	;# 
   410   000F4D                     T5GCON          equ	3917	;# 
   411   000F4E                     T5CON           equ	3918	;# 
   412   000F4F                     TMR5            equ	3919	;# 
   413   000F4F                     TMR5L           equ	3919	;# 
   414   000F50                     TMR5H           equ	3920	;# 
   415   000F51                     T4CON           equ	3921	;# 
   416   000F52                     PR4             equ	3922	;# 
   417   000F53                     TMR4            equ	3923	;# 
   418   000F54                     CCP5CON         equ	3924	;# 
   419   000F55                     CCPR5           equ	3925	;# 
   420   000F55                     CCPR5L          equ	3925	;# 
   421   000F56                     CCPR5H          equ	3926	;# 
   422   000F57                     CCP4CON         equ	3927	;# 
   423   000F58                     CCPR4           equ	3928	;# 
   424   000F58                     CCPR4L          equ	3928	;# 
   425   000F59                     CCPR4H          equ	3929	;# 
   426   000F5A                     PSTR3CON        equ	3930	;# 
   427   000F5B                     ECCP3AS         equ	3931	;# 
   428   000F5B                     CCP3AS          equ	3931	;# 
   429   000F5C                     PWM3CON         equ	3932	;# 
   430   000F5D                     CCP3CON         equ	3933	;# 
   431   000F5E                     CCPR3           equ	3934	;# 
   432   000F5E                     CCPR3L          equ	3934	;# 
   433   000F5F                     CCPR3H          equ	3935	;# 
   434   000F60                     SLRCON          equ	3936	;# 
   435   000F61                     WPUB            equ	3937	;# 
   436   000F62                     IOCB            equ	3938	;# 
   437   000F63                     PSTR2CON        equ	3939	;# 
   438   000F64                     ECCP2AS         equ	3940	;# 
   439   000F64                     CCP2AS          equ	3940	;# 
   440   000F65                     PWM2CON         equ	3941	;# 
   441   000F66                     CCP2CON         equ	3942	;# 
   442   000F67                     CCPR2           equ	3943	;# 
   443   000F67                     CCPR2L          equ	3943	;# 
   444   000F68                     CCPR2H          equ	3944	;# 
   445   000F69                     SSP2CON3        equ	3945	;# 
   446   000F6A                     SSP2MSK         equ	3946	;# 
   447   000F6B                     SSP2CON2        equ	3947	;# 
   448   000F6C                     SSP2CON1        equ	3948	;# 
   449   000F6D                     SSP2STAT        equ	3949	;# 
   450   000F6E                     SSP2ADD         equ	3950	;# 
   451   000F6F                     SSP2BUF         equ	3951	;# 
   452   000F70                     BAUDCON2        equ	3952	;# 
   453   000F70                     BAUD2CON        equ	3952	;# 
   454   000F71                     RCSTA2          equ	3953	;# 
   455   000F71                     RC2STA          equ	3953	;# 
   456   000F72                     TXSTA2          equ	3954	;# 
   457   000F72                     TX2STA          equ	3954	;# 
   458   000F73                     TXREG2          equ	3955	;# 
   459   000F73                     TX2REG          equ	3955	;# 
   460   000F74                     RCREG2          equ	3956	;# 
   461   000F74                     RC2REG          equ	3956	;# 
   462   000F75                     SPBRG2          equ	3957	;# 
   463   000F75                     SP2BRG          equ	3957	;# 
   464   000F76                     SPBRGH2         equ	3958	;# 
   465   000F76                     SP2BRGH         equ	3958	;# 
   466   000F77                     CM2CON1         equ	3959	;# 
   467   000F77                     CM12CON         equ	3959	;# 
   468   000F78                     CM2CON0         equ	3960	;# 
   469   000F78                     CM2CON          equ	3960	;# 
   470   000F79                     CM1CON0         equ	3961	;# 
   471   000F79                     CM1CON          equ	3961	;# 
   472   000F7A                     PIE4            equ	3962	;# 
   473   000F7B                     PIR4            equ	3963	;# 
   474   000F7C                     IPR4            equ	3964	;# 
   475   000F7D                     PIE5            equ	3965	;# 
   476   000F7E                     PIR5            equ	3966	;# 
   477   000F7F                     IPR5            equ	3967	;# 
   478   000F80                     PORTA           equ	3968	;# 
   479   000F81                     PORTB           equ	3969	;# 
   480   000F82                     PORTC           equ	3970	;# 
   481   000F83                     PORTD           equ	3971	;# 
   482   000F84                     PORTE           equ	3972	;# 
   483   000F89                     LATA            equ	3977	;# 
   484   000F8A                     LATB            equ	3978	;# 
   485   000F8B                     LATC            equ	3979	;# 
   486   000F8C                     LATD            equ	3980	;# 
   487   000F8D                     LATE            equ	3981	;# 
   488   000F92                     TRISA           equ	3986	;# 
   489   000F92                     DDRA            equ	3986	;# 
   490   000F93                     TRISB           equ	3987	;# 
   491   000F93                     DDRB            equ	3987	;# 
   492   000F94                     TRISC           equ	3988	;# 
   493   000F94                     DDRC            equ	3988	;# 
   494   000F95                     TRISD           equ	3989	;# 
   495   000F95                     DDRD            equ	3989	;# 
   496   000F96                     TRISE           equ	3990	;# 
   497   000F96                     DDRE            equ	3990	;# 
   498   000F9B                     OSCTUNE         equ	3995	;# 
   499   000F9C                     HLVDCON         equ	3996	;# 
   500   000F9C                     LVDCON          equ	3996	;# 
   501   000F9D                     PIE1            equ	3997	;# 
   502   000F9E                     PIR1            equ	3998	;# 
   503   000F9F                     IPR1            equ	3999	;# 
   504   000FA0                     PIE2            equ	4000	;# 
   505   000FA1                     PIR2            equ	4001	;# 
   506   000FA2                     IPR2            equ	4002	;# 
   507   000FA3                     PIE3            equ	4003	;# 
   508   000FA4                     PIR3            equ	4004	;# 
   509   000FA5                     IPR3            equ	4005	;# 
   510   000FA6                     EECON1          equ	4006	;# 
   511   000FA7                     EECON2          equ	4007	;# 
   512   000FA8                     EEDATA          equ	4008	;# 
   513   000FA9                     EEADR           equ	4009	;# 
   514   000FAA                     EEADRH          equ	4010	;# 
   515   000FAB                     RCSTA1          equ	4011	;# 
   516   000FAB                     RCSTA           equ	4011	;# 
   517   000FAB                     RC1STA          equ	4011	;# 
   518   000FAC                     TXSTA1          equ	4012	;# 
   519   000FAC                     TXSTA           equ	4012	;# 
   520   000FAC                     TX1STA          equ	4012	;# 
   521   000FAD                     TXREG1          equ	4013	;# 
   522   000FAD                     TXREG           equ	4013	;# 
   523   000FAD                     TX1REG          equ	4013	;# 
   524   000FAE                     RCREG1          equ	4014	;# 
   525   000FAE                     RCREG           equ	4014	;# 
   526   000FAE                     RC1REG          equ	4014	;# 
   527   000FAF                     SPBRG1          equ	4015	;# 
   528   000FAF                     SPBRG           equ	4015	;# 
   529   000FAF                     SP1BRG          equ	4015	;# 
   530   000FB0                     SPBRGH1         equ	4016	;# 
   531   000FB0                     SPBRGH          equ	4016	;# 
   532   000FB0                     SP1BRGH         equ	4016	;# 
   533   000FB1                     T3CON           equ	4017	;# 
   534   000FB2                     TMR3            equ	4018	;# 
   535   000FB2                     TMR3L           equ	4018	;# 
   536   000FB3                     TMR3H           equ	4019	;# 
   537   000FB4                     T3GCON          equ	4020	;# 
   538   000FB6                     ECCP1AS         equ	4022	;# 
   539   000FB6                     ECCPAS          equ	4022	;# 
   540   000FB7                     PWM1CON         equ	4023	;# 
   541   000FB7                     PWMCON          equ	4023	;# 
   542   000FB8                     BAUDCON1        equ	4024	;# 
   543   000FB8                     BAUDCON         equ	4024	;# 
   544   000FB8                     BAUDCTL         equ	4024	;# 
   545   000FB8                     BAUD1CON        equ	4024	;# 
   546   000FB9                     PSTR1CON        equ	4025	;# 
   547   000FB9                     PSTRCON         equ	4025	;# 
   548   000FBA                     T2CON           equ	4026	;# 
   549   000FBB                     PR2             equ	4027	;# 
   550   000FBC                     TMR2            equ	4028	;# 
   551   000FBD                     CCP1CON         equ	4029	;# 
   552   000FBE                     CCPR1           equ	4030	;# 
   553   000FBE                     CCPR1L          equ	4030	;# 
   554   000FBF                     CCPR1H          equ	4031	;# 
   555   000FC0                     ADCON2          equ	4032	;# 
   556   000FC1                     ADCON1          equ	4033	;# 
   557   000FC2                     ADCON0          equ	4034	;# 
   558   000FC3                     ADRES           equ	4035	;# 
   559   000FC3                     ADRESL          equ	4035	;# 
   560   000FC4                     ADRESH          equ	4036	;# 
   561   000FC5                     SSP1CON2        equ	4037	;# 
   562   000FC5                     SSPCON2         equ	4037	;# 
   563   000FC6                     SSP1CON1        equ	4038	;# 
   564   000FC6                     SSPCON1         equ	4038	;# 
   565   000FC7                     SSP1STAT        equ	4039	;# 
   566   000FC7                     SSPSTAT         equ	4039	;# 
   567   000FC8                     SSP1ADD         equ	4040	;# 
   568   000FC8                     SSPADD          equ	4040	;# 
   569   000FC9                     SSP1BUF         equ	4041	;# 
   570   000FC9                     SSPBUF          equ	4041	;# 
   571   000FCA                     SSP1MSK         equ	4042	;# 
   572   000FCA                     SSPMSK          equ	4042	;# 
   573   000FCB                     SSP1CON3        equ	4043	;# 
   574   000FCB                     SSPCON3         equ	4043	;# 
   575   000FCC                     T1GCON          equ	4044	;# 
   576   000FCD                     T1CON           equ	4045	;# 
   577   000FCE                     TMR1            equ	4046	;# 
   578   000FCE                     TMR1L           equ	4046	;# 
   579   000FCF                     TMR1H           equ	4047	;# 
   580   000FD0                     RCON            equ	4048	;# 
   581   000FD1                     WDTCON          equ	4049	;# 
   582   000FD2                     OSCCON2         equ	4050	;# 
   583   000FD3                     OSCCON          equ	4051	;# 
   584   000FD5                     T0CON           equ	4053	;# 
   585   000FD6                     TMR0            equ	4054	;# 
   586   000FD6                     TMR0L           equ	4054	;# 
   587   000FD7                     TMR0H           equ	4055	;# 
   588   000FD8                     STATUS          equ	4056	;# 
   589   000FD9                     FSR2            equ	4057	;# 
   590   000FD9                     FSR2L           equ	4057	;# 
   591   000FDA                     FSR2H           equ	4058	;# 
   592   000FDB                     PLUSW2          equ	4059	;# 
   593   000FDC                     PREINC2         equ	4060	;# 
   594   000FDD                     POSTDEC2        equ	4061	;# 
   595   000FDE                     POSTINC2        equ	4062	;# 
   596   000FDF                     INDF2           equ	4063	;# 
   597   000FE0                     BSR             equ	4064	;# 
   598   000FE1                     FSR1            equ	4065	;# 
   599   000FE1                     FSR1L           equ	4065	;# 
   600   000FE2                     FSR1H           equ	4066	;# 
   601   000FE3                     PLUSW1          equ	4067	;# 
   602   000FE4                     PREINC1         equ	4068	;# 
   603   000FE5                     POSTDEC1        equ	4069	;# 
   604   000FE6                     POSTINC1        equ	4070	;# 
   605   000FE7                     INDF1           equ	4071	;# 
   606   000FE8                     WREG            equ	4072	;# 
   607   000FE9                     FSR0            equ	4073	;# 
   608   000FE9                     FSR0L           equ	4073	;# 
   609   000FEA                     FSR0H           equ	4074	;# 
   610   000FEB                     PLUSW0          equ	4075	;# 
   611   000FEC                     PREINC0         equ	4076	;# 
   612   000FED                     POSTDEC0        equ	4077	;# 
   613   000FEE                     POSTINC0        equ	4078	;# 
   614   000FEF                     INDF0           equ	4079	;# 
   615   000FF0                     INTCON3         equ	4080	;# 
   616   000FF1                     INTCON2         equ	4081	;# 
   617   000FF2                     INTCON          equ	4082	;# 
   618   000FF3                     PROD            equ	4083	;# 
   619   000FF3                     PRODL           equ	4083	;# 
   620   000FF4                     PRODH           equ	4084	;# 
   621   000FF5                     TABLAT          equ	4085	;# 
   622   000FF6                     TBLPTR          equ	4086	;# 
   623   000FF6                     TBLPTRL         equ	4086	;# 
   624   000FF7                     TBLPTRH         equ	4087	;# 
   625   000FF8                     TBLPTRU         equ	4088	;# 
   626   000FF9                     PCLAT           equ	4089	;# 
   627   000FF9                     PC              equ	4089	;# 
   628   000FF9                     PCL             equ	4089	;# 
   629   000FFA                     PCLATH          equ	4090	;# 
   630   000FFB                     PCLATU          equ	4091	;# 
   631   000FFC                     STKPTR          equ	4092	;# 
   632   000FFD                     TOS             equ	4093	;# 
   633   000FFD                     TOSL            equ	4093	;# 
   634   000FFE                     TOSH            equ	4094	;# 
   635   000FFF                     TOSU            equ	4095	;# 
   636                           
   637                           	psect	idataCOMRAM
   638   002060                     __pidataCOMRAM:
   639                           	callstack 0
   640                           
   641                           ;initializer for _LCD_entry_mode
   642   002060  06                 	db	6
   643                           
   644                           ;initializer for _LCD_display_control
   645   002061  0C                 	db	12
   646   000F3A                     _ANSELC         set	3898
   647   000F38                     _ANSELAbits     set	3896
   648   000F3A                     _ANSELCbits     set	3898
   649   000F39                     _ANSELBbits     set	3897
   650   000F95                     _TRISDbits      set	3989
   651   000F8C                     _LATDbits       set	3980
   652   000F82                     _PORTCbits      set	3970
   653   000F81                     _PORTBbits      set	3969
   654   000FC3                     _ADRESL         set	4035
   655   000FC4                     _ADRESH         set	4036
   656   000FC2                     _ADCON0bits     set	4034
   657   000FCD                     _T1CONbits      set	4045
   658   000FBE                     _CCPR1L         set	4030
   659   000FBF                     _CCPR1H         set	4031
   660   000FBD                     _CCP1CONbits    set	4029
   661   000FAD                     _TXREG          set	4013
   662   000FAC                     _TXSTAbits      set	4012
   663   000FAB                     _RCSTAbits      set	4011
   664   000FAE                     _RCREG1         set	4014
   665   000F9E                     _PIR1bits       set	3998
   666   000FF2                     _INTCONbits     set	4082
   667   000F9D                     _PIE1bits       set	3997
   668   000FAB                     _RCSTA1bits     set	4011
   669   000FAF                     _SPBRG1         set	4015
   670   000FB0                     _SPBRGH1        set	4016
   671   000FB8                     _BAUDCON1bits   set	4024
   672   000FAC                     _TXSTA1bits     set	4012
   673   000FC0                     _ADCON2         set	4032
   674   000FC1                     _ADCON1         set	4033
   675   000FC2                     _ADCON0         set	4034
   676   000F92                     _TRISAbits      set	3986
   677   000F94                     _TRISCbits      set	3988
   678   000F93                     _TRISBbits      set	3987
   679   000FD3                     _OSCCON         set	4051
   680                           
   681                           	psect	smallconst
   682   001000                     __psmallconst:
   683                           	callstack 0
   684   001000  00                 	db	0
   685   001001                     STR_2:
   686   001001  3E                 	db	62	;'>'
   687   001002  3E                 	db	62	;'>'
   688   001003  3E                 	db	62	;'>'
   689   001004  20                 	db	32
   690   001005  4F                 	db	79	;'O'
   691   001006  42                 	db	66	;'B'
   692   001007  44                 	db	68	;'D'
   693   001008  49                 	db	73	;'I'
   694   001009  49                 	db	73	;'I'
   695   00100A  50                 	db	80	;'P'
   696   00100B  49                 	db	73	;'I'
   697   00100C  43                 	db	67	;'C'
   698   00100D  20                 	db	32
   699   00100E  3C                 	db	60	;'<'
   700   00100F  3C                 	db	60	;'<'
   701   001010  3C                 	db	60	;'<'
   702   001011  00                 	db	0
   703   001012                     STR_3:
   704   001012  3E                 	db	62	;'>'
   705   001013  3E                 	db	62	;'>'
   706   001014  3E                 	db	62	;'>'
   707   001015  3E                 	db	62	;'>'
   708   001016  3E                 	db	62	;'>'
   709   001017  20                 	db	32
   710   001018  56                 	db	86	;'V'
   711   001019  31                 	db	49	;'1'
   712   00101A  2E                 	db	46
   713   00101B  30                 	db	48	;'0'
   714   00101C  20                 	db	32
   715   00101D  3C                 	db	60	;'<'
   716   00101E  3C                 	db	60	;'<'
   717   00101F  3C                 	db	60	;'<'
   718   001020  3C                 	db	60	;'<'
   719   001021  3C                 	db	60	;'<'
   720   001022  00                 	db	0
   721   001023                     STR_5:
   722   001023  3E                 	db	62	;'>'
   723   001024  3E                 	db	62	;'>'
   724   001025  4E                 	db	78	;'N'
   725   001026  6F                 	db	111	;'o'
   726   001027  74                 	db	116	;'t'
   727   001028  20                 	db	32
   728   001029  44                 	db	68	;'D'
   729   00102A  65                 	db	101	;'e'
   730   00102B  74                 	db	116	;'t'
   731   00102C  65                 	db	101	;'e'
   732   00102D  63                 	db	99	;'c'
   733   00102E  74                 	db	116	;'t'
   734   00102F  65                 	db	101	;'e'
   735   001030  64                 	db	100	;'d'
   736   001031  3C                 	db	60	;'<'
   737   001032  3C                 	db	60	;'<'
   738   001033  00                 	db	0
   739   001034                     STR_6:
   740   001034  4D                 	db	77	;'M'
   741   001035  45                 	db	69	;'E'
   742   001036  4E                 	db	78	;'N'
   743   001037  55                 	db	85	;'U'
   744   001038  3C                 	db	60	;'<'
   745   001039  3C                 	db	60	;'<'
   746   00103A  4F                 	db	79	;'O'
   747   00103B  42                 	db	66	;'B'
   748   00103C  44                 	db	68	;'D'
   749   00103D  49                 	db	73	;'I'
   750   00103E  49                 	db	73	;'I'
   751   00103F  50                 	db	80	;'P'
   752   001040  49                 	db	73	;'I'
   753   001041  43                 	db	67	;'C'
   754   001042  3E                 	db	62	;'>'
   755   001043  3E                 	db	62	;'>'
   756   001044  00                 	db	0
   757   001045                     STR_7:
   758   001045  4C                 	db	76	;'L'
   759   001046  52                 	db	82	;'R'
   760   001047  4D                 	db	77	;'M'
   761   001048  20                 	db	32
   762   001049  52                 	db	82	;'R'
   763   00104A  44                 	db	68	;'D'
   764   00104B  43                 	db	67	;'C'
   765   00104C  20                 	db	32
   766   00104D  43                 	db	67	;'C'
   767   00104E  44                 	db	68	;'D'
   768   00104F  43                 	db	67	;'C'
   769   001050  20                 	db	32
   770   001051  44                 	db	68	;'D'
   771   001052  53                 	db	83	;'S'
   772   001053  49                 	db	73	;'I'
   773   001054  00                 	db	0
   774   001055                     STR_1:
   775   001055  41                 	db	65	;'A'
   776   001056  54                 	db	84	;'T'
   777   001057  45                 	db	69	;'E'
   778   001058  30                 	db	48	;'0'
   779   001059  0D                 	db	13
   780   00105A  00                 	db	0
   781   00105B                     STR_23:
   782   00105B  30                 	db	48	;'0'
   783   00105C  31                 	db	49	;'1'
   784   00105D  30                 	db	48	;'0'
   785   00105E  38                 	db	56	;'8'
   786   00105F  0D                 	db	13
   787   001060  00                 	db	0
   788   001061                     STR_8:
   789   001061  30                 	db	48	;'0'
   790   001062  31                 	db	49	;'1'
   791   001063  30                 	db	48	;'0'
   792   001064  43                 	db	67	;'C'
   793   001065  0D                 	db	13
   794   001066  00                 	db	0
   795   001067                     STR_16:
   796   001067  30                 	db	48	;'0'
   797   001068  31                 	db	49	;'1'
   798   001069  30                 	db	48	;'0'
   799   00106A  46                 	db	70	;'F'
   800   00106B  0D                 	db	13
   801   00106C  00                 	db	0
   802   00106D                     STR_12:
   803   00106D  41                 	db	65	;'A'
   804   00106E  54                 	db	84	;'T'
   805   00106F  52                 	db	82	;'R'
   806   001070  56                 	db	86	;'V'
   807   001071  0D                 	db	13
   808   001072  00                 	db	0
   809   001073                     STR_10:
   810   001073  20                 	db	32
   811   001074  20                 	db	32
   812   001075  20                 	db	32
   813   001076  20                 	db	32
   814   001077  20                 	db	32
   815   001078  00                 	db	0
   816   001079                     STR_24:
   817   001079  53                 	db	83	;'S'
   818   00107A  41                 	db	65	;'A'
   819   00107B  45                 	db	69	;'E'
   820   00107C  3A                 	db	58	;':'
   821   00107D  20                 	db	32
   822   00107E  00                 	db	0
   823   00107F                     STR_22:
   824   00107F  45                 	db	69	;'E'
   825   001080  4C                 	db	76	;'L'
   826   001081  4D                 	db	77	;'M'
   827   001082  3A                 	db	58	;':'
   828   001083  20                 	db	32
   829   001084  00                 	db	0
   830   001085                     STR_14:
   831   001085  56                 	db	86	;'V'
   832   001086  42                 	db	66	;'B'
   833   001087  61                 	db	97	;'a'
   834   001088  74                 	db	116	;'t'
   835   001089  74                 	db	116	;'t'
   836   00108A  00                 	db	0
   837   00108B                     STR_4:
   838   00108B  41                 	db	65	;'A'
   839   00108C  54                 	db	84	;'T'
   840   00108D  49                 	db	73	;'I'
   841   00108E  0D                 	db	13
   842   00108F  00                 	db	0
   843   001090                     STR_15:
   844   001090  4E                 	db	78	;'N'
   845   001091  2F                 	db	47
   846   001092  41                 	db	65	;'A'
   847   001093  00                 	db	0
   848   001094                     STR_11:
   849   001094  52                 	db	82	;'R'
   850   001095  50                 	db	80	;'P'
   851   001096  4D                 	db	77	;'M'
   852   001097  00                 	db	0
   853   001098                     STR_19:
   854   001098  41                 	db	65	;'A'
   855   001099  49                 	db	73	;'I'
   856   00109A  54                 	db	84	;'T'
   857   00109B  00                 	db	0
   858   00109C                     STR_9:
   859   00109C  25                 	db	37
   860   00109D  75                 	db	117	;'u'
   861   00109E  00                 	db	0
   862   00109F                     STR_20:
   863   00109F  43                 	db	67	;'C'
   864   0010A0  00                 	db	0
   865   00109C                     STR_18          equ	STR_9
   866   001073                     STR_13          equ	STR_10
   867   001075                     STR_17          equ	STR_10+2
   868   00108B                     STR_21          equ	STR_4
   869   001061                     STR_25          equ	STR_8
   870   0010A1  00                 	db	0	; dummy byte at the end
   871   001000                     __smallconst    set	__psmallconst
   872   001000                     __mediumconst   set	__psmallconst
   873   000002                     __activetblptr  equ	2
   874                           
   875                           ; #config settings
   876                           
   877                           	psect	cinit
   878   001E10                     __pcinit:
   879                           	callstack 0
   880   001E10                     start_initialization:
   881                           	callstack 0
   882   001E10                     __initialization:
   883                           	callstack 0
   884                           
   885                           ; Initialize objects allocated to COMRAM (2 bytes)
   886                           ; load TBLPTR registers with __pidataCOMRAM
   887   001E10  0E60               	movlw	low __pidataCOMRAM
   888   001E12  6EF6               	movwf	tblptrl,c
   889   001E14  0E20               	movlw	high __pidataCOMRAM
   890   001E16  6EF7               	movwf	tblptrh,c
   891   001E18  0E00               	movlw	low (__pidataCOMRAM shr (0+16))
   892   001E1A  6EF8               	movwf	tblptru,c
   893   001E1C  0009               	tblrd		*+	;fetch initializer
   894   001E1E  CFF5 F05A          	movff	tablat,__pdataCOMRAM
   895   001E22  0009               	tblrd		*+	;fetch initializer
   896   001E24  CFF5 F05B          	movff	tablat,__pdataCOMRAM+1
   897                           
   898                           ; Clear objects allocated to BANK0 (80 bytes)
   899   001E28  EE00  F060         	lfsr	0,__pbssBANK0
   900   001E2C  0E50               	movlw	80
   901   001E2E                     clear_0:
   902   001E2E  6AEE               	clrf	postinc0,c
   903   001E30  06E8               	decf	wreg,f,c
   904   001E32  E1FD               	bnz	clear_0
   905                           
   906                           ; Clear objects allocated to COMRAM (38 bytes)
   907   001E34  EE00  F034         	lfsr	0,__pbssCOMRAM
   908   001E38  0E26               	movlw	38
   909   001E3A                     clear_1:
   910   001E3A  6AEE               	clrf	postinc0,c
   911   001E3C  06E8               	decf	wreg,f,c
   912   001E3E  E1FD               	bnz	clear_1
   913   001E40                     end_of_initialization:
   914                           	callstack 0
   915   001E40                     __end_of__initialization:
   916                           	callstack 0
   917   001E40  905C               	bcf	int$flags,0,c	;clear compiler interrupt flag (level 1)
   918   001E42  925C               	bcf	int$flags,1,c	;clear compiler interrupt flag (level 2)
   919   001E44  0E00               	movlw	low (__Lmediumconst shr (0+16))
   920   001E46  6EF8               	movwf	tblptru,c
   921   001E48  0100               	movlb	0
   922   001E4A  EF40  F00E         	goto	_main	;jump to C main() function
   923                           
   924                           	psect	bssCOMRAM
   925   000034                     __pbssCOMRAM:
   926                           	callstack 0
   927   000034                     	ds	4
   928   000038                     _width:
   929                           	callstack 0
   930   000038                     	ds	2
   931   00003A                     _prec:
   932                           	callstack 0
   933   00003A                     	ds	2
   934   00003C                     _air_intake_temp:
   935                           	callstack 0
   936   00003C                     	ds	2
   937   00003E                     _A_air_intake:
   938                           	callstack 0
   939   00003E                     	ds	2
   940   000040                     _RPM:
   941                           	callstack 0
   942   000040                     	ds	2
   943   000042                     _B_rpm:
   944                           	callstack 0
   945   000042                     	ds	2
   946   000044                     _A_rpm:
   947                           	callstack 0
   948   000044                     	ds	2
   949   000046                     _flags:
   950                           	callstack 0
   951   000046                     	ds	1
   952   000047                     _message_complete:
   953                           	callstack 0
   954   000047                     	ds	1
   955   000048                     _RX_char:
   956                           	callstack 0
   957   000048                     	ds	1
   958   000049                     _buffer_count:
   959                           	callstack 0
   960   000049                     	ds	1
   961   00004A                     _rpm_string:
   962                           	callstack 0
   963   00004A                     	ds	16
   964                           
   965                           	psect	dataCOMRAM
   966   00005A                     __pdataCOMRAM:
   967                           	callstack 0
   968   00005A                     _LCD_entry_mode:
   969                           	callstack 0
   970   00005A                     	ds	1
   971   00005B                     _LCD_display_control:
   972                           	callstack 0
   973   00005B                     	ds	1
   974                           
   975                           	psect	bssBANK0
   976   000060                     __pbssBANK0:
   977                           	callstack 0
   978   000060                     _dbuf:
   979                           	callstack 0
   980   000060                     	ds	32
   981   000080                     _buffer:
   982                           	callstack 0
   983   000080                     	ds	32
   984   0000A0                     _air_intake_string:
   985                           	callstack 0
   986   0000A0                     	ds	16
   987                           
   988                           	psect	cstackBANK0
   989   0000B0                     __pcstackBANK0:
   990                           	callstack 0
   991   0000B0                     ??_main:
   992                           
   993                           ; 1 bytes @ 0x0
   994   0000B0                     	ds	2
   995                           
   996                           	psect	cstackCOMRAM
   997   000001                     __pcstackCOMRAM:
   998                           	callstack 0
   999   000001                     ??_UART_ISR:
  1000                           
  1001                           ; 1 bytes @ 0x0
  1002   000001                     	ds	2
  1003   000003                     ?_readADC:
  1004                           	callstack 0
  1005   000003                     ?___lwdiv:
  1006                           	callstack 0
  1007   000003                     ?___lwmod:
  1008                           	callstack 0
  1009   000003                     UART1_SendChar@c:
  1010                           	callstack 0
  1011   000003                     hex_char_to_value@c:
  1012                           	callstack 0
  1013   000003                     strchr@s:
  1014                           	callstack 0
  1015   000003                     ___lwdiv@dividend:
  1016                           	callstack 0
  1017   000003                     ___lwmod@dividend:
  1018                           	callstack 0
  1019   000003                     fputc@c:
  1020                           	callstack 0
  1021   000003                     ??_LCD_write_command:
  1022   000003                     ??_LCD_write_data:
  1023                           
  1024                           ; 1 bytes @ 0x2
  1025   000003                     	ds	1
  1026   000004                     UART1_SendString@string:
  1027                           	callstack 0
  1028   000004                     strchr@c:
  1029                           	callstack 0
  1030                           
  1031                           ; 2 bytes @ 0x3
  1032   000004                     	ds	1
  1033   000005                     LCD_write_command@command:
  1034                           	callstack 0
  1035   000005                     LCD_write_data@data:
  1036                           	callstack 0
  1037   000005                     fputc@fp:
  1038                           	callstack 0
  1039   000005                     ___lwdiv@divisor:
  1040                           	callstack 0
  1041   000005                     ___lwmod@divisor:
  1042                           	callstack 0
  1043   000005                     ??_UART1_SendString:
  1044   000005                     ??_readADC:
  1045                           
  1046                           ; 1 bytes @ 0x4
  1047   000005                     	ds	1
  1048   000006                     LCD_cursor_set@column:
  1049                           	callstack 0
  1050   000006                     LCD_configure_cursor_blink@state:
  1051                           	callstack 0
  1052   000006                     UART1_SendString@i:
  1053                           	callstack 0
  1054   000006                     LCD_write_string@string:
  1055                           	callstack 0
  1056   000006                     ??_LCD_clear:
  1057   000006                     ??_fputc:
  1058                           
  1059                           ; 1 bytes @ 0x5
  1060   000006                     	ds	1
  1061   000007                     LCD_cursor_set@row:
  1062                           	callstack 0
  1063   000007                     ___lwmod@counter:
  1064                           	callstack 0
  1065   000007                     ___lwdiv@quotient:
  1066                           	callstack 0
  1067   000007                     ??_LCD_init:
  1068   000007                     
  1069                           ; 1 bytes @ 0x6
  1070   000007                     	ds	1
  1071   000008                     ??_LCD_write_string:
  1072                           
  1073                           ; 1 bytes @ 0x7
  1074   000008                     	ds	1
  1075   000009                     ___lwdiv@counter:
  1076                           	callstack 0
  1077                           
  1078                           ; 1 bytes @ 0x8
  1079   000009                     	ds	1
  1080   00000A                     LCD_write_string@i:
  1081                           	callstack 0
  1082                           
  1083                           ; 1 bytes @ 0x9
  1084   00000A                     	ds	1
  1085   00000B                     vfpfcnvrt@fp:
  1086                           	callstack 0
  1087   00000B                     welcome_splash@plug_flag:
  1088                           	callstack 0
  1089   00000B                     
  1090                           ; 1 bytes @ 0xA
  1091   00000B                     	ds	1
  1092   00000C                     vfpfcnvrt@fmt:
  1093                           	callstack 0
  1094                           
  1095                           ; 1 bytes @ 0xB
  1096   00000C                     	ds	1
  1097   00000D                     vfpfcnvrt@ap:
  1098                           	callstack 0
  1099   00000D                     welcome_splash@CCP1IF_counter:
  1100                           	callstack 0
  1101                           
  1102                           ; 2 bytes @ 0xC
  1103   00000D                     	ds	1
  1104   00000E                     ??_vfpfcnvrt:
  1105                           
  1106                           ; 1 bytes @ 0xD
  1107   00000E                     	ds	1
  1108   00000F                     vfpfcnvrt@convarg:
  1109                           	callstack 0
  1110                           
  1111                           ; 4 bytes @ 0xE
  1112   00000F                     	ds	4
  1113   000013                     vfpfcnvrt@cp:
  1114                           	callstack 0
  1115                           
  1116                           ; 1 bytes @ 0x12
  1117   000013                     	ds	1
  1118   000014                     vfpfcnvrt@c:
  1119                           	callstack 0
  1120                           
  1121                           ; 1 bytes @ 0x13
  1122   000014                     	ds	1
  1123   000015                     ?_vfprintf:
  1124                           	callstack 0
  1125   000015                     vfprintf@fp:
  1126                           	callstack 0
  1127                           
  1128                           ; 1 bytes @ 0x14
  1129   000015                     	ds	1
  1130   000016                     vfprintf@fmt:
  1131                           	callstack 0
  1132                           
  1133                           ; 1 bytes @ 0x15
  1134   000016                     	ds	1
  1135   000017                     vfprintf@ap:
  1136                           	callstack 0
  1137                           
  1138                           ; 1 bytes @ 0x16
  1139   000017                     	ds	1
  1140   000018                     vfprintf@cfmt:
  1141                           	callstack 0
  1142   000018                     
  1143                           ; 1 bytes @ 0x17
  1144   000018                     	ds	1
  1145   000019                     ?_sprintf:
  1146                           	callstack 0
  1147   000019                     sprintf@s:
  1148                           	callstack 0
  1149                           
  1150                           ; 1 bytes @ 0x18
  1151   000019                     	ds	1
  1152   00001A                     sprintf@fmt:
  1153                           	callstack 0
  1154                           
  1155                           ; 1 bytes @ 0x19
  1156   00001A                     	ds	3
  1157   00001D                     sprintf@ap:
  1158                           	callstack 0
  1159   00001D                     
  1160                           ; 1 bytes @ 0x1C
  1161   00001D                     	ds	1
  1162   00001E                     sprintf@f:
  1163                           	callstack 0
  1164                           
  1165                           ; 11 bytes @ 0x1D
  1166   00001E                     	ds	11
  1167   000029                     ??_print_RPM:
  1168   000029                     ??_print_AI_Temp:
  1169                           
  1170                           ; 1 bytes @ 0x28
  1171   000029                     	ds	3
  1172   00002C                     ??_live_reading_mode:
  1173                           
  1174                           ; 1 bytes @ 0x2B
  1175   00002C                     	ds	2
  1176   00002E                     ??_main_menu:
  1177                           
  1178                           ; 1 bytes @ 0x2D
  1179   00002E                     	ds	2
  1180   000030                     main_menu@menu_sel:
  1181                           	callstack 0
  1182                           
  1183                           ; 2 bytes @ 0x2F
  1184   000030                     	ds	2
  1185   000032                     main_menu@result:
  1186                           	callstack 0
  1187                           
  1188                           ; 2 bytes @ 0x31
  1189   000032                     	ds	2
  1190                           
  1191 ;;
  1192 ;;Main: autosize = 0, tempsize = 2, incstack = 0, save=0
  1193 ;;
  1194 ;; *************** function _main *****************
  1195 ;; Defined at:
  1196 ;;		line 63 in file "OBCII_PIC18F46K22.c"
  1197 ;; Parameters:    Size  Location     Type
  1198 ;;		None
  1199 ;; Auto vars:     Size  Location     Type
  1200 ;;		None
  1201 ;; Return value:  Size  Location     Type
  1202 ;;                  1    wreg      void 
  1203 ;; Registers used:
  1204 ;;		wreg, fsr0l, fsr0h, fsr1l, fsr1h, fsr2l, fsr2h, status,2, status,0, tblptrl, tblptrh, tblptru, cstack
  1205 ;; Tracked objects:
  1206 ;;		On entry : 0/0
  1207 ;;		On exit  : 0/0
  1208 ;;		Unchanged: 0/0
  1209 ;; Data sizes:     COMRAM   BANK0   BANK1   BANK2   BANK3   BANK4   BANK5   BANK6   BANK7   BANK8   BANK9  BANK10  BANK1
      +1  BANK12  BANK13  BANK14  BANK15
  1210 ;;      Params:         0       0       0       0       0       0       0       0       0       0       0       0       
      +0       0       0       0       0
  1211 ;;      Locals:         0       0       0       0       0       0       0       0       0       0       0       0       
      +0       0       0       0       0
  1212 ;;      Temps:          0       2       0       0       0       0       0       0       0       0       0       0       
      +0       0       0       0       0
  1213 ;;      Totals:         0       2       0       0       0       0       0       0       0       0       0       0       
      +0       0       0       0       0
  1214 ;;Total ram usage:        2 bytes
  1215 ;; Hardware stack levels required when called: 9
  1216 ;; This function calls:
  1217 ;;		_ADC_init
  1218 ;;		_LCD_clear
  1219 ;;		_LCD_init
  1220 ;;		_UART1_Init
  1221 ;;		_UART1_SendString
  1222 ;;		_input_init
  1223 ;;		_main_menu
  1224 ;;		_welcome_splash
  1225 ;; This function is called by:
  1226 ;;		Startup code after reset
  1227 ;; This function uses a non-reentrant model
  1228 ;;
  1229                           
  1230                           	psect	text0
  1231   001C80                     __ptext0:
  1232                           	callstack 0
  1233   001C80                     _main:
  1234                           	callstack 22
  1235   001C80                     
  1236                           ;OBCII_PIC18F46K22.c: 66:     OSCCON = 0b01110000;
  1237   001C80  0E70               	movlw	112
  1238   001C82  6ED3               	movwf	211,c	;volatile
  1239   001C84                     
  1240                           ;OBCII_PIC18F46K22.c: 70:     LCD_init();
  1241   001C84  EC59  F00D         	call	_LCD_init	;wreg free
  1242   001C88                     
  1243                           ;OBCII_PIC18F46K22.c: 71:     LCD_clear();
  1244   001C88  ECED  F00F         	call	_LCD_clear	;wreg free
  1245   001C8C                     
  1246                           ;OBCII_PIC18F46K22.c: 72:     input_init();
  1247   001C8C  EC17  F010         	call	_input_init	;wreg free
  1248                           
  1249                           ;OBCII_PIC18F46K22.c: 73:     ADC_init();
  1250   001C90  EC25  F010         	call	_ADC_init	;wreg free
  1251                           
  1252                           ;OBCII_PIC18F46K22.c: 74:     UART1_Init();
  1253   001C94  ECB3  F00F         	call	_UART1_Init	;wreg free
  1254   001C98                     
  1255                           ;OBCII_PIC18F46K22.c: 76:     _delay((unsigned long)((2000)*(16000000/4000.0)));
  1256   001C98  0E29               	movlw	41
  1257   001C9A  0100               	movlb	0	; () banked
  1258   001C9C  6FB1               	movwf	(??_main+1)& (0+255),b
  1259   001C9E  0E96               	movlw	150
  1260   001CA0  6FB0               	movwf	??_main& (0+255),b
  1261   001CA2  0E7F               	movlw	127
  1262   001CA4                     u1837:
  1263   001CA4  2EE8               	decfsz	wreg,f,c
  1264   001CA6  D7FE               	bra	u1837
  1265   001CA8  2FB0               	decfsz	??_main& (0+255),f,b
  1266   001CAA  D7FC               	bra	u1837
  1267   001CAC  2FB1               	decfsz	(??_main+1)& (0+255),f,b
  1268   001CAE  D7FA               	bra	u1837
  1269   001CB0                     
  1270                           ;OBCII_PIC18F46K22.c: 77:     UART1_SendString("ATE0\r");
  1271   001CB0  0E55               	movlw	low STR_1
  1272   001CB2  6E04               	movwf	UART1_SendString@string^0,c
  1273   001CB4  ECA1  F00E         	call	_UART1_SendString	;wreg free
  1274   001CB8                     
  1275                           ;OBCII_PIC18F46K22.c: 78:     _delay((unsigned long)((50)*(16000000/4000.0)));
  1276   001CB8  0E02               	movlw	2
  1277   001CBA  0100               	movlb	0	; () banked
  1278   001CBC  6FB1               	movwf	(??_main+1)& (0+255),b
  1279   001CBE  0E04               	movlw	4
  1280   001CC0  6FB0               	movwf	??_main& (0+255),b
  1281   001CC2  0EBA               	movlw	186
  1282   001CC4                     u1847:
  1283   001CC4  2EE8               	decfsz	wreg,f,c
  1284   001CC6  D7FE               	bra	u1847
  1285   001CC8  2FB0               	decfsz	??_main& (0+255),f,b
  1286   001CCA  D7FC               	bra	u1847
  1287   001CCC  2FB1               	decfsz	(??_main+1)& (0+255),f,b
  1288   001CCE  D7FA               	bra	u1847
  1289   001CD0  0000               	nop	
  1290   001CD2                     l2683:
  1291                           
  1292                           ;OBCII_PIC18F46K22.c: 81:                 welcome_splash();
  1293   001CD2  ECA6  F00B         	call	_welcome_splash	;wreg free
  1294   001CD6                     
  1295                           ;OBCII_PIC18F46K22.c: 82:                 main_menu();
  1296   001CD6  EC51  F008         	call	_main_menu	;wreg free
  1297   001CDA  EF69  F00E         	goto	l2683
  1298   001CDE  EF69  F000         	goto	start
  1299   001CE2                     __end_of_main:
  1300                           	callstack 0
  1301                           
  1302 ;; *************** function _welcome_splash *****************
  1303 ;; Defined at:
  1304 ;;		line 205 in file "OBCII_PIC18F46K22.c"
  1305 ;; Parameters:    Size  Location     Type
  1306 ;;		None
  1307 ;; Auto vars:     Size  Location     Type
  1308 ;;  CCP1IF_count    2   12[COMRAM] volatile unsigned int 
  1309 ;;  plug_flag       2   10[COMRAM] volatile int 
  1310 ;; Return value:  Size  Location     Type
  1311 ;;                  1    wreg      void 
  1312 ;; Registers used:
  1313 ;;		wreg, fsr0l, fsr0h, status,2, status,0, tblptrl, tblptrh, tblptru, cstack
  1314 ;; Tracked objects:
  1315 ;;		On entry : 0/0
  1316 ;;		On exit  : 0/0
  1317 ;;		Unchanged: 0/0
  1318 ;; Data sizes:     COMRAM   BANK0   BANK1   BANK2   BANK3   BANK4   BANK5   BANK6   BANK7   BANK8   BANK9  BANK10  BANK1
      +1  BANK12  BANK13  BANK14  BANK15
  1319 ;;      Params:         0       0       0       0       0       0       0       0       0       0       0       0       
      +0       0       0       0       0
  1320 ;;      Locals:         4       0       0       0       0       0       0       0       0       0       0       0       
      +0       0       0       0       0
  1321 ;;      Temps:          0       0       0       0       0       0       0       0       0       0       0       0       
      +0       0       0       0       0
  1322 ;;      Totals:         4       0       0       0       0       0       0       0       0       0       0       0       
      +0       0       0       0       0
  1323 ;;Total ram usage:        4 bytes
  1324 ;; Hardware stack levels used: 1
  1325 ;; Hardware stack levels required when called: 4
  1326 ;; This function calls:
  1327 ;;		_LCD_cursor_set
  1328 ;;		_LCD_write_string
  1329 ;;		_UART1_SendString
  1330 ;;		_ccp1_init
  1331 ;;		_tmr1_init
  1332 ;; This function is called by:
  1333 ;;		_main
  1334 ;; This function uses a non-reentrant model
  1335 ;;
  1336                           
  1337                           	psect	text1
  1338   00174C                     __ptext1:
  1339                           	callstack 0
  1340   00174C                     _welcome_splash:
  1341                           	callstack 26
  1342   00174C                     
  1343                           ;OBCII_PIC18F46K22.c: 206:     volatile int plug_flag = 0;
  1344   00174C  0E00               	movlw	0
  1345   00174E  6E0C               	movwf	(welcome_splash@plug_flag+1)^0,c	;volatile
  1346   001750  0E00               	movlw	0
  1347   001752  6E0B               	movwf	welcome_splash@plug_flag^0,c	;volatile
  1348                           
  1349                           ;OBCII_PIC18F46K22.c: 207:     volatile unsigned int CCP1IF_counter = 0;
  1350   001754  0E00               	movlw	0
  1351   001756  6E0E               	movwf	(welcome_splash@CCP1IF_counter+1)^0,c	;volatile
  1352   001758  0E00               	movlw	0
  1353   00175A  6E0D               	movwf	welcome_splash@CCP1IF_counter^0,c	;volatile
  1354   00175C                     
  1355                           ;OBCII_PIC18F46K22.c: 210:     LCD_cursor_set(1, 1);
  1356   00175C  0E01               	movlw	1
  1357   00175E  6E06               	movwf	LCD_cursor_set@column^0,c
  1358   001760  0E01               	movlw	1
  1359   001762  EC71  F00E         	call	_LCD_cursor_set
  1360   001766                     
  1361                           ;OBCII_PIC18F46K22.c: 211:     LCD_write_string(">>> OBDIIPIC <<<");
  1362   001766  0E01               	movlw	low STR_2
  1363   001768  6E06               	movwf	LCD_write_string@string^0,c
  1364   00176A  5006               	movf	LCD_write_string@string^0,w,c
  1365   00176C  A4D8               	btfss	status,2,c
  1366   00176E  0E10               	movlw	high __smallconst
  1367   001770  6E07               	movwf	(LCD_write_string@string+1)^0,c
  1368   001772  EC97  F00D         	call	_LCD_write_string	;wreg free
  1369   001776                     
  1370                           ;OBCII_PIC18F46K22.c: 212:     LCD_cursor_set(2, 1);
  1371   001776  0E01               	movlw	1
  1372   001778  6E06               	movwf	LCD_cursor_set@column^0,c
  1373   00177A  0E02               	movlw	2
  1374   00177C  EC71  F00E         	call	_LCD_cursor_set
  1375   001780                     
  1376                           ;OBCII_PIC18F46K22.c: 213:     LCD_write_string(">>>>> V1.0 <<<<<");
  1377   001780  0E12               	movlw	low STR_3
  1378   001782  6E06               	movwf	LCD_write_string@string^0,c
  1379   001784  5006               	movf	LCD_write_string@string^0,w,c
  1380   001786  A4D8               	btfss	status,2,c
  1381   001788  0E10               	movlw	high __smallconst
  1382   00178A  6E07               	movwf	(LCD_write_string@string+1)^0,c
  1383   00178C  EC97  F00D         	call	_LCD_write_string	;wreg free
  1384   001790                     
  1385                           ;OBCII_PIC18F46K22.c: 215:     ccp1_init();
  1386   001790  EC06  F010         	call	_ccp1_init	;wreg free
  1387                           
  1388                           ;OBCII_PIC18F46K22.c: 216:     tmr1_init();
  1389   001794  EC0F  F010         	call	_tmr1_init	;wreg free
  1390                           
  1391                           ;OBCII_PIC18F46K22.c: 218:     while(CCP1IF_counter < (8)*10){
  1392   001798  EFD9  F00B         	goto	l2359
  1393   00179C                     l170:
  1394                           
  1395                           ;OBCII_PIC18F46K22.c: 219:         if(PIR1bits.CCP1IF){
  1396   00179C  A49E               	btfss	158,2,c	;volatile
  1397   00179E  EFD3  F00B         	goto	u1391
  1398   0017A2  EFD5  F00B         	goto	u1390
  1399   0017A6                     u1391:
  1400   0017A6  EFD9  F00B         	goto	l2359
  1401   0017AA                     u1390:
  1402   0017AA                     
  1403                           ;OBCII_PIC18F46K22.c: 220:         PIR1bits.CCP1IF = 0;
  1404   0017AA  949E               	bcf	158,2,c	;volatile
  1405   0017AC                     
  1406                           ;OBCII_PIC18F46K22.c: 221:         CCP1IF_counter++;
  1407   0017AC  4A0D               	infsnz	welcome_splash@CCP1IF_counter^0,f,c	;volatile
  1408   0017AE  2A0E               	incf	(welcome_splash@CCP1IF_counter+1)^0,f,c	;volatile
  1409   0017B0                     
  1410                           ;OBCII_PIC18F46K22.c: 222:         T1CONbits.TMR1ON = 1;
  1411   0017B0  80CD               	bsf	205,0,c	;volatile
  1412   0017B2                     l2359:
  1413                           
  1414                           ;OBCII_PIC18F46K22.c: 218:     while(CCP1IF_counter < (8)*10){
  1415   0017B2  500E               	movf	(welcome_splash@CCP1IF_counter+1)^0,w,c	;volatile
  1416   0017B4  E109               	bnz	u1400
  1417   0017B6  0E50               	movlw	80
  1418   0017B8  5C0D               	subwf	welcome_splash@CCP1IF_counter^0,w,c	;volatile
  1419   0017BA  A0D8               	btfss	status,0,c
  1420   0017BC  EFE2  F00B         	goto	u1401
  1421   0017C0  EFE4  F00B         	goto	u1400
  1422   0017C4                     u1401:
  1423   0017C4  EFCE  F00B         	goto	l170
  1424   0017C8                     u1400:
  1425   0017C8                     
  1426                           ;OBCII_PIC18F46K22.c: 225:     UART1_SendString("ATI\r");
  1427   0017C8  0E8B               	movlw	low STR_4
  1428   0017CA  6E04               	movwf	UART1_SendString@string^0,c
  1429   0017CC  ECA1  F00E         	call	_UART1_SendString	;wreg free
  1430                           
  1431                           ;OBCII_PIC18F46K22.c: 226:     while(!message_complete) {
  1432   0017D0  EF06  F00C         	goto	l2371
  1433   0017D4                     l2363:
  1434                           
  1435                           ;OBCII_PIC18F46K22.c: 228:         plug_flag = 1;
  1436   0017D4  0E00               	movlw	0
  1437   0017D6  6E0C               	movwf	(welcome_splash@plug_flag+1)^0,c	;volatile
  1438   0017D8  0E01               	movlw	1
  1439   0017DA  6E0B               	movwf	welcome_splash@plug_flag^0,c	;volatile
  1440   0017DC  EFFD  F00B         	goto	l2369
  1441   0017E0                     l2365:
  1442                           
  1443                           ;OBCII_PIC18F46K22.c: 231:         LCD_cursor_set(2, 1);
  1444   0017E0  0E01               	movlw	1
  1445   0017E2  6E06               	movwf	LCD_cursor_set@column^0,c
  1446   0017E4  0E02               	movlw	2
  1447   0017E6  EC71  F00E         	call	_LCD_cursor_set
  1448   0017EA                     
  1449                           ;OBCII_PIC18F46K22.c: 232:         LCD_write_string(">>Not Detected<<");
  1450   0017EA  0E23               	movlw	low STR_5
  1451   0017EC  6E06               	movwf	LCD_write_string@string^0,c
  1452   0017EE  5006               	movf	LCD_write_string@string^0,w,c
  1453   0017F0  A4D8               	btfss	status,2,c
  1454   0017F2  0E10               	movlw	high __smallconst
  1455   0017F4  6E07               	movwf	(LCD_write_string@string+1)^0,c
  1456   0017F6  EC97  F00D         	call	_LCD_write_string	;wreg free
  1457   0017FA                     l2369:
  1458                           
  1459                           ;OBCII_PIC18F46K22.c: 230:     while(!plug_flag){
  1460   0017FA  500B               	movf	welcome_splash@plug_flag^0,w,c	;volatile
  1461   0017FC  100C               	iorwf	(welcome_splash@plug_flag+1)^0,w,c	;volatile
  1462   0017FE  B4D8               	btfsc	status,2,c
  1463   001800  EF04  F00C         	goto	u1411
  1464   001804  EF06  F00C         	goto	u1410
  1465   001808                     u1411:
  1466   001808  EFF0  F00B         	goto	l2365
  1467   00180C                     u1410:
  1468   00180C                     l2371:
  1469                           
  1470                           ;OBCII_PIC18F46K22.c: 226:     while(!message_complete) {
  1471   00180C  5047               	movf	_message_complete^0,w,c	;volatile
  1472   00180E  B4D8               	btfsc	status,2,c
  1473   001810  EF0C  F00C         	goto	u1421
  1474   001814  EF0E  F00C         	goto	u1420
  1475   001818                     u1421:
  1476   001818  EFEA  F00B         	goto	l2363
  1477   00181C                     u1420:
  1478   00181C  0012               	return		;funcret
  1479   00181E                     __end_of_welcome_splash:
  1480                           	callstack 0
  1481                           
  1482 ;; *************** function _tmr1_init *****************
  1483 ;; Defined at:
  1484 ;;		line 194 in file "OBCII_PIC18F46K22.c"
  1485 ;; Parameters:    Size  Location     Type
  1486 ;;		None
  1487 ;; Auto vars:     Size  Location     Type
  1488 ;;		None
  1489 ;; Return value:  Size  Location     Type
  1490 ;;                  1    wreg      void 
  1491 ;; Registers used:
  1492 ;;		None
  1493 ;; Tracked objects:
  1494 ;;		On entry : 0/0
  1495 ;;		On exit  : 0/0
  1496 ;;		Unchanged: 0/0
  1497 ;; Data sizes:     COMRAM   BANK0   BANK1   BANK2   BANK3   BANK4   BANK5   BANK6   BANK7   BANK8   BANK9  BANK10  BANK1
      +1  BANK12  BANK13  BANK14  BANK15
  1498 ;;      Params:         0       0       0       0       0       0       0       0       0       0       0       0       
      +0       0       0       0       0
  1499 ;;      Locals:         0       0       0       0       0       0       0       0       0       0       0       0       
      +0       0       0       0       0
  1500 ;;      Temps:          0       0       0       0       0       0       0       0       0       0       0       0       
      +0       0       0       0       0
  1501 ;;      Totals:         0       0       0       0       0       0       0       0       0       0       0       0       
      +0       0       0       0       0
  1502 ;;Total ram usage:        0 bytes
  1503 ;; Hardware stack levels used: 1
  1504 ;; Hardware stack levels required when called: 1
  1505 ;; This function calls:
  1506 ;;		Nothing
  1507 ;; This function is called by:
  1508 ;;		_welcome_splash
  1509 ;; This function uses a non-reentrant model
  1510 ;;
  1511                           
  1512                           	psect	text2
  1513   00201E                     __ptext2:
  1514                           	callstack 0
  1515   00201E                     _tmr1_init:
  1516                           	callstack 28
  1517   00201E                     
  1518                           ;OBCII_PIC18F46K22.c: 196:     T1CONbits.T1CKPS1 = 1;
  1519   00201E  8ACD               	bsf	205,5,c	;volatile
  1520                           
  1521                           ;OBCII_PIC18F46K22.c: 197:     T1CONbits.T1CKPS0 = 1;
  1522   002020  88CD               	bsf	205,4,c	;volatile
  1523                           
  1524                           ;OBCII_PIC18F46K22.c: 198:     T1CONbits.T1OSCEN = 0;
  1525   002022  96CD               	bcf	205,3,c	;volatile
  1526                           
  1527                           ;OBCII_PIC18F46K22.c: 199:     T1CONbits.T1SYNC = 1;
  1528   002024  84CD               	bsf	205,2,c	;volatile
  1529                           
  1530                           ;OBCII_PIC18F46K22.c: 200:     T1CONbits.TMR1CS1 = 0;
  1531   002026  9ECD               	bcf	205,7,c	;volatile
  1532                           
  1533                           ;OBCII_PIC18F46K22.c: 201:     T1CONbits.TMR1CS0 = 0;
  1534   002028  9CCD               	bcf	205,6,c	;volatile
  1535                           
  1536                           ;OBCII_PIC18F46K22.c: 202:     T1CONbits.TMR1ON = 1;
  1537   00202A  80CD               	bsf	205,0,c	;volatile
  1538   00202C  0012               	return		;funcret
  1539   00202E                     __end_of_tmr1_init:
  1540                           	callstack 0
  1541                           
  1542 ;; *************** function _ccp1_init *****************
  1543 ;; Defined at:
  1544 ;;		line 181 in file "OBCII_PIC18F46K22.c"
  1545 ;; Parameters:    Size  Location     Type
  1546 ;;		None
  1547 ;; Auto vars:     Size  Location     Type
  1548 ;;		None
  1549 ;; Return value:  Size  Location     Type
  1550 ;;                  1    wreg      void 
  1551 ;; Registers used:
  1552 ;;		wreg, status,2
  1553 ;; Tracked objects:
  1554 ;;		On entry : 0/0
  1555 ;;		On exit  : 0/0
  1556 ;;		Unchanged: 0/0
  1557 ;; Data sizes:     COMRAM   BANK0   BANK1   BANK2   BANK3   BANK4   BANK5   BANK6   BANK7   BANK8   BANK9  BANK10  BANK1
      +1  BANK12  BANK13  BANK14  BANK15
  1558 ;;      Params:         0       0       0       0       0       0       0       0       0       0       0       0       
      +0       0       0       0       0
  1559 ;;      Locals:         0       0       0       0       0       0       0       0       0       0       0       0       
      +0       0       0       0       0
  1560 ;;      Temps:          0       0       0       0       0       0       0       0       0       0       0       0       
      +0       0       0       0       0
  1561 ;;      Totals:         0       0       0       0       0       0       0       0       0       0       0       0       
      +0       0       0       0       0
  1562 ;;Total ram usage:        0 bytes
  1563 ;; Hardware stack levels used: 1
  1564 ;; Hardware stack levels required when called: 1
  1565 ;; This function calls:
  1566 ;;		Nothing
  1567 ;; This function is called by:
  1568 ;;		_welcome_splash
  1569 ;; This function uses a non-reentrant model
  1570 ;;
  1571                           
  1572                           	psect	text3
  1573   00200C                     __ptext3:
  1574                           	callstack 0
  1575   00200C                     _ccp1_init:
  1576                           	callstack 28
  1577   00200C                     
  1578                           ;OBCII_PIC18F46K22.c: 182:     CCP1CONbits.CCP1M3 = 1;
  1579   00200C  86BD               	bsf	189,3,c	;volatile
  1580                           
  1581                           ;OBCII_PIC18F46K22.c: 183:     CCP1CONbits.CCP1M2 = 0;
  1582   00200E  94BD               	bcf	189,2,c	;volatile
  1583                           
  1584                           ;OBCII_PIC18F46K22.c: 184:     CCP1CONbits.CCP1M1 = 1;
  1585   002010  82BD               	bsf	189,1,c	;volatile
  1586                           
  1587                           ;OBCII_PIC18F46K22.c: 185:     CCP1CONbits.CCP1M0 = 1;
  1588   002012  80BD               	bsf	189,0,c	;volatile
  1589   002014                     
  1590                           ;OBCII_PIC18F46K22.c: 189:     CCPR1H = 195;
  1591   002014  0EC3               	movlw	195
  1592   002016  6EBF               	movwf	191,c	;volatile
  1593                           
  1594                           ;OBCII_PIC18F46K22.c: 190:     CCPR1L = 80;
  1595   002018  0E50               	movlw	80
  1596   00201A  6EBE               	movwf	190,c	;volatile
  1597   00201C  0012               	return		;funcret
  1598   00201E                     __end_of_ccp1_init:
  1599                           	callstack 0
  1600                           
  1601 ;; *************** function _main_menu *****************
  1602 ;; Defined at:
  1603 ;;		line 254 in file "OBCII_PIC18F46K22.c"
  1604 ;; Parameters:    Size  Location     Type
  1605 ;;		None
  1606 ;; Auto vars:     Size  Location     Type
  1607 ;;  result          2   49[COMRAM] unsigned int 
  1608 ;;  menu_sel        2   47[COMRAM] int 
  1609 ;; Return value:  Size  Location     Type
  1610 ;;                  1    wreg      void 
  1611 ;; Registers used:
  1612 ;;		wreg, fsr0l, fsr0h, fsr1l, fsr1h, fsr2l, fsr2h, status,2, status,0, tblptrl, tblptrh, tblptru, cstack
  1613 ;; Tracked objects:
  1614 ;;		On entry : 0/0
  1615 ;;		On exit  : 0/0
  1616 ;;		Unchanged: 0/0
  1617 ;; Data sizes:     COMRAM   BANK0   BANK1   BANK2   BANK3   BANK4   BANK5   BANK6   BANK7   BANK8   BANK9  BANK10  BANK1
      +1  BANK12  BANK13  BANK14  BANK15
  1618 ;;      Params:         0       0       0       0       0       0       0       0       0       0       0       0       
      +0       0       0       0       0
  1619 ;;      Locals:         4       0       0       0       0       0       0       0       0       0       0       0       
      +0       0       0       0       0
  1620 ;;      Temps:          2       0       0       0       0       0       0       0       0       0       0       0       
      +0       0       0       0       0
  1621 ;;      Totals:         6       0       0       0       0       0       0       0       0       0       0       0       
      +0       0       0       0       0
  1622 ;;Total ram usage:        6 bytes
  1623 ;; Hardware stack levels used: 1
  1624 ;; Hardware stack levels required when called: 8
  1625 ;; This function calls:
  1626 ;;		_LCD_clear
  1627 ;;		_LCD_configure_cursor_blink
  1628 ;;		_LCD_cursor_set
  1629 ;;		_display_mm
  1630 ;;		_display_system_info
  1631 ;;		_live_reading_mode
  1632 ;;		_readADC
  1633 ;; This function is called by:
  1634 ;;		_main
  1635 ;; This function uses a non-reentrant model
  1636 ;;
  1637                           
  1638                           	psect	text4
  1639   0010A2                     __ptext4:
  1640                           	callstack 0
  1641   0010A2                     _main_menu:
  1642                           	callstack 22
  1643   0010A2                     
  1644                           ;OBCII_PIC18F46K22.c: 257:     unsigned int result;;OBCII_PIC18F46K22.c: 258:     int me
      +                          nu_sel = -1;
  1645   0010A2  6830               	setf	main_menu@menu_sel^0,c
  1646   0010A4  6831               	setf	(main_menu@menu_sel+1)^0,c
  1647   0010A6                     
  1648                           ;OBCII_PIC18F46K22.c: 260:     LCD_clear();
  1649   0010A6  ECED  F00F         	call	_LCD_clear	;wreg free
  1650   0010AA                     
  1651                           ;OBCII_PIC18F46K22.c: 261:     display_mm();
  1652   0010AA  EC7E  F00F         	call	_display_mm	;wreg free
  1653   0010AE                     l2379:
  1654                           
  1655                           ;OBCII_PIC18F46K22.c: 264:         result = readADC();
  1656   0010AE  EC63  F00F         	call	_readADC	;wreg free
  1657   0010B2  C003  F032         	movff	?_readADC,main_menu@result
  1658   0010B6  C004  F033         	movff	?_readADC+1,main_menu@result+1
  1659   0010BA                     
  1660                           ;OBCII_PIC18F46K22.c: 265:         if(result >= 0 && result <= 255){
  1661   0010BA  0433               	decf	(main_menu@result+1)^0,w,c
  1662   0010BC  B0D8               	btfsc	status,0,c
  1663   0010BE  EF63  F008         	goto	u1431
  1664   0010C2  EF65  F008         	goto	u1430
  1665   0010C6                     u1431:
  1666   0010C6  EF6E  F008         	goto	l2387
  1667   0010CA                     u1430:
  1668   0010CA                     
  1669                           ;OBCII_PIC18F46K22.c: 266:             menu_sel = 0;
  1670   0010CA  0E00               	movlw	0
  1671   0010CC  6E31               	movwf	(main_menu@menu_sel+1)^0,c
  1672   0010CE  0E00               	movlw	0
  1673   0010D0  6E30               	movwf	main_menu@menu_sel^0,c
  1674   0010D2                     
  1675                           ;OBCII_PIC18F46K22.c: 267:             LCD_cursor_set(2,1);
  1676   0010D2  0E01               	movlw	1
  1677   0010D4  6E06               	movwf	LCD_cursor_set@column^0,c
  1678   0010D6  0E02               	movlw	2
  1679   0010D8  EC71  F00E         	call	_LCD_cursor_set
  1680   0010DC                     l2387:
  1681                           
  1682                           ;OBCII_PIC18F46K22.c: 270:         if(result >= 256 && result <=511){
  1683   0010DC  0433               	decf	(main_menu@result+1)^0,w,c
  1684   0010DE  A0D8               	btfss	status,0,c
  1685   0010E0  EF74  F008         	goto	u1441
  1686   0010E4  EF76  F008         	goto	u1440
  1687   0010E8                     u1441:
  1688   0010E8  EF88  F008         	goto	l2395
  1689   0010EC                     u1440:
  1690   0010EC  0E02               	movlw	2
  1691   0010EE  5C33               	subwf	(main_menu@result+1)^0,w,c
  1692   0010F0  B0D8               	btfsc	status,0,c
  1693   0010F2  EF7D  F008         	goto	u1451
  1694   0010F6  EF7F  F008         	goto	u1450
  1695   0010FA                     u1451:
  1696   0010FA  EF88  F008         	goto	l2395
  1697   0010FE                     u1450:
  1698   0010FE                     
  1699                           ;OBCII_PIC18F46K22.c: 271:             menu_sel = 1;
  1700   0010FE  0E00               	movlw	0
  1701   001100  6E31               	movwf	(main_menu@menu_sel+1)^0,c
  1702   001102  0E01               	movlw	1
  1703   001104  6E30               	movwf	main_menu@menu_sel^0,c
  1704   001106                     
  1705                           ;OBCII_PIC18F46K22.c: 272:             LCD_cursor_set(2,5);
  1706   001106  0E05               	movlw	5
  1707   001108  6E06               	movwf	LCD_cursor_set@column^0,c
  1708   00110A  0E02               	movlw	2
  1709   00110C  EC71  F00E         	call	_LCD_cursor_set
  1710   001110                     l2395:
  1711                           
  1712                           ;OBCII_PIC18F46K22.c: 275:         if(result >=512 && result <=767){
  1713   001110  0E02               	movlw	2
  1714   001112  5C33               	subwf	(main_menu@result+1)^0,w,c
  1715   001114  A0D8               	btfss	status,0,c
  1716   001116  EF8F  F008         	goto	u1461
  1717   00111A  EF91  F008         	goto	u1460
  1718   00111E                     u1461:
  1719   00111E  EFA3  F008         	goto	l2403
  1720   001122                     u1460:
  1721   001122  0E03               	movlw	3
  1722   001124  5C33               	subwf	(main_menu@result+1)^0,w,c
  1723   001126  B0D8               	btfsc	status,0,c
  1724   001128  EF98  F008         	goto	u1471
  1725   00112C  EF9A  F008         	goto	u1470
  1726   001130                     u1471:
  1727   001130  EFA3  F008         	goto	l2403
  1728   001134                     u1470:
  1729   001134                     
  1730                           ;OBCII_PIC18F46K22.c: 276:             menu_sel = 2;
  1731   001134  0E00               	movlw	0
  1732   001136  6E31               	movwf	(main_menu@menu_sel+1)^0,c
  1733   001138  0E02               	movlw	2
  1734   00113A  6E30               	movwf	main_menu@menu_sel^0,c
  1735   00113C                     
  1736                           ;OBCII_PIC18F46K22.c: 277:             LCD_cursor_set(2,9);
  1737   00113C  0E09               	movlw	9
  1738   00113E  6E06               	movwf	LCD_cursor_set@column^0,c
  1739   001140  0E02               	movlw	2
  1740   001142  EC71  F00E         	call	_LCD_cursor_set
  1741   001146                     l2403:
  1742                           
  1743                           ;OBCII_PIC18F46K22.c: 279:         if(result >= 768 && result <=1023 ){
  1744   001146  0E03               	movlw	3
  1745   001148  5C33               	subwf	(main_menu@result+1)^0,w,c
  1746   00114A  A0D8               	btfss	status,0,c
  1747   00114C  EFAA  F008         	goto	u1481
  1748   001150  EFAC  F008         	goto	u1480
  1749   001154                     u1481:
  1750   001154  EFBE  F008         	goto	l2411
  1751   001158                     u1480:
  1752   001158  0E04               	movlw	4
  1753   00115A  5C33               	subwf	(main_menu@result+1)^0,w,c
  1754   00115C  B0D8               	btfsc	status,0,c
  1755   00115E  EFB3  F008         	goto	u1491
  1756   001162  EFB5  F008         	goto	u1490
  1757   001166                     u1491:
  1758   001166  EFBE  F008         	goto	l2411
  1759   00116A                     u1490:
  1760   00116A                     
  1761                           ;OBCII_PIC18F46K22.c: 280:             menu_sel = 3;
  1762   00116A  0E00               	movlw	0
  1763   00116C  6E31               	movwf	(main_menu@menu_sel+1)^0,c
  1764   00116E  0E03               	movlw	3
  1765   001170  6E30               	movwf	main_menu@menu_sel^0,c
  1766   001172                     
  1767                           ;OBCII_PIC18F46K22.c: 281:             LCD_cursor_set(2,13);
  1768   001172  0E0D               	movlw	13
  1769   001174  6E06               	movwf	LCD_cursor_set@column^0,c
  1770   001176  0E02               	movlw	2
  1771   001178  EC71  F00E         	call	_LCD_cursor_set
  1772   00117C                     l2411:
  1773                           
  1774                           ;OBCII_PIC18F46K22.c: 283:         LCD_configure_cursor_blink(1);
  1775   00117C  0E01               	movlw	1
  1776   00117E  ECDC  F00F         	call	_LCD_configure_cursor_blink
  1777   001182                     
  1778                           ;OBCII_PIC18F46K22.c: 285:         if (PORTBbits.RB4 == 0) {
  1779   001182  B881               	btfsc	129,4,c	;volatile
  1780   001184  EFC6  F008         	goto	u1501
  1781   001188  EFC8  F008         	goto	u1500
  1782   00118C                     u1501:
  1783   00118C  EF66  F009         	goto	l2473
  1784   001190                     u1500:
  1785   001190                     
  1786                           ;OBCII_PIC18F46K22.c: 286:             _delay((unsigned long)((20)*(16000000/4000.0)));
  1787   001190  0E68               	movlw	104
  1788   001192  6E2E               	movwf	??_main_menu^0,c
  1789   001194  0EE4               	movlw	228
  1790   001196                     u1857:
  1791   001196  2EE8               	decfsz	wreg,f,c
  1792   001198  D7FE               	bra	u1857
  1793   00119A  2E2E               	decfsz	??_main_menu^0,f,c
  1794   00119C  D7FC               	bra	u1857
  1795   00119E  D000               	nop2	
  1796   0011A0                     
  1797                           ;OBCII_PIC18F46K22.c: 287:             if (PORTBbits.RB4 == 0) {
  1798   0011A0  B881               	btfsc	129,4,c	;volatile
  1799   0011A2  EFD5  F008         	goto	u1511
  1800   0011A6  EFD7  F008         	goto	u1510
  1801   0011AA                     u1511:
  1802   0011AA  EF66  F009         	goto	l2473
  1803   0011AE                     u1510:
  1804   0011AE                     
  1805                           ;OBCII_PIC18F46K22.c: 288:                 LCD_configure_cursor_blink(0);
  1806   0011AE  0E00               	movlw	0
  1807   0011B0  ECDC  F00F         	call	_LCD_configure_cursor_blink
  1808                           
  1809                           ;OBCII_PIC18F46K22.c: 289:                 LCD_clear();
  1810   0011B4  ECED  F00F         	call	_LCD_clear	;wreg free
  1811                           
  1812                           ;OBCII_PIC18F46K22.c: 292:                 switch (menu_sel) {
  1813   0011B8  EF48  F009         	goto	l2471
  1814   0011BC                     l2421:
  1815                           
  1816                           ;OBCII_PIC18F46K22.c: 295:                             live_reading_mode();
  1817   0011BC  ECC9  F00F         	call	_live_reading_mode	;wreg free
  1818   0011C0                     
  1819                           ;OBCII_PIC18F46K22.c: 297:                             if (PORTCbits.RC5 == 0) {
  1820   0011C0  BA82               	btfsc	130,5,c	;volatile
  1821   0011C2  EFE5  F008         	goto	u1521
  1822   0011C6  EFE7  F008         	goto	u1520
  1823   0011CA                     u1521:
  1824   0011CA  EFDE  F008         	goto	l2421
  1825   0011CE                     u1520:
  1826   0011CE                     
  1827                           ;OBCII_PIC18F46K22.c: 298:                                 _delay((unsigned long)((20)*(
      +                          16000000/4000.0)));
  1828   0011CE  0E68               	movlw	104
  1829   0011D0  6E2E               	movwf	??_main_menu^0,c
  1830   0011D2  0EE4               	movlw	228
  1831   0011D4                     u1867:
  1832   0011D4  2EE8               	decfsz	wreg,f,c
  1833   0011D6  D7FE               	bra	u1867
  1834   0011D8  2E2E               	decfsz	??_main_menu^0,f,c
  1835   0011DA  D7FC               	bra	u1867
  1836   0011DC  D000               	nop2	
  1837   0011DE                     
  1838                           ;OBCII_PIC18F46K22.c: 299:                                 if (PORTCbits.RC5 == 0) {
  1839   0011DE  BA82               	btfsc	130,5,c	;volatile
  1840   0011E0  EFF4  F008         	goto	u1531
  1841   0011E4  EFF6  F008         	goto	u1530
  1842   0011E8                     u1531:
  1843   0011E8  EFDE  F008         	goto	l2421
  1844   0011EC                     u1530:
  1845   0011EC                     l2429:
  1846                           
  1847                           ;OBCII_PIC18F46K22.c: 300:                                     LCD_clear();
  1848   0011EC  ECED  F00F         	call	_LCD_clear	;wreg free
  1849   0011F0                     
  1850                           ;OBCII_PIC18F46K22.c: 301:                                     display_mm();
  1851   0011F0  EC7E  F00F         	call	_display_mm	;wreg free
  1852   0011F4                     
  1853                           ;OBCII_PIC18F46K22.c: 302:                                     menu_sel = -1;
  1854   0011F4  6830               	setf	main_menu@menu_sel^0,c
  1855   0011F6  6831               	setf	(main_menu@menu_sel+1)^0,c
  1856                           
  1857                           ;OBCII_PIC18F46K22.c: 303:                                     break;
  1858   0011F8  EF66  F009         	goto	l2473
  1859   0011FC                     l208:
  1860                           
  1861                           ;OBCII_PIC18F46K22.c: 314:                             if (PORTCbits.RC5 == 0) {
  1862   0011FC  BA82               	btfsc	130,5,c	;volatile
  1863   0011FE  EF03  F009         	goto	u1541
  1864   001202  EF05  F009         	goto	u1540
  1865   001206                     u1541:
  1866   001206  EFFE  F008         	goto	l208
  1867   00120A                     u1540:
  1868   00120A                     
  1869                           ;OBCII_PIC18F46K22.c: 315:                                 _delay((unsigned long)((20)*(
      +                          16000000/4000.0)));
  1870   00120A  0E68               	movlw	104
  1871   00120C  6E2E               	movwf	??_main_menu^0,c
  1872   00120E  0EE4               	movlw	228
  1873   001210                     u1877:
  1874   001210  2EE8               	decfsz	wreg,f,c
  1875   001212  D7FE               	bra	u1877
  1876   001214  2E2E               	decfsz	??_main_menu^0,f,c
  1877   001216  D7FC               	bra	u1877
  1878   001218  D000               	nop2	
  1879   00121A                     
  1880                           ;OBCII_PIC18F46K22.c: 316:                                 if (PORTCbits.RC5 == 0) {
  1881   00121A  BA82               	btfsc	130,5,c	;volatile
  1882   00121C  EF12  F009         	goto	u1551
  1883   001220  EF14  F009         	goto	u1550
  1884   001224                     u1551:
  1885   001224  EFFE  F008         	goto	l208
  1886   001228                     u1550:
  1887   001228  EFF6  F008         	goto	l2429
  1888   00122C                     l214:
  1889                           
  1890                           ;OBCII_PIC18F46K22.c: 330:                             if (PORTCbits.RC5 == 0) {
  1891   00122C  BA82               	btfsc	130,5,c	;volatile
  1892   00122E  EF1B  F009         	goto	u1561
  1893   001232  EF1D  F009         	goto	u1560
  1894   001236                     u1561:
  1895   001236  EF16  F009         	goto	l214
  1896   00123A                     u1560:
  1897   00123A                     
  1898                           ;OBCII_PIC18F46K22.c: 331:                                 _delay((unsigned long)((20)*(
      +                          16000000/4000.0)));
  1899   00123A  0E68               	movlw	104
  1900   00123C  6E2E               	movwf	??_main_menu^0,c
  1901   00123E  0EE4               	movlw	228
  1902   001240                     u1887:
  1903   001240  2EE8               	decfsz	wreg,f,c
  1904   001242  D7FE               	bra	u1887
  1905   001244  2E2E               	decfsz	??_main_menu^0,f,c
  1906   001246  D7FC               	bra	u1887
  1907   001248  D000               	nop2	
  1908   00124A                     
  1909                           ;OBCII_PIC18F46K22.c: 332:                                 if (PORTCbits.RC5 == 0) {
  1910   00124A  BA82               	btfsc	130,5,c	;volatile
  1911   00124C  EF2A  F009         	goto	u1571
  1912   001250  EF2C  F009         	goto	u1570
  1913   001254                     u1571:
  1914   001254  EF16  F009         	goto	l214
  1915   001258                     u1570:
  1916   001258  EFF6  F008         	goto	l2429
  1917   00125C                     l2455:
  1918                           
  1919                           ;OBCII_PIC18F46K22.c: 344:                             display_system_info();
  1920   00125C  EC2B  F010         	call	_display_system_info	;wreg free
  1921   001260                     
  1922                           ;OBCII_PIC18F46K22.c: 346:                             if (PORTCbits.RC5 == 0) {
  1923   001260  BA82               	btfsc	130,5,c	;volatile
  1924   001262  EF35  F009         	goto	u1581
  1925   001266  EF37  F009         	goto	u1580
  1926   00126A                     u1581:
  1927   00126A  EF2E  F009         	goto	l2455
  1928   00126E                     u1580:
  1929   00126E                     
  1930                           ;OBCII_PIC18F46K22.c: 347:                                 _delay((unsigned long)((20)*(
      +                          16000000/4000.0)));
  1931   00126E  0E68               	movlw	104
  1932   001270  6E2E               	movwf	??_main_menu^0,c
  1933   001272  0EE4               	movlw	228
  1934   001274                     u1897:
  1935   001274  2EE8               	decfsz	wreg,f,c
  1936   001276  D7FE               	bra	u1897
  1937   001278  2E2E               	decfsz	??_main_menu^0,f,c
  1938   00127A  D7FC               	bra	u1897
  1939   00127C  D000               	nop2	
  1940   00127E                     
  1941                           ;OBCII_PIC18F46K22.c: 348:                                 if (PORTCbits.RC5 == 0) {
  1942   00127E  BA82               	btfsc	130,5,c	;volatile
  1943   001280  EF44  F009         	goto	u1591
  1944   001284  EF46  F009         	goto	u1590
  1945   001288                     u1591:
  1946   001288  EF2E  F009         	goto	l2455
  1947   00128C                     u1590:
  1948   00128C  EFF6  F008         	goto	l2429
  1949   001290                     l2471:
  1950   001290  C030  F02E         	movff	main_menu@menu_sel,??_main_menu
  1951   001294  C031  F02F         	movff	main_menu@menu_sel+1,??_main_menu+1
  1952                           
  1953                           ; Switch on 2 bytes has been partitioned into a top level switch of size 1, and 1 sub-sw
      +                          itches
  1954                           ; Switch size 1, requested type "simple"
  1955                           ; Number of cases is 1, Range of values is 0 to 0
  1956                           ; switch strategies available:
  1957                           ; Name         Instructions Cycles
  1958                           ; simple_byte            4     3 (average)
  1959                           ;	Chosen strategy is simple_byte
  1960   001298  502F               	movf	(??_main_menu+1)^0,w,c
  1961   00129A  0A00               	xorlw	0	; case 0
  1962   00129C  B4D8               	btfsc	status,2,c
  1963   00129E  EF53  F009         	goto	l2707
  1964   0012A2  EF66  F009         	goto	l198
  1965   0012A6                     l2707:
  1966                           
  1967                           ; Switch size 1, requested type "simple"
  1968                           ; Number of cases is 4, Range of values is 0 to 3
  1969                           ; switch strategies available:
  1970                           ; Name         Instructions Cycles
  1971                           ; simple_byte           13     7 (average)
  1972                           ;	Chosen strategy is simple_byte
  1973   0012A6  502E               	movf	??_main_menu^0,w,c
  1974   0012A8  0A00               	xorlw	0	; case 0
  1975   0012AA  B4D8               	btfsc	status,2,c
  1976   0012AC  EFDE  F008         	goto	l2421
  1977   0012B0  0A01               	xorlw	1	; case 1
  1978   0012B2  B4D8               	btfsc	status,2,c
  1979   0012B4  EFFE  F008         	goto	l208
  1980   0012B8  0A03               	xorlw	3	; case 2
  1981   0012BA  B4D8               	btfsc	status,2,c
  1982   0012BC  EF16  F009         	goto	l214
  1983   0012C0  0A01               	xorlw	1	; case 3
  1984   0012C2  B4D8               	btfsc	status,2,c
  1985   0012C4  EF2E  F009         	goto	l2455
  1986   0012C8  EF66  F009         	goto	l198
  1987   0012CC                     l198:
  1988   0012CC                     l2473:
  1989                           
  1990                           ;OBCII_PIC18F46K22.c: 364:         _delay((unsigned long)((50)*(16000000/4000.0)));
  1991   0012CC  0E02               	movlw	2
  1992   0012CE  6E2F               	movwf	(??_main_menu+1)^0,c
  1993   0012D0  0E04               	movlw	4
  1994   0012D2  6E2E               	movwf	??_main_menu^0,c
  1995   0012D4  0EBA               	movlw	186
  1996   0012D6                     u1907:
  1997   0012D6  2EE8               	decfsz	wreg,f,c
  1998   0012D8  D7FE               	bra	u1907
  1999   0012DA  2E2E               	decfsz	??_main_menu^0,f,c
  2000   0012DC  D7FC               	bra	u1907
  2001   0012DE  2E2F               	decfsz	(??_main_menu+1)^0,f,c
  2002   0012E0  D7FA               	bra	u1907
  2003   0012E2  D000               	nop2	
  2004   0012E4  EF57  F008         	goto	l2379
  2005   0012E8  0012               	return		;funcret
  2006   0012EA                     __end_of_main_menu:
  2007                           	callstack 0
  2008                           
  2009 ;; *************** function _readADC *****************
  2010 ;; Defined at:
  2011 ;;		line 240 in file "OBCII_PIC18F46K22.c"
  2012 ;; Parameters:    Size  Location     Type
  2013 ;;		None
  2014 ;; Auto vars:     Size  Location     Type
  2015 ;;		None
  2016 ;; Return value:  Size  Location     Type
  2017 ;;                  2    2[COMRAM] unsigned int 
  2018 ;; Registers used:
  2019 ;;		wreg, status,2, status,0
  2020 ;; Tracked objects:
  2021 ;;		On entry : 0/0
  2022 ;;		On exit  : 0/0
  2023 ;;		Unchanged: 0/0
  2024 ;; Data sizes:     COMRAM   BANK0   BANK1   BANK2   BANK3   BANK4   BANK5   BANK6   BANK7   BANK8   BANK9  BANK10  BANK1
      +1  BANK12  BANK13  BANK14  BANK15
  2025 ;;      Params:         2       0       0       0       0       0       0       0       0       0       0       0       
      +0       0       0       0       0
  2026 ;;      Locals:         0       0       0       0       0       0       0       0       0       0       0       0       
      +0       0       0       0       0
  2027 ;;      Temps:          2       0       0       0       0       0       0       0       0       0       0       0       
      +0       0       0       0       0
  2028 ;;      Totals:         4       0       0       0       0       0       0       0       0       0       0       0       
      +0       0       0       0       0
  2029 ;;Total ram usage:        4 bytes
  2030 ;; Hardware stack levels used: 1
  2031 ;; Hardware stack levels required when called: 1
  2032 ;; This function calls:
  2033 ;;		Nothing
  2034 ;; This function is called by:
  2035 ;;		_main_menu
  2036 ;; This function uses a non-reentrant model
  2037 ;;
  2038                           
  2039                           	psect	text5
  2040   001EC6                     __ptext5:
  2041                           	callstack 0
  2042   001EC6                     _readADC:
  2043                           	callstack 28
  2044   001EC6                     
  2045                           ;OBCII_PIC18F46K22.c: 241:     ADCON0bits.GO = 1;
  2046   001EC6  82C2               	bsf	194,1,c	;volatile
  2047   001EC8                     l183:
  2048   001EC8  B2C2               	btfsc	194,1,c	;volatile
  2049   001ECA  EF69  F00F         	goto	u1371
  2050   001ECE  EF6B  F00F         	goto	u1370
  2051   001ED2                     u1371:
  2052   001ED2  EF64  F00F         	goto	l183
  2053   001ED6                     u1370:
  2054   001ED6                     
  2055                           ;OBCII_PIC18F46K22.c: 243:     _delay((unsigned long)((10)*(16000000/4000.0)));
  2056   001ED6  0E34               	movlw	52
  2057   001ED8  6E05               	movwf	??_readADC^0,c
  2058   001EDA  0EF2               	movlw	242
  2059   001EDC                     u1917:
  2060   001EDC  2EE8               	decfsz	wreg,f,c
  2061   001EDE  D7FE               	bra	u1917
  2062   001EE0  2E05               	decfsz	??_readADC^0,f,c
  2063   001EE2  D7FC               	bra	u1917
  2064   001EE4                     
  2065                           ;OBCII_PIC18F46K22.c: 244:     return ((ADRESH << 8) | ADRESL);
  2066   001EE4  50C3               	movf	195,w,c	;volatile
  2067   001EE6  CFC4 F005          	movff	4036,??_readADC	;volatile
  2068   001EEA  6A06               	clrf	(??_readADC+1)^0,c
  2069   001EEC  C005  F006         	movff	??_readADC,??_readADC+1
  2070   001EF0  6A05               	clrf	??_readADC^0,c
  2071   001EF2  1005               	iorwf	??_readADC^0,w,c
  2072   001EF4  6E03               	movwf	?_readADC^0,c
  2073   001EF6  5006               	movf	(??_readADC+1)^0,w,c
  2074   001EF8  6E04               	movwf	(?_readADC+1)^0,c
  2075   001EFA  0012               	return		;funcret
  2076   001EFC                     __end_of_readADC:
  2077                           	callstack 0
  2078                           
  2079 ;; *************** function _live_reading_mode *****************
  2080 ;; Defined at:
  2081 ;;		line 452 in file "OBCII_PIC18F46K22.c"
  2082 ;; Parameters:    Size  Location     Type
  2083 ;;		None
  2084 ;; Auto vars:     Size  Location     Type
  2085 ;;		None
  2086 ;; Return value:  Size  Location     Type
  2087 ;;                  1    wreg      void 
  2088 ;; Registers used:
  2089 ;;		wreg, fsr0l, fsr0h, fsr1l, fsr1h, fsr2l, fsr2h, status,2, status,0, tblptrl, tblptrh, tblptru, cstack
  2090 ;; Tracked objects:
  2091 ;;		On entry : 0/0
  2092 ;;		On exit  : 0/0
  2093 ;;		Unchanged: 0/0
  2094 ;; Data sizes:     COMRAM   BANK0   BANK1   BANK2   BANK3   BANK4   BANK5   BANK6   BANK7   BANK8   BANK9  BANK10  BANK1
      +1  BANK12  BANK13  BANK14  BANK15
  2095 ;;      Params:         0       0       0       0       0       0       0       0       0       0       0       0       
      +0       0       0       0       0
  2096 ;;      Locals:         0       0       0       0       0       0       0       0       0       0       0       0       
      +0       0       0       0       0
  2097 ;;      Temps:          2       0       0       0       0       0       0       0       0       0       0       0       
      +0       0       0       0       0
  2098 ;;      Totals:         2       0       0       0       0       0       0       0       0       0       0       0       
      +0       0       0       0       0
  2099 ;;Total ram usage:        2 bytes
  2100 ;; Hardware stack levels used: 1
  2101 ;; Hardware stack levels required when called: 7
  2102 ;; This function calls:
  2103 ;;		_print_AI_Temp
  2104 ;;		_print_RPM
  2105 ;;		_print_Vbatt
  2106 ;; This function is called by:
  2107 ;;		_main_menu
  2108 ;; This function uses a non-reentrant model
  2109 ;;
  2110                           
  2111                           	psect	text6
  2112   001F92                     __ptext6:
  2113                           	callstack 0
  2114   001F92                     _live_reading_mode:
  2115                           	callstack 22
  2116   001F92                     
  2117                           ;OBCII_PIC18F46K22.c: 453:             print_RPM();
  2118   001F92  EC2A  F00A         	call	_print_RPM	;wreg free
  2119   001F96                     
  2120                           ;OBCII_PIC18F46K22.c: 454:             print_Vbatt();
  2121   001F96  ECCD  F00C         	call	_print_Vbatt	;wreg free
  2122   001F9A                     
  2123                           ;OBCII_PIC18F46K22.c: 455:             print_AI_Temp();
  2124   001F9A  EC0F  F00C         	call	_print_AI_Temp	;wreg free
  2125   001F9E                     
  2126                           ;OBCII_PIC18F46K22.c: 456:             _delay((unsigned long)((50)*(16000000/4000.0)));
  2127   001F9E  0E02               	movlw	2
  2128   001FA0  6E2D               	movwf	(??_live_reading_mode+1)^0,c
  2129   001FA2  0E04               	movlw	4
  2130   001FA4  6E2C               	movwf	??_live_reading_mode^0,c
  2131   001FA6  0EBA               	movlw	186
  2132   001FA8                     u1927:
  2133   001FA8  2EE8               	decfsz	wreg,f,c
  2134   001FAA  D7FE               	bra	u1927
  2135   001FAC  2E2C               	decfsz	??_live_reading_mode^0,f,c
  2136   001FAE  D7FC               	bra	u1927
  2137   001FB0  2E2D               	decfsz	(??_live_reading_mode+1)^0,f,c
  2138   001FB2  D7FA               	bra	u1927
  2139   001FB4  D000               	nop2	
  2140   001FB6  0012               	return		;funcret
  2141   001FB8                     __end_of_live_reading_mode:
  2142                           	callstack 0
  2143                           
  2144 ;; *************** function _print_Vbatt *****************
  2145 ;; Defined at:
  2146 ;;		line 401 in file "OBCII_PIC18F46K22.c"
  2147 ;; Parameters:    Size  Location     Type
  2148 ;;		None
  2149 ;; Auto vars:     Size  Location     Type
  2150 ;;		None
  2151 ;; Return value:  Size  Location     Type
  2152 ;;                  1    wreg      void 
  2153 ;; Registers used:
  2154 ;;		wreg, fsr0l, fsr0h, fsr2l, fsr2h, status,2, status,0, tblptrl, tblptrh, tblptru, cstack
  2155 ;; Tracked objects:
  2156 ;;		On entry : 0/0
  2157 ;;		On exit  : 0/0
  2158 ;;		Unchanged: 0/0
  2159 ;; Data sizes:     COMRAM   BANK0   BANK1   BANK2   BANK3   BANK4   BANK5   BANK6   BANK7   BANK8   BANK9  BANK10  BANK1
      +1  BANK12  BANK13  BANK14  BANK15
  2160 ;;      Params:         0       0       0       0       0       0       0       0       0       0       0       0       
      +0       0       0       0       0
  2161 ;;      Locals:         0       0       0       0       0       0       0       0       0       0       0       0       
      +0       0       0       0       0
  2162 ;;      Temps:          0       0       0       0       0       0       0       0       0       0       0       0       
      +0       0       0       0       0
  2163 ;;      Totals:         0       0       0       0       0       0       0       0       0       0       0       0       
      +0       0       0       0       0
  2164 ;;Total ram usage:        0 bytes
  2165 ;; Hardware stack levels used: 1
  2166 ;; Hardware stack levels required when called: 4
  2167 ;; This function calls:
  2168 ;;		_LCD_cursor_set
  2169 ;;		_LCD_write_string
  2170 ;;		_UART1_SendString
  2171 ;;		_strchr
  2172 ;; This function is called by:
  2173 ;;		_live_reading_mode
  2174 ;; This function uses a non-reentrant model
  2175 ;;
  2176                           
  2177                           	psect	text7
  2178   00199A                     __ptext7:
  2179                           	callstack 0
  2180   00199A                     _print_Vbatt:
  2181                           	callstack 24
  2182   00199A                     
  2183                           ;OBCII_PIC18F46K22.c: 403:     UART1_SendString("ATRV\r");
  2184   00199A  0E6D               	movlw	low STR_12
  2185   00199C  6E04               	movwf	UART1_SendString@string^0,c
  2186   00199E  ECA1  F00E         	call	_UART1_SendString	;wreg free
  2187   0019A2                     l2187:
  2188                           
  2189                           ;OBCII_PIC18F46K22.c: 404:     while(!message_complete) {
  2190   0019A2  5047               	movf	_message_complete^0,w,c	;volatile
  2191   0019A4  B4D8               	btfsc	status,2,c
  2192   0019A6  EFD7  F00C         	goto	u1321
  2193   0019AA  EFD9  F00C         	goto	u1320
  2194   0019AE                     u1321:
  2195   0019AE  EFD1  F00C         	goto	l2187
  2196   0019B2                     u1320:
  2197   0019B2                     
  2198                           ;OBCII_PIC18F46K22.c: 408:     LCD_cursor_set(2,7);
  2199   0019B2  0E07               	movlw	7
  2200   0019B4  6E06               	movwf	LCD_cursor_set@column^0,c
  2201   0019B6  0E02               	movlw	2
  2202   0019B8  EC71  F00E         	call	_LCD_cursor_set
  2203   0019BC                     
  2204                           ;OBCII_PIC18F46K22.c: 409:     LCD_write_string("     ");
  2205   0019BC  0E73               	movlw	low STR_10
  2206   0019BE  6E06               	movwf	LCD_write_string@string^0,c
  2207   0019C0  5006               	movf	LCD_write_string@string^0,w,c
  2208   0019C2  A4D8               	btfss	status,2,c
  2209   0019C4  0E10               	movlw	high __smallconst
  2210   0019C6  6E07               	movwf	(LCD_write_string@string+1)^0,c
  2211   0019C8  EC97  F00D         	call	_LCD_write_string	;wreg free
  2212   0019CC                     
  2213                           ;OBCII_PIC18F46K22.c: 411:     LCD_cursor_set(1,7);
  2214   0019CC  0E07               	movlw	7
  2215   0019CE  6E06               	movwf	LCD_cursor_set@column^0,c
  2216   0019D0  0E01               	movlw	1
  2217   0019D2  EC71  F00E         	call	_LCD_cursor_set
  2218                           
  2219                           ;OBCII_PIC18F46K22.c: 412:     LCD_write_string("VBatt");
  2220   0019D6  0E85               	movlw	low STR_14
  2221   0019D8  6E06               	movwf	LCD_write_string@string^0,c
  2222   0019DA  5006               	movf	LCD_write_string@string^0,w,c
  2223   0019DC  A4D8               	btfss	status,2,c
  2224   0019DE  0E10               	movlw	high __smallconst
  2225   0019E0  6E07               	movwf	(LCD_write_string@string+1)^0,c
  2226   0019E2  EC97  F00D         	call	_LCD_write_string	;wreg free
  2227   0019E6                     
  2228                           ;OBCII_PIC18F46K22.c: 413:     LCD_cursor_set(2,7);
  2229   0019E6  0E07               	movlw	7
  2230   0019E8  6E06               	movwf	LCD_cursor_set@column^0,c
  2231   0019EA  0E02               	movlw	2
  2232   0019EC  EC71  F00E         	call	_LCD_cursor_set
  2233   0019F0                     
  2234                           ;OBCII_PIC18F46K22.c: 415:     if (!strchr(buffer, 'V')) {
  2235   0019F0  0E80               	movlw	low _buffer
  2236   0019F2  6E03               	movwf	strchr@s^0,c
  2237   0019F4  0E00               	movlw	0
  2238   0019F6  6E05               	movwf	(strchr@c+1)^0,c
  2239   0019F8  0E56               	movlw	86
  2240   0019FA  6E04               	movwf	strchr@c^0,c
  2241   0019FC  EC46  F00F         	call	_strchr	;wreg free
  2242   001A00  0900               	iorlw	0
  2243   001A02  A4D8               	btfss	status,2,c
  2244   001A04  EF06  F00D         	goto	u1331
  2245   001A08  EF08  F00D         	goto	u1330
  2246   001A0C                     u1331:
  2247   001A0C  EF12  F00D         	goto	l2201
  2248   001A10                     u1330:
  2249   001A10                     
  2250                           ;OBCII_PIC18F46K22.c: 416:         LCD_write_string("N/A");
  2251   001A10  0E90               	movlw	low STR_15
  2252   001A12  6E06               	movwf	LCD_write_string@string^0,c
  2253   001A14  5006               	movf	LCD_write_string@string^0,w,c
  2254   001A16  A4D8               	btfss	status,2,c
  2255   001A18  0E10               	movlw	high __smallconst
  2256   001A1A  6E07               	movwf	(LCD_write_string@string+1)^0,c
  2257   001A1C  EC97  F00D         	call	_LCD_write_string	;wreg free
  2258                           
  2259                           ;OBCII_PIC18F46K22.c: 417:     }
  2260   001A20  EF17  F00D         	goto	l2203
  2261   001A24                     l2201:
  2262                           
  2263                           ;OBCII_PIC18F46K22.c: 419:     LCD_write_string(buffer);
  2264   001A24  0E80               	movlw	low _buffer
  2265   001A26  6E06               	movwf	LCD_write_string@string^0,c
  2266   001A28  6A07               	clrf	(LCD_write_string@string+1)^0,c
  2267   001A2A  EC97  F00D         	call	_LCD_write_string	;wreg free
  2268   001A2E                     l2203:
  2269                           
  2270                           ;OBCII_PIC18F46K22.c: 422:     buffer_count = 0;
  2271   001A2E  6A49               	clrf	_buffer_count^0,c
  2272   001A30                     
  2273                           ;OBCII_PIC18F46K22.c: 423:     message_complete = 0;
  2274   001A30  6A47               	clrf	_message_complete^0,c	;volatile
  2275   001A32  0012               	return		;funcret
  2276   001A34                     __end_of_print_Vbatt:
  2277                           	callstack 0
  2278                           
  2279 ;; *************** function _strchr *****************
  2280 ;; Defined at:
  2281 ;;		line 3 in file "C:\Program Files\Microchip\xc8\v3.00\pic\sources\c99\common\strchr.c"
  2282 ;; Parameters:    Size  Location     Type
  2283 ;;  s               1    2[COMRAM] PTR const unsigned char 
  2284 ;;		 -> buffer(32), 
  2285 ;;  c               2    3[COMRAM] int 
  2286 ;; Auto vars:     Size  Location     Type
  2287 ;;		None
  2288 ;; Return value:  Size  Location     Type
  2289 ;;                  1    2[COMRAM] PTR unsigned char 
  2290 ;; Registers used:
  2291 ;;		wreg, fsr2l, fsr2h, status,2, status,0
  2292 ;; Tracked objects:
  2293 ;;		On entry : 0/0
  2294 ;;		On exit  : 0/0
  2295 ;;		Unchanged: 0/0
  2296 ;; Data sizes:     COMRAM   BANK0   BANK1   BANK2   BANK3   BANK4   BANK5   BANK6   BANK7   BANK8   BANK9  BANK10  BANK1
      +1  BANK12  BANK13  BANK14  BANK15
  2297 ;;      Params:         3       0       0       0       0       0       0       0       0       0       0       0       
      +0       0       0       0       0
  2298 ;;      Locals:         0       0       0       0       0       0       0       0       0       0       0       0       
      +0       0       0       0       0
  2299 ;;      Temps:          1       0       0       0       0       0       0       0       0       0       0       0       
      +0       0       0       0       0
  2300 ;;      Totals:         4       0       0       0       0       0       0       0       0       0       0       0       
      +0       0       0       0       0
  2301 ;;Total ram usage:        4 bytes
  2302 ;; Hardware stack levels used: 1
  2303 ;; Hardware stack levels required when called: 1
  2304 ;; This function calls:
  2305 ;;		Nothing
  2306 ;; This function is called by:
  2307 ;;		_print_Vbatt
  2308 ;; This function uses a non-reentrant model
  2309 ;;
  2310                           
  2311                           	psect	text8
  2312   001E8C                     __ptext8:
  2313                           	callstack 0
  2314   001E8C                     _strchr:
  2315                           	callstack 26
  2316   001E8C                     l1156:
  2317   001E8C  5003               	movf	strchr@s^0,w,c
  2318   001E8E  6ED9               	movwf	fsr2l,c
  2319   001E90  6ADA               	clrf	fsr2h,c
  2320   001E92  5004               	movf	strchr@c^0,w,c
  2321   001E94  18DE               	xorwf	postinc2,w,c
  2322   001E96  A4D8               	btfss	status,2,c
  2323   001E98  EF50  F00F         	goto	u1291
  2324   001E9C  EF52  F00F         	goto	u1290
  2325   001EA0                     u1291:
  2326   001EA0  EF55  F00F         	goto	l2153
  2327   001EA4                     u1290:
  2328   001EA4  5003               	movf	strchr@s^0,w,c
  2329   001EA6  EF62  F00F         	goto	l1158
  2330   001EAA                     l2153:
  2331   001EAA  2A03               	incf	strchr@s^0,f,c
  2332   001EAC  0403               	decf	strchr@s^0,w,c
  2333   001EAE  6ED9               	movwf	fsr2l,c
  2334   001EB0  6ADA               	clrf	fsr2h,c
  2335   001EB2  50DF               	movf	indf2,w,c
  2336   001EB4  A4D8               	btfss	status,2,c
  2337   001EB6  EF5F  F00F         	goto	u1301
  2338   001EBA  EF61  F00F         	goto	u1300
  2339   001EBE                     u1301:
  2340   001EBE  EF46  F00F         	goto	l1156
  2341   001EC2                     u1300:
  2342   001EC2  0E00               	movlw	0
  2343   001EC4                     l1158:
  2344   001EC4  0012               	return		;funcret
  2345   001EC6                     __end_of_strchr:
  2346                           	callstack 0
  2347                           
  2348 ;; *************** function _print_RPM *****************
  2349 ;; Defined at:
  2350 ;;		line 376 in file "OBCII_PIC18F46K22.c"
  2351 ;; Parameters:    Size  Location     Type
  2352 ;;		None
  2353 ;; Auto vars:     Size  Location     Type
  2354 ;;		None
  2355 ;; Return value:  Size  Location     Type
  2356 ;;                  1    wreg      void 
  2357 ;; Registers used:
  2358 ;;		wreg, fsr0l, fsr0h, fsr1l, fsr1h, fsr2l, fsr2h, status,2, status,0, tblptrl, tblptrh, tblptru, cstack
  2359 ;; Tracked objects:
  2360 ;;		On entry : 0/0
  2361 ;;		On exit  : 0/0
  2362 ;;		Unchanged: 0/0
  2363 ;; Data sizes:     COMRAM   BANK0   BANK1   BANK2   BANK3   BANK4   BANK5   BANK6   BANK7   BANK8   BANK9  BANK10  BANK1
      +1  BANK12  BANK13  BANK14  BANK15
  2364 ;;      Params:         0       0       0       0       0       0       0       0       0       0       0       0       
      +0       0       0       0       0
  2365 ;;      Locals:         0       0       0       0       0       0       0       0       0       0       0       0       
      +0       0       0       0       0
  2366 ;;      Temps:          3       0       0       0       0       0       0       0       0       0       0       0       
      +0       0       0       0       0
  2367 ;;      Totals:         3       0       0       0       0       0       0       0       0       0       0       0       
      +0       0       0       0       0
  2368 ;;Total ram usage:        3 bytes
  2369 ;; Hardware stack levels used: 1
  2370 ;; Hardware stack levels required when called: 6
  2371 ;; This function calls:
  2372 ;;		_LCD_cursor_set
  2373 ;;		_LCD_write_string
  2374 ;;		_UART1_SendString
  2375 ;;		_hex_char_to_value
  2376 ;;		_sprintf
  2377 ;; This function is called by:
  2378 ;;		_live_reading_mode
  2379 ;; This function uses a non-reentrant model
  2380 ;;
  2381                           
  2382                           	psect	text9
  2383   001454                     __ptext9:
  2384                           	callstack 0
  2385   001454                     _print_RPM:
  2386                           	callstack 22
  2387   001454                     
  2388                           ;OBCII_PIC18F46K22.c: 378:     UART1_SendString("010C\r");
  2389   001454  0E61               	movlw	low STR_8
  2390   001456  6E04               	movwf	UART1_SendString@string^0,c
  2391   001458  ECA1  F00E         	call	_UART1_SendString	;wreg free
  2392   00145C                     l2161:
  2393                           
  2394                           ;OBCII_PIC18F46K22.c: 379:     while(!message_complete) {
  2395   00145C  5047               	movf	_message_complete^0,w,c	;volatile
  2396   00145E  B4D8               	btfsc	status,2,c
  2397   001460  EF34  F00A         	goto	u1311
  2398   001464  EF36  F00A         	goto	u1310
  2399   001468                     u1311:
  2400   001468  EF2E  F00A         	goto	l2161
  2401   00146C                     u1310:
  2402   00146C                     
  2403                           ;OBCII_PIC18F46K22.c: 383:     A_rpm = (hex_char_to_value(buffer[4]) << 4) | hex_char_to
      +                          _value(buffer[5]);
  2404   00146C  0100               	movlb	0	; () banked
  2405   00146E  5184               	movf	(_buffer+4)& (0+255),w,b
  2406   001470  EC1A  F00D         	call	_hex_char_to_value
  2407   001474  6E29               	movwf	??_print_RPM^0,c
  2408   001476  6A2A               	clrf	(??_print_RPM+1)^0,c
  2409   001478  3A29               	swapf	??_print_RPM^0,f,c
  2410   00147A  3A2A               	swapf	(??_print_RPM+1)^0,f,c
  2411   00147C  0EF0               	movlw	240
  2412   00147E  162A               	andwf	(??_print_RPM+1)^0,f,c
  2413   001480  5029               	movf	??_print_RPM^0,w,c
  2414   001482  0B0F               	andlw	15
  2415   001484  122A               	iorwf	(??_print_RPM+1)^0,f,c
  2416   001486  0EF0               	movlw	240
  2417   001488  1629               	andwf	??_print_RPM^0,f,c
  2418   00148A  0100               	movlb	0	; () banked
  2419   00148C  5185               	movf	(_buffer+5)& (0+255),w,b
  2420   00148E  EC1A  F00D         	call	_hex_char_to_value
  2421   001492  6E2B               	movwf	(??_print_RPM+2)^0,c
  2422   001494  502B               	movf	(??_print_RPM+2)^0,w,c
  2423   001496  1029               	iorwf	??_print_RPM^0,w,c
  2424   001498  6E44               	movwf	_A_rpm^0,c
  2425   00149A  502A               	movf	(??_print_RPM+1)^0,w,c
  2426   00149C  6E45               	movwf	(_A_rpm+1)^0,c
  2427                           
  2428                           ;OBCII_PIC18F46K22.c: 384:     B_rpm = (hex_char_to_value(buffer[6]) << 4) | hex_char_to
      +                          _value(buffer[7]);
  2429   00149E  0100               	movlb	0	; () banked
  2430   0014A0  5186               	movf	(_buffer+6)& (0+255),w,b
  2431   0014A2  EC1A  F00D         	call	_hex_char_to_value
  2432   0014A6  6E29               	movwf	??_print_RPM^0,c
  2433   0014A8  6A2A               	clrf	(??_print_RPM+1)^0,c
  2434   0014AA  3A29               	swapf	??_print_RPM^0,f,c
  2435   0014AC  3A2A               	swapf	(??_print_RPM+1)^0,f,c
  2436   0014AE  0EF0               	movlw	240
  2437   0014B0  162A               	andwf	(??_print_RPM+1)^0,f,c
  2438   0014B2  5029               	movf	??_print_RPM^0,w,c
  2439   0014B4  0B0F               	andlw	15
  2440   0014B6  122A               	iorwf	(??_print_RPM+1)^0,f,c
  2441   0014B8  0EF0               	movlw	240
  2442   0014BA  1629               	andwf	??_print_RPM^0,f,c
  2443   0014BC  0100               	movlb	0	; () banked
  2444   0014BE  5187               	movf	(_buffer+7)& (0+255),w,b
  2445   0014C0  EC1A  F00D         	call	_hex_char_to_value
  2446   0014C4  6E2B               	movwf	(??_print_RPM+2)^0,c
  2447   0014C6  502B               	movf	(??_print_RPM+2)^0,w,c
  2448   0014C8  1029               	iorwf	??_print_RPM^0,w,c
  2449   0014CA  6E42               	movwf	_B_rpm^0,c
  2450   0014CC  502A               	movf	(??_print_RPM+1)^0,w,c
  2451   0014CE  6E43               	movwf	(_B_rpm+1)^0,c
  2452   0014D0                     
  2453                           ;OBCII_PIC18F46K22.c: 385:     RPM = ((A_rpm * 256) + B_rpm) / 4;
  2454   0014D0  5044               	movf	_A_rpm^0,w,c
  2455   0014D2  6E2A               	movwf	(??_print_RPM+1)^0,c
  2456   0014D4  6A29               	clrf	??_print_RPM^0,c
  2457   0014D6  5042               	movf	_B_rpm^0,w,c
  2458   0014D8  2629               	addwf	??_print_RPM^0,f,c
  2459   0014DA  5043               	movf	(_B_rpm+1)^0,w,c
  2460   0014DC  222A               	addwfc	(??_print_RPM+1)^0,f,c
  2461   0014DE  90D8               	bcf	status,0,c
  2462   0014E0  322A               	rrcf	(??_print_RPM+1)^0,f,c
  2463   0014E2  3229               	rrcf	??_print_RPM^0,f,c
  2464   0014E4  90D8               	bcf	status,0,c
  2465   0014E6  322A               	rrcf	(??_print_RPM+1)^0,f,c
  2466   0014E8  3229               	rrcf	??_print_RPM^0,f,c
  2467   0014EA  C029  F040         	movff	??_print_RPM,_RPM
  2468   0014EE  C02A  F041         	movff	??_print_RPM+1,_RPM+1
  2469   0014F2                     
  2470                           ;OBCII_PIC18F46K22.c: 387:     sprintf(rpm_string, "%u", RPM);
  2471   0014F2  0E4A               	movlw	low _rpm_string
  2472   0014F4  6E19               	movwf	sprintf@s^0,c
  2473   0014F6  0E9C               	movlw	low STR_9
  2474   0014F8  6E1A               	movwf	sprintf@fmt^0,c
  2475   0014FA  C040  F01B         	movff	_RPM,?_sprintf+2
  2476   0014FE  C041  F01C         	movff	_RPM+1,?_sprintf+3
  2477   001502  EC99  F00F         	call	_sprintf	;wreg free
  2478   001506                     
  2479                           ;OBCII_PIC18F46K22.c: 389:     LCD_cursor_set(2,1);
  2480   001506  0E01               	movlw	1
  2481   001508  6E06               	movwf	LCD_cursor_set@column^0,c
  2482   00150A  0E02               	movlw	2
  2483   00150C  EC71  F00E         	call	_LCD_cursor_set
  2484   001510                     
  2485                           ;OBCII_PIC18F46K22.c: 390:     LCD_write_string("     ");
  2486   001510  0E73               	movlw	low STR_10
  2487   001512  6E06               	movwf	LCD_write_string@string^0,c
  2488   001514  5006               	movf	LCD_write_string@string^0,w,c
  2489   001516  A4D8               	btfss	status,2,c
  2490   001518  0E10               	movlw	high __smallconst
  2491   00151A  6E07               	movwf	(LCD_write_string@string+1)^0,c
  2492   00151C  EC97  F00D         	call	_LCD_write_string	;wreg free
  2493   001520                     
  2494                           ;OBCII_PIC18F46K22.c: 392:     LCD_cursor_set(1,1);
  2495   001520  0E01               	movlw	1
  2496   001522  6E06               	movwf	LCD_cursor_set@column^0,c
  2497   001524  0E01               	movlw	1
  2498   001526  EC71  F00E         	call	_LCD_cursor_set
  2499   00152A                     
  2500                           ;OBCII_PIC18F46K22.c: 393:     LCD_write_string("RPM");
  2501   00152A  0E94               	movlw	low STR_11
  2502   00152C  6E06               	movwf	LCD_write_string@string^0,c
  2503   00152E  5006               	movf	LCD_write_string@string^0,w,c
  2504   001530  A4D8               	btfss	status,2,c
  2505   001532  0E10               	movlw	high __smallconst
  2506   001534  6E07               	movwf	(LCD_write_string@string+1)^0,c
  2507   001536  EC97  F00D         	call	_LCD_write_string	;wreg free
  2508   00153A                     
  2509                           ;OBCII_PIC18F46K22.c: 394:     LCD_cursor_set(2,1);
  2510   00153A  0E01               	movlw	1
  2511   00153C  6E06               	movwf	LCD_cursor_set@column^0,c
  2512   00153E  0E02               	movlw	2
  2513   001540  EC71  F00E         	call	_LCD_cursor_set
  2514   001544                     
  2515                           ;OBCII_PIC18F46K22.c: 395:     LCD_write_string(rpm_string);
  2516   001544  0E4A               	movlw	low _rpm_string
  2517   001546  6E06               	movwf	LCD_write_string@string^0,c
  2518   001548  6A07               	clrf	(LCD_write_string@string+1)^0,c
  2519   00154A  EC97  F00D         	call	_LCD_write_string	;wreg free
  2520   00154E                     
  2521                           ;OBCII_PIC18F46K22.c: 397:     buffer_count = 0;
  2522   00154E  6A49               	clrf	_buffer_count^0,c
  2523   001550                     
  2524                           ;OBCII_PIC18F46K22.c: 398:     message_complete = 0;
  2525   001550  6A47               	clrf	_message_complete^0,c	;volatile
  2526   001552  0012               	return		;funcret
  2527   001554                     __end_of_print_RPM:
  2528                           	callstack 0
  2529                           
  2530 ;; *************** function _print_AI_Temp *****************
  2531 ;; Defined at:
  2532 ;;		line 426 in file "OBCII_PIC18F46K22.c"
  2533 ;; Parameters:    Size  Location     Type
  2534 ;;		None
  2535 ;; Auto vars:     Size  Location     Type
  2536 ;;		None
  2537 ;; Return value:  Size  Location     Type
  2538 ;;                  1    wreg      void 
  2539 ;; Registers used:
  2540 ;;		wreg, fsr0l, fsr0h, fsr1l, fsr1h, fsr2l, fsr2h, status,2, status,0, tblptrl, tblptrh, tblptru, cstack
  2541 ;; Tracked objects:
  2542 ;;		On entry : 0/0
  2543 ;;		On exit  : 0/0
  2544 ;;		Unchanged: 0/0
  2545 ;; Data sizes:     COMRAM   BANK0   BANK1   BANK2   BANK3   BANK4   BANK5   BANK6   BANK7   BANK8   BANK9  BANK10  BANK1
      +1  BANK12  BANK13  BANK14  BANK15
  2546 ;;      Params:         0       0       0       0       0       0       0       0       0       0       0       0       
      +0       0       0       0       0
  2547 ;;      Locals:         0       0       0       0       0       0       0       0       0       0       0       0       
      +0       0       0       0       0
  2548 ;;      Temps:          3       0       0       0       0       0       0       0       0       0       0       0       
      +0       0       0       0       0
  2549 ;;      Totals:         3       0       0       0       0       0       0       0       0       0       0       0       
      +0       0       0       0       0
  2550 ;;Total ram usage:        3 bytes
  2551 ;; Hardware stack levels used: 1
  2552 ;; Hardware stack levels required when called: 6
  2553 ;; This function calls:
  2554 ;;		_LCD_cursor_set
  2555 ;;		_LCD_write_string
  2556 ;;		_UART1_SendString
  2557 ;;		_hex_char_to_value
  2558 ;;		_sprintf
  2559 ;; This function is called by:
  2560 ;;		_live_reading_mode
  2561 ;; This function uses a non-reentrant model
  2562 ;;
  2563                           
  2564                           	psect	text10
  2565   00181E                     __ptext10:
  2566                           	callstack 0
  2567   00181E                     _print_AI_Temp:
  2568                           	callstack 22
  2569   00181E                     
  2570                           ;OBCII_PIC18F46K22.c: 428:     UART1_SendString("010F\r");
  2571   00181E  0E67               	movlw	low STR_16
  2572   001820  6E04               	movwf	UART1_SendString@string^0,c
  2573   001822  ECA1  F00E         	call	_UART1_SendString	;wreg free
  2574   001826                     l2209:
  2575                           
  2576                           ;OBCII_PIC18F46K22.c: 429:      while(!message_complete) {
  2577   001826  5047               	movf	_message_complete^0,w,c	;volatile
  2578   001828  B4D8               	btfsc	status,2,c
  2579   00182A  EF19  F00C         	goto	u1341
  2580   00182E  EF1B  F00C         	goto	u1340
  2581   001832                     u1341:
  2582   001832  EF13  F00C         	goto	l2209
  2583   001836                     u1340:
  2584   001836                     
  2585                           ;OBCII_PIC18F46K22.c: 433:     LCD_cursor_set(2,14);
  2586   001836  0E0E               	movlw	14
  2587   001838  6E06               	movwf	LCD_cursor_set@column^0,c
  2588   00183A  0E02               	movlw	2
  2589   00183C  EC71  F00E         	call	_LCD_cursor_set
  2590   001840                     
  2591                           ;OBCII_PIC18F46K22.c: 434:     LCD_write_string("   ");
  2592   001840  0E75               	movlw	low (STR_10+2)
  2593   001842  6E06               	movwf	LCD_write_string@string^0,c
  2594   001844  5006               	movf	LCD_write_string@string^0,w,c
  2595   001846  A4D8               	btfss	status,2,c
  2596   001848  0E10               	movlw	high __smallconst
  2597   00184A  6E07               	movwf	(LCD_write_string@string+1)^0,c
  2598   00184C  EC97  F00D         	call	_LCD_write_string	;wreg free
  2599   001850                     
  2600                           ;OBCII_PIC18F46K22.c: 436:     A_air_intake = (hex_char_to_value(buffer[4]) << 4) | hex_
      +                          char_to_value(buffer[5]);
  2601   001850  0100               	movlb	0	; () banked
  2602   001852  5184               	movf	(_buffer+4)& (0+255),w,b
  2603   001854  EC1A  F00D         	call	_hex_char_to_value
  2604   001858  6E29               	movwf	??_print_AI_Temp^0,c
  2605   00185A  6A2A               	clrf	(??_print_AI_Temp+1)^0,c
  2606   00185C  3A29               	swapf	??_print_AI_Temp^0,f,c
  2607   00185E  3A2A               	swapf	(??_print_AI_Temp+1)^0,f,c
  2608   001860  0EF0               	movlw	240
  2609   001862  162A               	andwf	(??_print_AI_Temp+1)^0,f,c
  2610   001864  5029               	movf	??_print_AI_Temp^0,w,c
  2611   001866  0B0F               	andlw	15
  2612   001868  122A               	iorwf	(??_print_AI_Temp+1)^0,f,c
  2613   00186A  0EF0               	movlw	240
  2614   00186C  1629               	andwf	??_print_AI_Temp^0,f,c
  2615   00186E  0100               	movlb	0	; () banked
  2616   001870  5185               	movf	(_buffer+5)& (0+255),w,b
  2617   001872  EC1A  F00D         	call	_hex_char_to_value
  2618   001876  6E2B               	movwf	(??_print_AI_Temp+2)^0,c
  2619   001878  502B               	movf	(??_print_AI_Temp+2)^0,w,c
  2620   00187A  1029               	iorwf	??_print_AI_Temp^0,w,c
  2621   00187C  6E3E               	movwf	_A_air_intake^0,c
  2622   00187E  502A               	movf	(??_print_AI_Temp+1)^0,w,c
  2623   001880  6E3F               	movwf	(_A_air_intake+1)^0,c
  2624   001882                     
  2625                           ;OBCII_PIC18F46K22.c: 437:     air_intake_temp = A_air_intake - 40;
  2626   001882  0ED8               	movlw	216
  2627   001884  243E               	addwf	_A_air_intake^0,w,c
  2628   001886  6E3C               	movwf	_air_intake_temp^0,c
  2629   001888  0EFF               	movlw	255
  2630   00188A  203F               	addwfc	(_A_air_intake+1)^0,w,c
  2631   00188C  6E3D               	movwf	(_air_intake_temp+1)^0,c
  2632   00188E                     
  2633                           ;OBCII_PIC18F46K22.c: 439:     sprintf(air_intake_string, "%u", air_intake_temp);
  2634   00188E  0EA0               	movlw	low _air_intake_string
  2635   001890  6E19               	movwf	sprintf@s^0,c
  2636   001892  0E9C               	movlw	low STR_9
  2637   001894  6E1A               	movwf	sprintf@fmt^0,c
  2638   001896  C03C  F01B         	movff	_air_intake_temp,?_sprintf+2
  2639   00189A  C03D  F01C         	movff	_air_intake_temp+1,?_sprintf+3
  2640   00189E  EC99  F00F         	call	_sprintf	;wreg free
  2641   0018A2                     
  2642                           ;OBCII_PIC18F46K22.c: 441:     LCD_cursor_set(1,14);
  2643   0018A2  0E0E               	movlw	14
  2644   0018A4  6E06               	movwf	LCD_cursor_set@column^0,c
  2645   0018A6  0E01               	movlw	1
  2646   0018A8  EC71  F00E         	call	_LCD_cursor_set
  2647   0018AC                     
  2648                           ;OBCII_PIC18F46K22.c: 442:     LCD_write_string("AIT");
  2649   0018AC  0E98               	movlw	low STR_19
  2650   0018AE  6E06               	movwf	LCD_write_string@string^0,c
  2651   0018B0  5006               	movf	LCD_write_string@string^0,w,c
  2652   0018B2  A4D8               	btfss	status,2,c
  2653   0018B4  0E10               	movlw	high __smallconst
  2654   0018B6  6E07               	movwf	(LCD_write_string@string+1)^0,c
  2655   0018B8  EC97  F00D         	call	_LCD_write_string	;wreg free
  2656   0018BC                     
  2657                           ;OBCII_PIC18F46K22.c: 443:     LCD_cursor_set(2,14);
  2658   0018BC  0E0E               	movlw	14
  2659   0018BE  6E06               	movwf	LCD_cursor_set@column^0,c
  2660   0018C0  0E02               	movlw	2
  2661   0018C2  EC71  F00E         	call	_LCD_cursor_set
  2662   0018C6                     
  2663                           ;OBCII_PIC18F46K22.c: 444:     LCD_write_string(air_intake_string);
  2664   0018C6  0EA0               	movlw	low _air_intake_string
  2665   0018C8  6E06               	movwf	LCD_write_string@string^0,c
  2666   0018CA  6A07               	clrf	(LCD_write_string@string+1)^0,c
  2667   0018CC  EC97  F00D         	call	_LCD_write_string	;wreg free
  2668   0018D0                     
  2669                           ;OBCII_PIC18F46K22.c: 445:     LCD_cursor_set(2,16);
  2670   0018D0  0E10               	movlw	16
  2671   0018D2  6E06               	movwf	LCD_cursor_set@column^0,c
  2672   0018D4  0E02               	movlw	2
  2673   0018D6  EC71  F00E         	call	_LCD_cursor_set
  2674   0018DA                     
  2675                           ;OBCII_PIC18F46K22.c: 446:     LCD_write_string("C");
  2676   0018DA  0E9F               	movlw	low STR_20
  2677   0018DC  6E06               	movwf	LCD_write_string@string^0,c
  2678   0018DE  5006               	movf	LCD_write_string@string^0,w,c
  2679   0018E0  A4D8               	btfss	status,2,c
  2680   0018E2  0E10               	movlw	high __smallconst
  2681   0018E4  6E07               	movwf	(LCD_write_string@string+1)^0,c
  2682   0018E6  EC97  F00D         	call	_LCD_write_string	;wreg free
  2683   0018EA                     
  2684                           ;OBCII_PIC18F46K22.c: 448:     buffer_count = 0;
  2685   0018EA  6A49               	clrf	_buffer_count^0,c
  2686   0018EC                     
  2687                           ;OBCII_PIC18F46K22.c: 449:     message_complete = 0;
  2688   0018EC  6A47               	clrf	_message_complete^0,c	;volatile
  2689   0018EE  0012               	return		;funcret
  2690   0018F0                     __end_of_print_AI_Temp:
  2691                           	callstack 0
  2692                           
  2693 ;; *************** function _sprintf *****************
  2694 ;; Defined at:
  2695 ;;		line 9 in file "C:\Program Files\Microchip\xc8\v3.00\pic\sources\c99\common\nf_sprintf.c"
  2696 ;; Parameters:    Size  Location     Type
  2697 ;;  s               1   24[COMRAM] PTR unsigned char 
  2698 ;;		 -> air_intake_string(16), rpm_string(16), 
  2699 ;;  fmt             1   25[COMRAM] PTR const unsigned char 
  2700 ;;		 -> STR_18(3), STR_9(3), 
  2701 ;; Auto vars:     Size  Location     Type
  2702 ;;  f              11   29[COMRAM] struct _IO_FILE
  2703 ;;  ret             2    0        int 
  2704 ;;  ap              1   28[COMRAM] PTR void [1]
  2705 ;;		 -> ?_sprintf(2), 
  2706 ;; Return value:  Size  Location     Type
  2707 ;;                  2   24[COMRAM] int 
  2708 ;; Registers used:
  2709 ;;		wreg, fsr1l, fsr1h, fsr2l, fsr2h, status,2, status,0, tblptrl, tblptrh, tblptru, cstack
  2710 ;; Tracked objects:
  2711 ;;		On entry : 0/0
  2712 ;;		On exit  : 0/0
  2713 ;;		Unchanged: 0/0
  2714 ;; Data sizes:     COMRAM   BANK0   BANK1   BANK2   BANK3   BANK4   BANK5   BANK6   BANK7   BANK8   BANK9  BANK10  BANK1
      +1  BANK12  BANK13  BANK14  BANK15
  2715 ;;      Params:         4       0       0       0       0       0       0       0       0       0       0       0       
      +0       0       0       0       0
  2716 ;;      Locals:        12       0       0       0       0       0       0       0       0       0       0       0       
      +0       0       0       0       0
  2717 ;;      Temps:          0       0       0       0       0       0       0       0       0       0       0       0       
      +0       0       0       0       0
  2718 ;;      Totals:        16       0       0       0       0       0       0       0       0       0       0       0       
      +0       0       0       0       0
  2719 ;;Total ram usage:       16 bytes
  2720 ;; Hardware stack levels used: 1
  2721 ;; Hardware stack levels required when called: 5
  2722 ;; This function calls:
  2723 ;;		_vfprintf
  2724 ;; This function is called by:
  2725 ;;		_print_RPM
  2726 ;;		_print_AI_Temp
  2727 ;; This function uses a non-reentrant model
  2728 ;;
  2729                           
  2730                           	psect	text11
  2731   001F32                     __ptext11:
  2732                           	callstack 0
  2733   001F32                     _sprintf:
  2734                           	callstack 22
  2735   001F32  0E1B               	movlw	low (?_sprintf+2)
  2736   001F34  6E1D               	movwf	sprintf@ap^0,c
  2737   001F36  C019  F01E         	movff	sprintf@s,sprintf@f
  2738   001F3A  0E00               	movlw	0
  2739   001F3C  6E21               	movwf	(sprintf@f+3)^0,c
  2740   001F3E  0E00               	movlw	0
  2741   001F40  6E20               	movwf	(sprintf@f+2)^0,c
  2742   001F42  0E00               	movlw	0
  2743   001F44  6E28               	movwf	(sprintf@f+10)^0,c
  2744   001F46  0E00               	movlw	0
  2745   001F48  6E27               	movwf	(sprintf@f+9)^0,c
  2746   001F4A  0E1E               	movlw	low sprintf@f
  2747   001F4C  6E15               	movwf	vfprintf@fp^0,c
  2748   001F4E  C01A  F016         	movff	sprintf@fmt,vfprintf@fmt
  2749   001F52  0E1D               	movlw	low sprintf@ap
  2750   001F54  6E17               	movwf	vfprintf@ap^0,c
  2751   001F56  EC27  F00F         	call	_vfprintf	;wreg free
  2752   001F5A  5019               	movf	sprintf@s^0,w,c
  2753   001F5C  2420               	addwf	(sprintf@f+2)^0,w,c
  2754   001F5E  6ED9               	movwf	fsr2l,c
  2755   001F60  6ADA               	clrf	fsr2h,c
  2756   001F62  6ADF               	clrf	indf2,c
  2757   001F64  0012               	return		;funcret
  2758   001F66                     __end_of_sprintf:
  2759                           	callstack 0
  2760                           
  2761 ;; *************** function _vfprintf *****************
  2762 ;; Defined at:
  2763 ;;		line 1817 in file "C:\Program Files\Microchip\xc8\v3.00\pic\sources\c99\common\doprnt.c"
  2764 ;; Parameters:    Size  Location     Type
  2765 ;;  fp              1   20[COMRAM] PTR struct _IO_FILE
  2766 ;;		 -> sprintf@f(11), 
  2767 ;;  fmt             1   21[COMRAM] PTR const unsigned char 
  2768 ;;		 -> STR_18(3), STR_9(3), 
  2769 ;;  ap              1   22[COMRAM] PTR PTR void 
  2770 ;;		 -> sprintf@ap(1), 
  2771 ;; Auto vars:     Size  Location     Type
  2772 ;;  cfmt            1   23[COMRAM] PTR unsigned char 
  2773 ;;		 -> STR_18(3), STR_9(3), 
  2774 ;; Return value:  Size  Location     Type
  2775 ;;                  2   20[COMRAM] int 
  2776 ;; Registers used:
  2777 ;;		wreg, fsr1l, fsr1h, fsr2l, fsr2h, status,2, status,0, tblptrl, tblptrh, tblptru, cstack
  2778 ;; Tracked objects:
  2779 ;;		On entry : 0/0
  2780 ;;		On exit  : 0/0
  2781 ;;		Unchanged: 0/0
  2782 ;; Data sizes:     COMRAM   BANK0   BANK1   BANK2   BANK3   BANK4   BANK5   BANK6   BANK7   BANK8   BANK9  BANK10  BANK1
      +1  BANK12  BANK13  BANK14  BANK15
  2783 ;;      Params:         3       0       0       0       0       0       0       0       0       0       0       0       
      +0       0       0       0       0
  2784 ;;      Locals:         1       0       0       0       0       0       0       0       0       0       0       0       
      +0       0       0       0       0
  2785 ;;      Temps:          0       0       0       0       0       0       0       0       0       0       0       0       
      +0       0       0       0       0
  2786 ;;      Totals:         4       0       0       0       0       0       0       0       0       0       0       0       
      +0       0       0       0       0
  2787 ;;Total ram usage:        4 bytes
  2788 ;; Hardware stack levels used: 1
  2789 ;; Hardware stack levels required when called: 4
  2790 ;; This function calls:
  2791 ;;		_vfpfcnvrt
  2792 ;; This function is called by:
  2793 ;;		_sprintf
  2794 ;; This function uses a non-reentrant model
  2795 ;;
  2796                           
  2797                           	psect	text12
  2798   001E4E                     __ptext12:
  2799                           	callstack 0
  2800   001E4E                     _vfprintf:
  2801                           	callstack 22
  2802   001E4E                     
  2803                           ;C:\Program Files\Microchip\xc8\v3.00\pic\sources\c99\common\doprnt.c: 1817: int vfprint
      +                          f(FILE *fp, const char *fmt, va_list ap);C:\Program Files\Microchip\xc8\v3.00\pic\source
      +                          s\c99\common\doprnt.c: 1818: {;C:\Program Files\Microchip\xc8\v3.00\pic\sources\c99\comm
      +                          on\doprnt.c: 1820:     char *cfmt;;C:\Program Files\Microchip\xc8\v3.00\pic\sources\c99\
      +                          common\doprnt.c: 1822:     cfmt = (char *)fmt;
  2804   001E4E  C016  F018         	movff	vfprintf@fmt,vfprintf@cfmt
  2805                           
  2806                           ;C:\Program Files\Microchip\xc8\v3.00\pic\sources\c99\common\doprnt.c: 1826:     while (
      +                          *cfmt) {
  2807   001E52  EF33  F00F         	goto	l2073
  2808   001E56                     l2071:
  2809                           
  2810                           ;C:\Program Files\Microchip\xc8\v3.00\pic\sources\c99\common\doprnt.c: 1830:    vfpfcnvr
      +                          t(fp, &cfmt, ap);
  2811   001E56  C015  F00B         	movff	vfprintf@fp,vfpfcnvrt@fp
  2812   001E5A  0E18               	movlw	low vfprintf@cfmt
  2813   001E5C  6E0C               	movwf	vfpfcnvrt@fmt^0,c
  2814   001E5E  C017  F00D         	movff	vfprintf@ap,vfpfcnvrt@ap
  2815   001E62  EC75  F009         	call	_vfpfcnvrt	;wreg free
  2816   001E66                     l2073:
  2817                           
  2818                           ;C:\Program Files\Microchip\xc8\v3.00\pic\sources\c99\common\doprnt.c: 1826:     while (
      +                          *cfmt) {
  2819   001E66  C018  FFF6         	movff	vfprintf@cfmt,tblptrl
  2820   001E6A                     	if	1	;There is more than 1 active tblptr byte
  2821   001E6A  0E10               	movlw	high __smallconst
  2822   001E6C  6EF7               	movwf	tblptrh,c
  2823   001E6E                     	endif
  2824   001E6E                     	if	0	;tblptru may be non-zero
  2825   001E6E                     	endif
  2826   001E6E                     	if	0	;tblptru may be non-zero
  2827   001E6E                     	endif
  2828   001E6E  0008               	tblrd		*
  2829   001E70  50F5               	movf	tablat,w,c
  2830   001E72  0900               	iorlw	0
  2831   001E74  A4D8               	btfss	status,2,c
  2832   001E76  EF3F  F00F         	goto	u1141
  2833   001E7A  EF41  F00F         	goto	u1140
  2834   001E7E                     u1141:
  2835   001E7E  EF2B  F00F         	goto	l2071
  2836   001E82                     u1140:
  2837   001E82                     
  2838                           ;C:\Program Files\Microchip\xc8\v3.00\pic\sources\c99\common\doprnt.c: 1835:  return 0;
  2839   001E82  0E00               	movlw	0
  2840   001E84  6E16               	movwf	(?_vfprintf+1)^0,c
  2841   001E86  0E00               	movlw	0
  2842   001E88  6E15               	movwf	?_vfprintf^0,c
  2843   001E8A  0012               	return		;funcret
  2844   001E8C                     __end_of_vfprintf:
  2845                           	callstack 0
  2846                           
  2847 ;; *************** function _vfpfcnvrt *****************
  2848 ;; Defined at:
  2849 ;;		line 1177 in file "C:\Program Files\Microchip\xc8\v3.00\pic\sources\c99\common\doprnt.c"
  2850 ;; Parameters:    Size  Location     Type
  2851 ;;  fp              1   10[COMRAM] PTR struct _IO_FILE
  2852 ;;		 -> sprintf@f(11), 
  2853 ;;  fmt             1   11[COMRAM] PTR PTR unsigned char 
  2854 ;;		 -> vfprintf@cfmt(1), 
  2855 ;;  ap              1   12[COMRAM] PTR PTR void 
  2856 ;;		 -> sprintf@ap(1), 
  2857 ;; Auto vars:     Size  Location     Type
  2858 ;;  convarg         4   14[COMRAM] struct .
  2859 ;;  c               1   19[COMRAM] unsigned char 
  2860 ;;  cp              1   18[COMRAM] PTR unsigned char 
  2861 ;;		 -> STR_18(3), STR_9(3), 
  2862 ;;  done            1    0        _Bool 
  2863 ;; Return value:  Size  Location     Type
  2864 ;;                  1    wreg      void 
  2865 ;; Registers used:
  2866 ;;		wreg, fsr1l, fsr1h, fsr2l, fsr2h, status,2, status,0, tblptrl, tblptrh, tblptru, cstack
  2867 ;; Tracked objects:
  2868 ;;		On entry : 0/0
  2869 ;;		On exit  : 0/0
  2870 ;;		Unchanged: 0/0
  2871 ;; Data sizes:     COMRAM   BANK0   BANK1   BANK2   BANK3   BANK4   BANK5   BANK6   BANK7   BANK8   BANK9  BANK10  BANK1
      +1  BANK12  BANK13  BANK14  BANK15
  2872 ;;      Params:         3       0       0       0       0       0       0       0       0       0       0       0       
      +0       0       0       0       0
  2873 ;;      Locals:         6       0       0       0       0       0       0       0       0       0       0       0       
      +0       0       0       0       0
  2874 ;;      Temps:          1       0       0       0       0       0       0       0       0       0       0       0       
      +0       0       0       0       0
  2875 ;;      Totals:        10       0       0       0       0       0       0       0       0       0       0       0       
      +0       0       0       0       0
  2876 ;;Total ram usage:       10 bytes
  2877 ;; Hardware stack levels used: 1
  2878 ;; Hardware stack levels required when called: 3
  2879 ;; This function calls:
  2880 ;;		___lwdiv
  2881 ;;		___lwmod
  2882 ;;		_fputc
  2883 ;; This function is called by:
  2884 ;;		_vfprintf
  2885 ;; This function uses a non-reentrant model
  2886 ;;
  2887                           
  2888                           	psect	text13
  2889   0012EA                     __ptext13:
  2890                           	callstack 0
  2891   0012EA                     _vfpfcnvrt:
  2892                           	callstack 22
  2893   0012EA                     
  2894                           ;C:\Program Files\Microchip\xc8\v3.00\pic\sources\c99\common\doprnt.c: 1177: vfpfcnvrt(F
      +                          ILE *fp, char *fmt[], va_list ap);C:\Program Files\Microchip\xc8\v3.00\pic\sources\c99\c
      +                          ommon\doprnt.c: 1178: {;C:\Program Files\Microchip\xc8\v3.00\pic\sources\c99\common\dopr
      +                          nt.c: 1179:     char c, *cp;;C:\Program Files\Microchip\xc8\v3.00\pic\sources\c99\common
      +                          \doprnt.c: 1180:     _Bool done;;C:\Program Files\Microchip\xc8\v3.00\pic\sources\c99\co
      +                          mmon\doprnt.c: 1188:  } convarg;;C:\Program Files\Microchip\xc8\v3.00\pic\sources\c99\co
      +                          mmon\doprnt.c: 1201:     if ((*fmt)[0] == '%') {
  2895   0012EA  500C               	movf	vfpfcnvrt@fmt^0,w,c
  2896   0012EC  6ED9               	movwf	fsr2l,c
  2897   0012EE  6ADA               	clrf	fsr2h,c
  2898   0012F0  CFDF FFF6          	movff	indf2,tblptrl
  2899   0012F4                     	if	1	;There is more than 1 active tblptr byte
  2900   0012F4  0E10               	movlw	high __smallconst
  2901   0012F6  6EF7               	movwf	tblptrh,c
  2902   0012F8                     	endif
  2903   0012F8                     	if	0	;tblptru may be non-zero
  2904   0012F8                     	endif
  2905   0012F8                     	if	0	;tblptru may be non-zero
  2906   0012F8                     	endif
  2907   0012F8  0008               	tblrd		*
  2908   0012FA  50F5               	movf	tablat,w,c
  2909   0012FC  0A25               	xorlw	37
  2910   0012FE  A4D8               	btfss	status,2,c
  2911   001300  EF84  F009         	goto	u1021
  2912   001304  EF86  F009         	goto	u1020
  2913   001308                     u1021:
  2914   001308  EF18  F00A         	goto	l2027
  2915   00130C                     u1020:
  2916   00130C                     
  2917                           ;C:\Program Files\Microchip\xc8\v3.00\pic\sources\c99\common\doprnt.c: 1202:         ++*
      +                          fmt;
  2918   00130C  500C               	movf	vfpfcnvrt@fmt^0,w,c
  2919   00130E  6ED9               	movwf	fsr2l,c
  2920   001310  6ADA               	clrf	fsr2h,c
  2921   001312  2ADF               	incf	indf2,f,c
  2922   001314                     
  2923                           ;C:\Program Files\Microchip\xc8\v3.00\pic\sources\c99\common\doprnt.c: 1204:         fla
      +                          gs = width = 0;
  2924   001314  0E00               	movlw	0
  2925   001316  6E39               	movwf	(_width+1)^0,c
  2926   001318  0E00               	movlw	0
  2927   00131A  6E38               	movwf	_width^0,c
  2928   00131C  C038  F046         	movff	_width,_flags
  2929   001320                     
  2930                           ;C:\Program Files\Microchip\xc8\v3.00\pic\sources\c99\common\doprnt.c: 1205:         pre
      +                          c = -1;
  2931   001320  683A               	setf	_prec^0,c
  2932   001322  683B               	setf	(_prec+1)^0,c
  2933   001324                     
  2934                           ;C:\Program Files\Microchip\xc8\v3.00\pic\sources\c99\common\doprnt.c: 1439:   if (0
  2935   001324  500C               	movf	vfpfcnvrt@fmt^0,w,c
  2936   001326  6ED9               	movwf	fsr2l,c
  2937   001328  6ADA               	clrf	fsr2h,c
  2938   00132A  50DF               	movf	indf2,w,c
  2939   00132C  6E13               	movwf	vfpfcnvrt@cp^0,c
  2940   00132E  C013  FFF6         	movff	vfpfcnvrt@cp,tblptrl
  2941   001332                     	if	1	;There is more than 1 active tblptr byte
  2942   001332  0E10               	movlw	high __smallconst
  2943   001334  6EF7               	movwf	tblptrh,c
  2944   001336                     	endif
  2945   001336                     	if	0	;tblptru may be non-zero
  2946   001336                     	endif
  2947   001336                     	if	0	;tblptru may be non-zero
  2948   001336                     	endif
  2949   001336  0008               	tblrd		*
  2950   001338  50F5               	movf	tablat,w,c
  2951   00133A  0A75               	xorlw	117
  2952   00133C  A4D8               	btfss	status,2,c
  2953   00133E  EFA3  F009         	goto	u1031
  2954   001342  EFA5  F009         	goto	u1030
  2955   001346                     u1031:
  2956   001346  EF12  F00A         	goto	l2023
  2957   00134A                     u1030:
  2958   00134A                     
  2959                           ;C:\Program Files\Microchip\xc8\v3.00\pic\sources\c99\common\doprnt.c: 1452:     ) {;C:\
      +                          Program Files\Microchip\xc8\v3.00\pic\sources\c99\common\doprnt.c: 1495:    convarg.uint
      +                           = (vfpf_uint_t)(unsigned int)(*(unsigned int *)__va_arg(*(unsigned int **)ap, (unsigned
      +                           int)0));
  2960   00134A  500D               	movf	vfpfcnvrt@ap^0,w,c
  2961   00134C  6ED9               	movwf	fsr2l,c
  2962   00134E  6ADA               	clrf	fsr2h,c
  2963   001350  0E02               	movlw	2
  2964   001352  26DF               	addwf	indf2,f,c
  2965   001354  5CDF               	subwf	indf2,w,c
  2966   001356  6ED9               	movwf	fsr2l,c
  2967   001358  6ADA               	clrf	fsr2h,c
  2968   00135A  CFDE F00F          	movff	postinc2,vfpfcnvrt@convarg
  2969   00135E  CFDE F010          	movff	postinc2,vfpfcnvrt@convarg+1
  2970   001362                     
  2971                           ;C:\Program Files\Microchip\xc8\v3.00\pic\sources\c99\common\doprnt.c: 1497:    *fmt = c
      +                          p+1;
  2972   001362  500C               	movf	vfpfcnvrt@fmt^0,w,c
  2973   001364  6ED9               	movwf	fsr2l,c
  2974   001366  6ADA               	clrf	fsr2h,c
  2975   001368  2813               	incf	vfpfcnvrt@cp^0,w,c
  2976   00136A  6EDF               	movwf	indf2,c
  2977                           
  2978                           ;C:\Program Files\Microchip\xc8\v3.00\pic\sources\c99\common\doprnt.c: 1498:    switch (
      +                          *cp) {
  2979   00136C  EF06  F00A         	goto	l2021
  2980   001370                     l2003:
  2981                           
  2982                           ;C:\Program Files\Microchip\xc8\v3.00\pic\sources\c99\common\doprnt.c: 1525:      c = si
      +                          zeof(dbuf);
  2983   001370  0E20               	movlw	32
  2984   001372  6E14               	movwf	vfpfcnvrt@c^0,c
  2985   001374                     l2005:
  2986                           
  2987                           ;C:\Program Files\Microchip\xc8\v3.00\pic\sources\c99\common\doprnt.c: 1527:       dbuf[
      +                          --c] = (convarg.uint % 10) + '0';
  2988   001374  0614               	decf	vfpfcnvrt@c^0,f,c
  2989   001376  5014               	movf	vfpfcnvrt@c^0,w,c
  2990   001378  0F60               	addlw	low _dbuf
  2991   00137A  6ED9               	movwf	fsr2l,c
  2992   00137C  6ADA               	clrf	fsr2h,c
  2993   00137E  C00F  F003         	movff	vfpfcnvrt@convarg,___lwmod@dividend
  2994   001382  C010  F004         	movff	vfpfcnvrt@convarg+1,___lwmod@dividend+1
  2995   001386  0E00               	movlw	0
  2996   001388  6E06               	movwf	(___lwmod@divisor+1)^0,c
  2997   00138A  0E0A               	movlw	10
  2998   00138C  6E05               	movwf	___lwmod@divisor^0,c
  2999   00138E  EC0E  F00E         	call	___lwmod	;wreg free
  3000   001392  5003               	movf	?___lwmod^0,w,c
  3001   001394  0F30               	addlw	48
  3002   001396  6EDF               	movwf	indf2,c
  3003   001398                     
  3004                           ;C:\Program Files\Microchip\xc8\v3.00\pic\sources\c99\common\doprnt.c: 1528:       conva
      +                          rg.uint /= 10;
  3005   001398  C00F  F003         	movff	vfpfcnvrt@convarg,___lwdiv@dividend
  3006   00139C  C010  F004         	movff	vfpfcnvrt@convarg+1,___lwdiv@dividend+1
  3007   0013A0  0E00               	movlw	0
  3008   0013A2  6E06               	movwf	(___lwdiv@divisor+1)^0,c
  3009   0013A4  0E0A               	movlw	10
  3010   0013A6  6E05               	movwf	___lwdiv@divisor^0,c
  3011   0013A8  ECD4  F00D         	call	___lwdiv	;wreg free
  3012   0013AC  C003  F00F         	movff	?___lwdiv,vfpfcnvrt@convarg
  3013   0013B0  C004  F010         	movff	?___lwdiv+1,vfpfcnvrt@convarg+1
  3014   0013B4                     
  3015                           ;C:\Program Files\Microchip\xc8\v3.00\pic\sources\c99\common\doprnt.c: 1532:      } whil
      +                          e (convarg.uint != 0 && c != 0);
  3016   0013B4  500F               	movf	vfpfcnvrt@convarg^0,w,c
  3017   0013B6  1010               	iorwf	(vfpfcnvrt@convarg+1)^0,w,c
  3018   0013B8  B4D8               	btfsc	status,2,c
  3019   0013BA  EFE1  F009         	goto	u1041
  3020   0013BE  EFE3  F009         	goto	u1040
  3021   0013C2                     u1041:
  3022   0013C2  EFFB  F009         	goto	l2017
  3023   0013C6                     u1040:
  3024   0013C6  5014               	movf	vfpfcnvrt@c^0,w,c
  3025   0013C8  A4D8               	btfss	status,2,c
  3026   0013CA  EFE9  F009         	goto	u1051
  3027   0013CE  EFEB  F009         	goto	u1050
  3028   0013D2                     u1051:
  3029   0013D2  EFBA  F009         	goto	l2005
  3030   0013D6                     u1050:
  3031   0013D6  EFFB  F009         	goto	l2017
  3032   0013DA                     l2013:
  3033                           
  3034                           ;C:\Program Files\Microchip\xc8\v3.00\pic\sources\c99\common\doprnt.c: 1534:       fputc
      +                          (dbuf[c++], fp);
  3035   0013DA  5014               	movf	vfpfcnvrt@c^0,w,c
  3036   0013DC  0F60               	addlw	low _dbuf
  3037   0013DE  6ED9               	movwf	fsr2l,c
  3038   0013E0  6ADA               	clrf	fsr2h,c
  3039   0013E2  50DF               	movf	indf2,w,c
  3040   0013E4  6E0E               	movwf	??_vfpfcnvrt^0,c
  3041   0013E6  500E               	movf	??_vfpfcnvrt^0,w,c
  3042   0013E8  6E03               	movwf	fputc@c^0,c
  3043   0013EA  6A04               	clrf	(fputc@c+1)^0,c
  3044   0013EC  C00B  F005         	movff	vfpfcnvrt@fp,fputc@fp
  3045   0013F0  EC78  F00C         	call	_fputc	;wreg free
  3046   0013F4  2A14               	incf	vfpfcnvrt@c^0,f,c
  3047   0013F6                     l2017:
  3048                           
  3049                           ;C:\Program Files\Microchip\xc8\v3.00\pic\sources\c99\common\doprnt.c: 1533:      while 
      +                          (c != sizeof(dbuf)) {
  3050   0013F6  0E20               	movlw	32
  3051   0013F8  1814               	xorwf	vfpfcnvrt@c^0,w,c
  3052   0013FA  A4D8               	btfss	status,2,c
  3053   0013FC  EF02  F00A         	goto	u1061
  3054   001400  EF04  F00A         	goto	u1060
  3055   001404                     u1061:
  3056   001404  EFED  F009         	goto	l2013
  3057   001408                     u1060:
  3058   001408  EF29  F00A         	goto	l1123
  3059   00140C                     l2021:
  3060   00140C  C013  FFF6         	movff	vfpfcnvrt@cp,tblptrl
  3061   001410                     	if	1	;There is more than 1 active tblptr byte
  3062   001410  0E10               	movlw	high __smallconst
  3063   001412  6EF7               	movwf	tblptrh,c
  3064   001414                     	endif
  3065   001414                     	if	0	;tblptru may be non-zero
  3066   001414                     	endif
  3067   001414                     	if	0	;tblptru may be non-zero
  3068   001414                     	endif
  3069   001414  0008               	tblrd		*
  3070   001416  50F5               	movf	tablat,w,c
  3071                           
  3072                           ; Switch size 1, requested type "simple"
  3073                           ; Number of cases is 1, Range of values is 117 to 117
  3074                           ; switch strategies available:
  3075                           ; Name         Instructions Cycles
  3076                           ; simple_byte            4     3 (average)
  3077                           ;	Chosen strategy is simple_byte
  3078   001418  0A75               	xorlw	117	; case 117
  3079   00141A  B4D8               	btfsc	status,2,c
  3080   00141C  EFB8  F009         	goto	l2003
  3081   001420  EF12  F00A         	goto	l2023
  3082   001424                     l2023:
  3083                           
  3084                           ;C:\Program Files\Microchip\xc8\v3.00\pic\sources\c99\common\doprnt.c: 1806:         ++*
      +                          fmt;
  3085   001424  500C               	movf	vfpfcnvrt@fmt^0,w,c
  3086   001426  6ED9               	movwf	fsr2l,c
  3087   001428  6ADA               	clrf	fsr2h,c
  3088   00142A  2ADF               	incf	indf2,f,c
  3089   00142C  EF29  F00A         	goto	l1123
  3090   001430                     l2027:
  3091                           
  3092                           ;C:\Program Files\Microchip\xc8\v3.00\pic\sources\c99\common\doprnt.c: 1811:     fputc((
      +                          int)(*fmt)[0], fp);
  3093   001430  500C               	movf	vfpfcnvrt@fmt^0,w,c
  3094   001432  6ED9               	movwf	fsr2l,c
  3095   001434  6ADA               	clrf	fsr2h,c
  3096   001436  CFDF FFF6          	movff	indf2,tblptrl
  3097   00143A                     	if	1	;There is more than 1 active tblptr byte
  3098   00143A  0E10               	movlw	high __smallconst
  3099   00143C  6EF7               	movwf	tblptrh,c
  3100   00143E                     	endif
  3101   00143E                     	if	0	;tblptru may be non-zero
  3102   00143E                     	endif
  3103   00143E                     	if	0	;tblptru may be non-zero
  3104   00143E                     	endif
  3105   00143E  0008               	tblrd		*
  3106   001440  50F5               	movf	tablat,w,c
  3107   001442  6E03               	movwf	fputc@c^0,c
  3108   001444  6A04               	clrf	(fputc@c+1)^0,c
  3109   001446  C00B  F005         	movff	vfpfcnvrt@fp,fputc@fp
  3110   00144A  EC78  F00C         	call	_fputc	;wreg free
  3111   00144E  EF12  F00A         	goto	l2023
  3112   001452                     l1123:
  3113   001452  0012               	return		;funcret
  3114   001454                     __end_of_vfpfcnvrt:
  3115                           	callstack 0
  3116                           
  3117 ;; *************** function _fputc *****************
  3118 ;; Defined at:
  3119 ;;		line 8 in file "C:\Program Files\Microchip\xc8\v3.00\pic\sources\c99\common\nf_fputc.c"
  3120 ;; Parameters:    Size  Location     Type
  3121 ;;  c               2    2[COMRAM] int 
  3122 ;;  fp              1    4[COMRAM] PTR struct _IO_FILE
  3123 ;;		 -> sprintf@f(11), 
  3124 ;; Auto vars:     Size  Location     Type
  3125 ;;		None
  3126 ;; Return value:  Size  Location     Type
  3127 ;;                  2    2[COMRAM] int 
  3128 ;; Registers used:
  3129 ;;		wreg, fsr1l, fsr1h, fsr2l, fsr2h, status,2, status,0, cstack
  3130 ;; Tracked objects:
  3131 ;;		On entry : 0/0
  3132 ;;		On exit  : 0/0
  3133 ;;		Unchanged: 0/0
  3134 ;; Data sizes:     COMRAM   BANK0   BANK1   BANK2   BANK3   BANK4   BANK5   BANK6   BANK7   BANK8   BANK9  BANK10  BANK1
      +1  BANK12  BANK13  BANK14  BANK15
  3135 ;;      Params:         3       0       0       0       0       0       0       0       0       0       0       0       
      +0       0       0       0       0
  3136 ;;      Locals:         0       0       0       0       0       0       0       0       0       0       0       0       
      +0       0       0       0       0
  3137 ;;      Temps:          5       0       0       0       0       0       0       0       0       0       0       0       
      +0       0       0       0       0
  3138 ;;      Totals:         8       0       0       0       0       0       0       0       0       0       0       0       
      +0       0       0       0       0
  3139 ;;Total ram usage:        8 bytes
  3140 ;; Hardware stack levels used: 1
  3141 ;; Hardware stack levels required when called: 2
  3142 ;; This function calls:
  3143 ;;		_putch
  3144 ;; This function is called by:
  3145 ;;		_vfpfcnvrt
  3146 ;; This function uses a non-reentrant model
  3147 ;;
  3148                           
  3149                           	psect	text14
  3150   0018F0                     __ptext14:
  3151                           	callstack 0
  3152   0018F0                     _fputc:
  3153                           	callstack 22
  3154   0018F0  5005               	movf	fputc@fp^0,w,c
  3155   0018F2  B4D8               	btfsc	status,2,c
  3156   0018F4  EF7E  F00C         	goto	u981
  3157   0018F8  EF80  F00C         	goto	u980
  3158   0018FC                     u981:
  3159   0018FC  EF88  F00C         	goto	l1971
  3160   001900                     u980:
  3161   001900  5005               	movf	fputc@fp^0,w,c
  3162   001902  A4D8               	btfss	status,2,c
  3163   001904  EF86  F00C         	goto	u991
  3164   001908  EF88  F00C         	goto	u990
  3165   00190C                     u991:
  3166   00190C  EF8D  F00C         	goto	l1973
  3167   001910                     u990:
  3168   001910                     l1971:
  3169   001910  5003               	movf	fputc@c^0,w,c
  3170   001912  EC31  F010         	call	_putch
  3171   001916  EFCC  F00C         	goto	l1142
  3172   00191A                     l1973:
  3173   00191A  5005               	movf	fputc@fp^0,w,c
  3174   00191C  6ED9               	movwf	fsr2l,c
  3175   00191E  6ADA               	clrf	fsr2h,c
  3176   001920  0E09               	movlw	9
  3177   001922  26D9               	addwf	fsr2l,f,c
  3178   001924  50DE               	movf	postinc2,w,c
  3179   001926  10DE               	iorwf	postinc2,w,c
  3180   001928  B4D8               	btfsc	status,2,c
  3181   00192A  EF99  F00C         	goto	u1001
  3182   00192E  EF9B  F00C         	goto	u1000
  3183   001932                     u1001:
  3184   001932  EFB4  F00C         	goto	l1977
  3185   001936                     u1000:
  3186   001936  5005               	movf	fputc@fp^0,w,c
  3187   001938  6ED9               	movwf	fsr2l,c
  3188   00193A  6ADA               	clrf	fsr2h,c
  3189   00193C  0E09               	movlw	9
  3190   00193E  26D9               	addwf	fsr2l,f,c
  3191   001940  5005               	movf	fputc@fp^0,w,c
  3192   001942  6EE1               	movwf	fsr1l,c
  3193   001944  6AE2               	clrf	fsr1h,c
  3194   001946  0E02               	movlw	2
  3195   001948  26E1               	addwf	fsr1l,f,c
  3196   00194A  50DE               	movf	postinc2,w,c
  3197   00194C  5CE6               	subwf	postinc1,w,c
  3198   00194E  50E6               	movf	postinc1,w,c
  3199   001950  0A80               	xorlw	128
  3200   001952  6E0A               	movwf	(??_fputc+4)^0,c
  3201   001954  50DE               	movf	postinc2,w,c
  3202   001956  0A80               	xorlw	128
  3203   001958  580A               	subwfb	(??_fputc+4)^0,w,c
  3204   00195A  B0D8               	btfsc	status,0,c
  3205   00195C  EFB2  F00C         	goto	u1011
  3206   001960  EFB4  F00C         	goto	u1010
  3207   001964                     u1011:
  3208   001964  EFCC  F00C         	goto	l1142
  3209   001968                     u1010:
  3210   001968                     l1977:
  3211   001968  5005               	movf	fputc@fp^0,w,c
  3212   00196A  6ED9               	movwf	fsr2l,c
  3213   00196C  6ADA               	clrf	fsr2h,c
  3214   00196E  0E02               	movlw	2
  3215   001970  26D9               	addwf	fsr2l,f,c
  3216   001972  50DF               	movf	indf2,w,c
  3217   001974  6E06               	movwf	??_fputc^0,c
  3218   001976  5005               	movf	fputc@fp^0,w,c
  3219   001978  6ED9               	movwf	fsr2l,c
  3220   00197A  6ADA               	clrf	fsr2h,c
  3221   00197C  50DF               	movf	indf2,w,c
  3222   00197E  2406               	addwf	??_fputc^0,w,c
  3223   001980  6ED9               	movwf	fsr2l,c
  3224   001982  6ADA               	clrf	fsr2h,c
  3225   001984  C003  FFDF         	movff	fputc@c,indf2
  3226   001988  5005               	movf	fputc@fp^0,w,c
  3227   00198A  6ED9               	movwf	fsr2l,c
  3228   00198C  6ADA               	clrf	fsr2h,c
  3229   00198E  0E02               	movlw	2
  3230   001990  26D9               	addwf	fsr2l,f,c
  3231   001992  2ADE               	incf	postinc2,f,c
  3232   001994  0E00               	movlw	0
  3233   001996  22DD               	addwfc	postdec2,f,c
  3234   001998                     l1142:
  3235   001998  0012               	return		;funcret
  3236   00199A                     __end_of_fputc:
  3237                           	callstack 0
  3238                           
  3239 ;; *************** function _putch *****************
  3240 ;; Defined at:
  3241 ;;		line 7 in file "C:\Program Files\Microchip\xc8\v3.00\pic\sources\c99\common\putch.c"
  3242 ;; Parameters:    Size  Location     Type
  3243 ;;  c               1    wreg     unsigned char 
  3244 ;; Auto vars:     Size  Location     Type
  3245 ;;  c               1    0[COMRAM] unsigned char 
  3246 ;; Return value:  Size  Location     Type
  3247 ;;                  1    wreg      void 
  3248 ;; Registers used:
  3249 ;;		wreg
  3250 ;; Tracked objects:
  3251 ;;		On entry : 0/0
  3252 ;;		On exit  : 0/0
  3253 ;;		Unchanged: 0/0
  3254 ;; Data sizes:     COMRAM   BANK0   BANK1   BANK2   BANK3   BANK4   BANK5   BANK6   BANK7   BANK8   BANK9  BANK10  BANK1
      +1  BANK12  BANK13  BANK14  BANK15
  3255 ;;      Params:         0       0       0       0       0       0       0       0       0       0       0       0       
      +0       0       0       0       0
  3256 ;;      Locals:         0       0       0       0       0       0       0       0       0       0       0       0       
      +0       0       0       0       0
  3257 ;;      Temps:          0       0       0       0       0       0       0       0       0       0       0       0       
      +0       0       0       0       0
  3258 ;;      Totals:         0       0       0       0       0       0       0       0       0       0       0       0       
      +0       0       0       0       0
  3259 ;;Total ram usage:        0 bytes
  3260 ;; Hardware stack levels used: 1
  3261 ;; Hardware stack levels required when called: 1
  3262 ;; This function calls:
  3263 ;;		Nothing
  3264 ;; This function is called by:
  3265 ;;		_fputc
  3266 ;; This function uses a non-reentrant model
  3267 ;;
  3268                           
  3269                           	psect	text15
  3270   002062                     __ptext15:
  3271                           	callstack 0
  3272   002062                     _putch:
  3273                           	callstack 22
  3274   002062  0012               	return		;funcret
  3275   002064                     __end_of_putch:
  3276                           	callstack 0
  3277                           
  3278 ;; *************** function ___lwmod *****************
  3279 ;; Defined at:
  3280 ;;		line 7 in file "C:\Program Files\Microchip\xc8\v3.00\pic\sources\c99\common\lwmod.c"
  3281 ;; Parameters:    Size  Location     Type
  3282 ;;  dividend        2    2[COMRAM] unsigned int 
  3283 ;;  divisor         2    4[COMRAM] unsigned int 
  3284 ;; Auto vars:     Size  Location     Type
  3285 ;;  counter         1    6[COMRAM] unsigned char 
  3286 ;; Return value:  Size  Location     Type
  3287 ;;                  2    2[COMRAM] unsigned int 
  3288 ;; Registers used:
  3289 ;;		wreg, status,2, status,0
  3290 ;; Tracked objects:
  3291 ;;		On entry : 0/0
  3292 ;;		On exit  : 0/0
  3293 ;;		Unchanged: 0/0
  3294 ;; Data sizes:     COMRAM   BANK0   BANK1   BANK2   BANK3   BANK4   BANK5   BANK6   BANK7   BANK8   BANK9  BANK10  BANK1
      +1  BANK12  BANK13  BANK14  BANK15
  3295 ;;      Params:         4       0       0       0       0       0       0       0       0       0       0       0       
      +0       0       0       0       0
  3296 ;;      Locals:         1       0       0       0       0       0       0       0       0       0       0       0       
      +0       0       0       0       0
  3297 ;;      Temps:          0       0       0       0       0       0       0       0       0       0       0       0       
      +0       0       0       0       0
  3298 ;;      Totals:         5       0       0       0       0       0       0       0       0       0       0       0       
      +0       0       0       0       0
  3299 ;;Total ram usage:        5 bytes
  3300 ;; Hardware stack levels used: 1
  3301 ;; Hardware stack levels required when called: 1
  3302 ;; This function calls:
  3303 ;;		Nothing
  3304 ;; This function is called by:
  3305 ;;		_vfpfcnvrt
  3306 ;; This function uses a non-reentrant model
  3307 ;;
  3308                           
  3309                           	psect	text16
  3310   001C1C                     __ptext16:
  3311                           	callstack 0
  3312   001C1C                     ___lwmod:
  3313                           	callstack 23
  3314   001C1C  5005               	movf	___lwmod@divisor^0,w,c
  3315   001C1E  1006               	iorwf	(___lwmod@divisor+1)^0,w,c
  3316   001C20  B4D8               	btfsc	status,2,c
  3317   001C22  EF15  F00E         	goto	u951
  3318   001C26  EF17  F00E         	goto	u950
  3319   001C2A                     u951:
  3320   001C2A  EF3B  F00E         	goto	l900
  3321   001C2E                     u950:
  3322   001C2E  0E01               	movlw	1
  3323   001C30  6E07               	movwf	___lwmod@counter^0,c
  3324   001C32  EF1F  F00E         	goto	l1957
  3325   001C36                     l1955:
  3326   001C36  90D8               	bcf	status,0,c
  3327   001C38  3605               	rlcf	___lwmod@divisor^0,f,c
  3328   001C3A  3606               	rlcf	(___lwmod@divisor+1)^0,f,c
  3329   001C3C  2A07               	incf	___lwmod@counter^0,f,c
  3330   001C3E                     l1957:
  3331   001C3E  AE06               	btfss	(___lwmod@divisor+1)^0,7,c
  3332   001C40  EF24  F00E         	goto	u961
  3333   001C44  EF26  F00E         	goto	u960
  3334   001C48                     u961:
  3335   001C48  EF1B  F00E         	goto	l1955
  3336   001C4C                     u960:
  3337   001C4C                     l1959:
  3338   001C4C  5005               	movf	___lwmod@divisor^0,w,c
  3339   001C4E  5C03               	subwf	___lwmod@dividend^0,w,c
  3340   001C50  5006               	movf	(___lwmod@divisor+1)^0,w,c
  3341   001C52  5804               	subwfb	(___lwmod@dividend+1)^0,w,c
  3342   001C54  A0D8               	btfss	status,0,c
  3343   001C56  EF2F  F00E         	goto	u971
  3344   001C5A  EF31  F00E         	goto	u970
  3345   001C5E                     u971:
  3346   001C5E  EF35  F00E         	goto	l1963
  3347   001C62                     u970:
  3348   001C62  5005               	movf	___lwmod@divisor^0,w,c
  3349   001C64  5E03               	subwf	___lwmod@dividend^0,f,c
  3350   001C66  5006               	movf	(___lwmod@divisor+1)^0,w,c
  3351   001C68  5A04               	subwfb	(___lwmod@dividend+1)^0,f,c
  3352   001C6A                     l1963:
  3353   001C6A  90D8               	bcf	status,0,c
  3354   001C6C  3206               	rrcf	(___lwmod@divisor+1)^0,f,c
  3355   001C6E  3205               	rrcf	___lwmod@divisor^0,f,c
  3356   001C70  2E07               	decfsz	___lwmod@counter^0,f,c
  3357   001C72  EF26  F00E         	goto	l1959
  3358   001C76                     l900:
  3359   001C76  C003  F003         	movff	___lwmod@dividend,?___lwmod
  3360   001C7A  C004  F004         	movff	___lwmod@dividend+1,?___lwmod+1
  3361   001C7E  0012               	return		;funcret
  3362   001C80                     __end_of___lwmod:
  3363                           	callstack 0
  3364                           
  3365 ;; *************** function ___lwdiv *****************
  3366 ;; Defined at:
  3367 ;;		line 7 in file "C:\Program Files\Microchip\xc8\v3.00\pic\sources\c99\common\lwdiv.c"
  3368 ;; Parameters:    Size  Location     Type
  3369 ;;  dividend        2    2[COMRAM] unsigned int 
  3370 ;;  divisor         2    4[COMRAM] unsigned int 
  3371 ;; Auto vars:     Size  Location     Type
  3372 ;;  quotient        2    6[COMRAM] unsigned int 
  3373 ;;  counter         1    8[COMRAM] unsigned char 
  3374 ;; Return value:  Size  Location     Type
  3375 ;;                  2    2[COMRAM] unsigned int 
  3376 ;; Registers used:
  3377 ;;		wreg, status,2, status,0
  3378 ;; Tracked objects:
  3379 ;;		On entry : 0/0
  3380 ;;		On exit  : 0/0
  3381 ;;		Unchanged: 0/0
  3382 ;; Data sizes:     COMRAM   BANK0   BANK1   BANK2   BANK3   BANK4   BANK5   BANK6   BANK7   BANK8   BANK9  BANK10  BANK1
      +1  BANK12  BANK13  BANK14  BANK15
  3383 ;;      Params:         4       0       0       0       0       0       0       0       0       0       0       0       
      +0       0       0       0       0
  3384 ;;      Locals:         3       0       0       0       0       0       0       0       0       0       0       0       
      +0       0       0       0       0
  3385 ;;      Temps:          0       0       0       0       0       0       0       0       0       0       0       0       
      +0       0       0       0       0
  3386 ;;      Totals:         7       0       0       0       0       0       0       0       0       0       0       0       
      +0       0       0       0       0
  3387 ;;Total ram usage:        7 bytes
  3388 ;; Hardware stack levels used: 1
  3389 ;; Hardware stack levels required when called: 1
  3390 ;; This function calls:
  3391 ;;		Nothing
  3392 ;; This function is called by:
  3393 ;;		_vfpfcnvrt
  3394 ;; This function uses a non-reentrant model
  3395 ;;
  3396                           
  3397                           	psect	text17
  3398   001BA8                     __ptext17:
  3399                           	callstack 0
  3400   001BA8                     ___lwdiv:
  3401                           	callstack 23
  3402   001BA8  0E00               	movlw	0
  3403   001BAA  6E08               	movwf	(___lwdiv@quotient+1)^0,c
  3404   001BAC  0E00               	movlw	0
  3405   001BAE  6E07               	movwf	___lwdiv@quotient^0,c
  3406   001BB0  5005               	movf	___lwdiv@divisor^0,w,c
  3407   001BB2  1006               	iorwf	(___lwdiv@divisor+1)^0,w,c
  3408   001BB4  B4D8               	btfsc	status,2,c
  3409   001BB6  EFDF  F00D         	goto	u921
  3410   001BBA  EFE1  F00D         	goto	u920
  3411   001BBE                     u921:
  3412   001BBE  EF09  F00E         	goto	l890
  3413   001BC2                     u920:
  3414   001BC2  0E01               	movlw	1
  3415   001BC4  6E09               	movwf	___lwdiv@counter^0,c
  3416   001BC6  EFE9  F00D         	goto	l1937
  3417   001BCA                     l1935:
  3418   001BCA  90D8               	bcf	status,0,c
  3419   001BCC  3605               	rlcf	___lwdiv@divisor^0,f,c
  3420   001BCE  3606               	rlcf	(___lwdiv@divisor+1)^0,f,c
  3421   001BD0  2A09               	incf	___lwdiv@counter^0,f,c
  3422   001BD2                     l1937:
  3423   001BD2  AE06               	btfss	(___lwdiv@divisor+1)^0,7,c
  3424   001BD4  EFEE  F00D         	goto	u931
  3425   001BD8  EFF0  F00D         	goto	u930
  3426   001BDC                     u931:
  3427   001BDC  EFE5  F00D         	goto	l1935
  3428   001BE0                     u930:
  3429   001BE0                     l1939:
  3430   001BE0  90D8               	bcf	status,0,c
  3431   001BE2  3607               	rlcf	___lwdiv@quotient^0,f,c
  3432   001BE4  3608               	rlcf	(___lwdiv@quotient+1)^0,f,c
  3433   001BE6  5005               	movf	___lwdiv@divisor^0,w,c
  3434   001BE8  5C03               	subwf	___lwdiv@dividend^0,w,c
  3435   001BEA  5006               	movf	(___lwdiv@divisor+1)^0,w,c
  3436   001BEC  5804               	subwfb	(___lwdiv@dividend+1)^0,w,c
  3437   001BEE  A0D8               	btfss	status,0,c
  3438   001BF0  EFFC  F00D         	goto	u941
  3439   001BF4  EFFE  F00D         	goto	u940
  3440   001BF8                     u941:
  3441   001BF8  EF03  F00E         	goto	l1947
  3442   001BFC                     u940:
  3443   001BFC  5005               	movf	___lwdiv@divisor^0,w,c
  3444   001BFE  5E03               	subwf	___lwdiv@dividend^0,f,c
  3445   001C00  5006               	movf	(___lwdiv@divisor+1)^0,w,c
  3446   001C02  5A04               	subwfb	(___lwdiv@dividend+1)^0,f,c
  3447   001C04  8007               	bsf	___lwdiv@quotient^0,0,c
  3448   001C06                     l1947:
  3449   001C06  90D8               	bcf	status,0,c
  3450   001C08  3206               	rrcf	(___lwdiv@divisor+1)^0,f,c
  3451   001C0A  3205               	rrcf	___lwdiv@divisor^0,f,c
  3452   001C0C  2E09               	decfsz	___lwdiv@counter^0,f,c
  3453   001C0E  EFF0  F00D         	goto	l1939
  3454   001C12                     l890:
  3455   001C12  C007  F003         	movff	___lwdiv@quotient,?___lwdiv
  3456   001C16  C008  F004         	movff	___lwdiv@quotient+1,?___lwdiv+1
  3457   001C1A  0012               	return		;funcret
  3458   001C1C                     __end_of___lwdiv:
  3459                           	callstack 0
  3460                           
  3461 ;; *************** function _hex_char_to_value *****************
  3462 ;; Defined at:
  3463 ;;		line 369 in file "OBCII_PIC18F46K22.c"
  3464 ;; Parameters:    Size  Location     Type
  3465 ;;  c               1    wreg     unsigned char 
  3466 ;; Auto vars:     Size  Location     Type
  3467 ;;  c               1    2[COMRAM] unsigned char 
  3468 ;; Return value:  Size  Location     Type
  3469 ;;                  1    wreg      unsigned char 
  3470 ;; Registers used:
  3471 ;;		wreg, status,2, status,0
  3472 ;; Tracked objects:
  3473 ;;		On entry : 0/0
  3474 ;;		On exit  : 0/0
  3475 ;;		Unchanged: 0/0
  3476 ;; Data sizes:     COMRAM   BANK0   BANK1   BANK2   BANK3   BANK4   BANK5   BANK6   BANK7   BANK8   BANK9  BANK10  BANK1
      +1  BANK12  BANK13  BANK14  BANK15
  3477 ;;      Params:         0       0       0       0       0       0       0       0       0       0       0       0       
      +0       0       0       0       0
  3478 ;;      Locals:         1       0       0       0       0       0       0       0       0       0       0       0       
      +0       0       0       0       0
  3479 ;;      Temps:          0       0       0       0       0       0       0       0       0       0       0       0       
      +0       0       0       0       0
  3480 ;;      Totals:         1       0       0       0       0       0       0       0       0       0       0       0       
      +0       0       0       0       0
  3481 ;;Total ram usage:        1 bytes
  3482 ;; Hardware stack levels used: 1
  3483 ;; Hardware stack levels required when called: 1
  3484 ;; This function calls:
  3485 ;;		Nothing
  3486 ;; This function is called by:
  3487 ;;		_print_RPM
  3488 ;;		_print_AI_Temp
  3489 ;; This function uses a non-reentrant model
  3490 ;;
  3491                           
  3492                           	psect	text18
  3493   001A34                     __ptext18:
  3494                           	callstack 0
  3495   001A34                     _hex_char_to_value:
  3496                           	callstack 26
  3497                           
  3498                           ;incstack = 0
  3499                           ;hex_char_to_value@c stored from wreg
  3500   001A34  6E03               	movwf	hex_char_to_value@c^0,c
  3501   001A36                     
  3502                           ;OBCII_PIC18F46K22.c: 370:     if (c >= '0' && c <= '9') return c - '0';
  3503   001A36  0E2F               	movlw	47
  3504   001A38  6403               	cpfsgt	hex_char_to_value@c^0,c
  3505   001A3A  EF21  F00D         	goto	u1231
  3506   001A3E  EF23  F00D         	goto	u1230
  3507   001A42                     u1231:
  3508   001A42  EF2F  F00D         	goto	l2115
  3509   001A46                     u1230:
  3510   001A46  0E3A               	movlw	58
  3511   001A48  6003               	cpfslt	hex_char_to_value@c^0,c
  3512   001A4A  EF29  F00D         	goto	u1241
  3513   001A4E  EF2B  F00D         	goto	u1240
  3514   001A52                     u1241:
  3515   001A52  EF2F  F00D         	goto	l2115
  3516   001A56                     u1240:
  3517   001A56  5003               	movf	hex_char_to_value@c^0,w,c
  3518   001A58  0FD0               	addlw	208
  3519   001A5A  EF58  F00D         	goto	l232
  3520   001A5E                     l2115:
  3521                           
  3522                           ;OBCII_PIC18F46K22.c: 371:     if (c >= 'A' && c <= 'F') return c - 'A' + 10;
  3523   001A5E  0E40               	movlw	64
  3524   001A60  6403               	cpfsgt	hex_char_to_value@c^0,c
  3525   001A62  EF35  F00D         	goto	u1251
  3526   001A66  EF37  F00D         	goto	u1250
  3527   001A6A                     u1251:
  3528   001A6A  EF43  F00D         	goto	l2123
  3529   001A6E                     u1250:
  3530   001A6E  0E47               	movlw	71
  3531   001A70  6003               	cpfslt	hex_char_to_value@c^0,c
  3532   001A72  EF3D  F00D         	goto	u1261
  3533   001A76  EF3F  F00D         	goto	u1260
  3534   001A7A                     u1261:
  3535   001A7A  EF43  F00D         	goto	l2123
  3536   001A7E                     u1260:
  3537   001A7E  5003               	movf	hex_char_to_value@c^0,w,c
  3538   001A80  0FC9               	addlw	201
  3539   001A82  EF58  F00D         	goto	l232
  3540   001A86                     l2123:
  3541                           
  3542                           ;OBCII_PIC18F46K22.c: 372:     if (c >= 'a' && c <= 'f') return c - 'a' + 10;
  3543   001A86  0E60               	movlw	96
  3544   001A88  6403               	cpfsgt	hex_char_to_value@c^0,c
  3545   001A8A  EF49  F00D         	goto	u1271
  3546   001A8E  EF4B  F00D         	goto	u1270
  3547   001A92                     u1271:
  3548   001A92  EF57  F00D         	goto	l2131
  3549   001A96                     u1270:
  3550   001A96  0E67               	movlw	103
  3551   001A98  6003               	cpfslt	hex_char_to_value@c^0,c
  3552   001A9A  EF51  F00D         	goto	u1281
  3553   001A9E  EF53  F00D         	goto	u1280
  3554   001AA2                     u1281:
  3555   001AA2  EF57  F00D         	goto	l2131
  3556   001AA6                     u1280:
  3557   001AA6  5003               	movf	hex_char_to_value@c^0,w,c
  3558   001AA8  0FA9               	addlw	169
  3559   001AAA  EF58  F00D         	goto	l232
  3560   001AAE                     l2131:
  3561                           
  3562                           ;OBCII_PIC18F46K22.c: 373:     return 0;
  3563   001AAE  0E00               	movlw	0
  3564   001AB0                     l232:
  3565   001AB0  0012               	return		;funcret
  3566   001AB2                     __end_of_hex_char_to_value:
  3567                           	callstack 0
  3568                           
  3569 ;; *************** function _display_system_info *****************
  3570 ;; Defined at:
  3571 ;;		line 493 in file "OBCII_PIC18F46K22.c"
  3572 ;; Parameters:    Size  Location     Type
  3573 ;;		None
  3574 ;; Auto vars:     Size  Location     Type
  3575 ;;		None
  3576 ;; Return value:  Size  Location     Type
  3577 ;;                  1    wreg      void 
  3578 ;; Registers used:
  3579 ;;		wreg, fsr0l, fsr0h, status,2, status,0, tblptrl, tblptrh, tblptru, cstack
  3580 ;; Tracked objects:
  3581 ;;		On entry : 0/0
  3582 ;;		On exit  : 0/0
  3583 ;;		Unchanged: 0/0
  3584 ;; Data sizes:     COMRAM   BANK0   BANK1   BANK2   BANK3   BANK4   BANK5   BANK6   BANK7   BANK8   BANK9  BANK10  BANK1
      +1  BANK12  BANK13  BANK14  BANK15
  3585 ;;      Params:         0       0       0       0       0       0       0       0       0       0       0       0       
      +0       0       0       0       0
  3586 ;;      Locals:         0       0       0       0       0       0       0       0       0       0       0       0       
      +0       0       0       0       0
  3587 ;;      Temps:          0       0       0       0       0       0       0       0       0       0       0       0       
      +0       0       0       0       0
  3588 ;;      Totals:         0       0       0       0       0       0       0       0       0       0       0       0       
      +0       0       0       0       0
  3589 ;;Total ram usage:        0 bytes
  3590 ;; Hardware stack levels used: 1
  3591 ;; Hardware stack levels required when called: 5
  3592 ;; This function calls:
  3593 ;;		_print_ELMVer
  3594 ;;		_print_SAEVer
  3595 ;; This function is called by:
  3596 ;;		_main_menu
  3597 ;; This function uses a non-reentrant model
  3598 ;;
  3599                           
  3600                           	psect	text19
  3601   002056                     __ptext19:
  3602                           	callstack 0
  3603   002056                     _display_system_info:
  3604                           	callstack 24
  3605   002056                     
  3606                           ;OBCII_PIC18F46K22.c: 494:     print_ELMVer();
  3607   002056  ECE7  F00E         	call	_print_ELMVer	;wreg free
  3608                           
  3609                           ;OBCII_PIC18F46K22.c: 495:     print_SAEVer();
  3610   00205A  ECC6  F00E         	call	_print_SAEVer	;wreg free
  3611   00205E  0012               	return		;funcret
  3612   002060                     __end_of_display_system_info:
  3613                           	callstack 0
  3614                           
  3615 ;; *************** function _print_SAEVer *****************
  3616 ;; Defined at:
  3617 ;;		line 477 in file "OBCII_PIC18F46K22.c"
  3618 ;; Parameters:    Size  Location     Type
  3619 ;;		None
  3620 ;; Auto vars:     Size  Location     Type
  3621 ;;		None
  3622 ;; Return value:  Size  Location     Type
  3623 ;;                  1    wreg      void 
  3624 ;; Registers used:
  3625 ;;		wreg, fsr0l, fsr0h, status,2, status,0, tblptrl, tblptrh, tblptru, cstack
  3626 ;; Tracked objects:
  3627 ;;		On entry : 0/0
  3628 ;;		On exit  : 0/0
  3629 ;;		Unchanged: 0/0
  3630 ;; Data sizes:     COMRAM   BANK0   BANK1   BANK2   BANK3   BANK4   BANK5   BANK6   BANK7   BANK8   BANK9  BANK10  BANK1
      +1  BANK12  BANK13  BANK14  BANK15
  3631 ;;      Params:         0       0       0       0       0       0       0       0       0       0       0       0       
      +0       0       0       0       0
  3632 ;;      Locals:         0       0       0       0       0       0       0       0       0       0       0       0       
      +0       0       0       0       0
  3633 ;;      Temps:          0       0       0       0       0       0       0       0       0       0       0       0       
      +0       0       0       0       0
  3634 ;;      Totals:         0       0       0       0       0       0       0       0       0       0       0       0       
      +0       0       0       0       0
  3635 ;;Total ram usage:        0 bytes
  3636 ;; Hardware stack levels used: 1
  3637 ;; Hardware stack levels required when called: 4
  3638 ;; This function calls:
  3639 ;;		_LCD_cursor_set
  3640 ;;		_LCD_write_string
  3641 ;;		_UART1_SendString
  3642 ;; This function is called by:
  3643 ;;		_display_system_info
  3644 ;; This function uses a non-reentrant model
  3645 ;;
  3646                           
  3647                           	psect	text20
  3648   001D8C                     __ptext20:
  3649                           	callstack 0
  3650   001D8C                     _print_SAEVer:
  3651                           	callstack 24
  3652   001D8C                     
  3653                           ;OBCII_PIC18F46K22.c: 478:     UART1_SendString("0108\r");
  3654   001D8C  0E5B               	movlw	low STR_23
  3655   001D8E  6E04               	movwf	UART1_SendString@string^0,c
  3656   001D90  ECA1  F00E         	call	_UART1_SendString	;wreg free
  3657   001D94                     l2253:
  3658                           
  3659                           ;OBCII_PIC18F46K22.c: 480:     while(!message_complete) {
  3660   001D94  5047               	movf	_message_complete^0,w,c	;volatile
  3661   001D96  B4D8               	btfsc	status,2,c
  3662   001D98  EFD0  F00E         	goto	u1361
  3663   001D9C  EFD2  F00E         	goto	u1360
  3664   001DA0                     u1361:
  3665   001DA0  EFCA  F00E         	goto	l2253
  3666   001DA4                     u1360:
  3667   001DA4                     
  3668                           ;OBCII_PIC18F46K22.c: 484:     LCD_cursor_set(2,1);
  3669   001DA4  0E01               	movlw	1
  3670   001DA6  6E06               	movwf	LCD_cursor_set@column^0,c
  3671   001DA8  0E02               	movlw	2
  3672   001DAA  EC71  F00E         	call	_LCD_cursor_set
  3673   001DAE                     
  3674                           ;OBCII_PIC18F46K22.c: 485:     LCD_write_string("SAE: ");
  3675   001DAE  0E79               	movlw	low STR_24
  3676   001DB0  6E06               	movwf	LCD_write_string@string^0,c
  3677   001DB2  5006               	movf	LCD_write_string@string^0,w,c
  3678   001DB4  A4D8               	btfss	status,2,c
  3679   001DB6  0E10               	movlw	high __smallconst
  3680   001DB8  6E07               	movwf	(LCD_write_string@string+1)^0,c
  3681   001DBA  EC97  F00D         	call	_LCD_write_string	;wreg free
  3682   001DBE                     
  3683                           ;OBCII_PIC18F46K22.c: 486:     LCD_write_string(buffer);
  3684   001DBE  0E80               	movlw	low _buffer
  3685   001DC0  6E06               	movwf	LCD_write_string@string^0,c
  3686   001DC2  6A07               	clrf	(LCD_write_string@string+1)^0,c
  3687   001DC4  EC97  F00D         	call	_LCD_write_string	;wreg free
  3688   001DC8                     
  3689                           ;OBCII_PIC18F46K22.c: 489:     buffer_count = 0;
  3690   001DC8  6A49               	clrf	_buffer_count^0,c
  3691   001DCA                     
  3692                           ;OBCII_PIC18F46K22.c: 490:     message_complete = 0;
  3693   001DCA  6A47               	clrf	_message_complete^0,c	;volatile
  3694   001DCC  0012               	return		;funcret
  3695   001DCE                     __end_of_print_SAEVer:
  3696                           	callstack 0
  3697                           
  3698 ;; *************** function _print_ELMVer *****************
  3699 ;; Defined at:
  3700 ;;		line 460 in file "OBCII_PIC18F46K22.c"
  3701 ;; Parameters:    Size  Location     Type
  3702 ;;		None
  3703 ;; Auto vars:     Size  Location     Type
  3704 ;;		None
  3705 ;; Return value:  Size  Location     Type
  3706 ;;                  1    wreg      void 
  3707 ;; Registers used:
  3708 ;;		wreg, fsr0l, fsr0h, status,2, status,0, tblptrl, tblptrh, tblptru, cstack
  3709 ;; Tracked objects:
  3710 ;;		On entry : 0/0
  3711 ;;		On exit  : 0/0
  3712 ;;		Unchanged: 0/0
  3713 ;; Data sizes:     COMRAM   BANK0   BANK1   BANK2   BANK3   BANK4   BANK5   BANK6   BANK7   BANK8   BANK9  BANK10  BANK1
      +1  BANK12  BANK13  BANK14  BANK15
  3714 ;;      Params:         0       0       0       0       0       0       0       0       0       0       0       0       
      +0       0       0       0       0
  3715 ;;      Locals:         0       0       0       0       0       0       0       0       0       0       0       0       
      +0       0       0       0       0
  3716 ;;      Temps:          0       0       0       0       0       0       0       0       0       0       0       0       
      +0       0       0       0       0
  3717 ;;      Totals:         0       0       0       0       0       0       0       0       0       0       0       0       
      +0       0       0       0       0
  3718 ;;Total ram usage:        0 bytes
  3719 ;; Hardware stack levels used: 1
  3720 ;; Hardware stack levels required when called: 4
  3721 ;; This function calls:
  3722 ;;		_LCD_cursor_set
  3723 ;;		_LCD_write_string
  3724 ;;		_UART1_SendString
  3725 ;; This function is called by:
  3726 ;;		_display_system_info
  3727 ;; This function uses a non-reentrant model
  3728 ;;
  3729                           
  3730                           	psect	text21
  3731   001DCE                     __ptext21:
  3732                           	callstack 0
  3733   001DCE                     _print_ELMVer:
  3734                           	callstack 24
  3735   001DCE                     
  3736                           ;OBCII_PIC18F46K22.c: 462:     UART1_SendString("ATI\r");
  3737   001DCE  0E8B               	movlw	low STR_4
  3738   001DD0  6E04               	movwf	UART1_SendString@string^0,c
  3739   001DD2  ECA1  F00E         	call	_UART1_SendString	;wreg free
  3740   001DD6                     l2239:
  3741                           
  3742                           ;OBCII_PIC18F46K22.c: 464:     while(!message_complete) {
  3743   001DD6  5047               	movf	_message_complete^0,w,c	;volatile
  3744   001DD8  B4D8               	btfsc	status,2,c
  3745   001DDA  EFF1  F00E         	goto	u1351
  3746   001DDE  EFF3  F00E         	goto	u1350
  3747   001DE2                     u1351:
  3748   001DE2  EFEB  F00E         	goto	l2239
  3749   001DE6                     u1350:
  3750   001DE6                     
  3751                           ;OBCII_PIC18F46K22.c: 468:     LCD_cursor_set(1,1);
  3752   001DE6  0E01               	movlw	1
  3753   001DE8  6E06               	movwf	LCD_cursor_set@column^0,c
  3754   001DEA  0E01               	movlw	1
  3755   001DEC  EC71  F00E         	call	_LCD_cursor_set
  3756   001DF0                     
  3757                           ;OBCII_PIC18F46K22.c: 469:     LCD_write_string("ELM: ");
  3758   001DF0  0E7F               	movlw	low STR_22
  3759   001DF2  6E06               	movwf	LCD_write_string@string^0,c
  3760   001DF4  5006               	movf	LCD_write_string@string^0,w,c
  3761   001DF6  A4D8               	btfss	status,2,c
  3762   001DF8  0E10               	movlw	high __smallconst
  3763   001DFA  6E07               	movwf	(LCD_write_string@string+1)^0,c
  3764   001DFC  EC97  F00D         	call	_LCD_write_string	;wreg free
  3765   001E00                     
  3766                           ;OBCII_PIC18F46K22.c: 470:     LCD_write_string(buffer);
  3767   001E00  0E80               	movlw	low _buffer
  3768   001E02  6E06               	movwf	LCD_write_string@string^0,c
  3769   001E04  6A07               	clrf	(LCD_write_string@string+1)^0,c
  3770   001E06  EC97  F00D         	call	_LCD_write_string	;wreg free
  3771   001E0A                     
  3772                           ;OBCII_PIC18F46K22.c: 473:     buffer_count = 0;
  3773   001E0A  6A49               	clrf	_buffer_count^0,c
  3774   001E0C                     
  3775                           ;OBCII_PIC18F46K22.c: 474:     message_complete = 0;
  3776   001E0C  6A47               	clrf	_message_complete^0,c	;volatile
  3777   001E0E  0012               	return		;funcret
  3778   001E10                     __end_of_print_ELMVer:
  3779                           	callstack 0
  3780                           
  3781 ;; *************** function _UART1_SendString *****************
  3782 ;; Defined at:
  3783 ;;		line 169 in file "OBCII_PIC18F46K22.c"
  3784 ;; Parameters:    Size  Location     Type
  3785 ;;  string          1    3[COMRAM] PTR unsigned char 
  3786 ;;		 -> STR_25(6), STR_23(6), STR_21(5), STR_16(6), 
  3787 ;;		 -> STR_12(6), STR_8(6), STR_4(5), STR_1(6), 
  3788 ;; Auto vars:     Size  Location     Type
  3789 ;;  i               2    5[COMRAM] unsigned int 
  3790 ;; Return value:  Size  Location     Type
  3791 ;;                  1    wreg      void 
  3792 ;; Registers used:
  3793 ;;		wreg, status,2, status,0, tblptrl, tblptrh, tblptru, cstack
  3794 ;; Tracked objects:
  3795 ;;		On entry : 0/0
  3796 ;;		On exit  : 0/0
  3797 ;;		Unchanged: 0/0
  3798 ;; Data sizes:     COMRAM   BANK0   BANK1   BANK2   BANK3   BANK4   BANK5   BANK6   BANK7   BANK8   BANK9  BANK10  BANK1
      +1  BANK12  BANK13  BANK14  BANK15
  3799 ;;      Params:         1       0       0       0       0       0       0       0       0       0       0       0       
      +0       0       0       0       0
  3800 ;;      Locals:         2       0       0       0       0       0       0       0       0       0       0       0       
      +0       0       0       0       0
  3801 ;;      Temps:          1       0       0       0       0       0       0       0       0       0       0       0       
      +0       0       0       0       0
  3802 ;;      Totals:         4       0       0       0       0       0       0       0       0       0       0       0       
      +0       0       0       0       0
  3803 ;;Total ram usage:        4 bytes
  3804 ;; Hardware stack levels used: 1
  3805 ;; Hardware stack levels required when called: 2
  3806 ;; This function calls:
  3807 ;;		_UART1_SendChar
  3808 ;; This function is called by:
  3809 ;;		_main
  3810 ;;		_welcome_splash
  3811 ;;		_print_RPM
  3812 ;;		_print_Vbatt
  3813 ;;		_print_AI_Temp
  3814 ;;		_print_ELMVer
  3815 ;;		_print_SAEVer
  3816 ;;		_read_diagnostic_codes
  3817 ;; This function uses a non-reentrant model
  3818 ;;
  3819                           
  3820                           	psect	text22
  3821   001D42                     __ptext22:
  3822                           	callstack 0
  3823   001D42                     _UART1_SendString:
  3824                           	callstack 27
  3825   001D42                     
  3826                           ;OBCII_PIC18F46K22.c: 170:     for (unsigned int i = 0; string[i] != '\0'; i++){
  3827   001D42  0E00               	movlw	0
  3828   001D44  6E07               	movwf	(UART1_SendString@i+1)^0,c
  3829   001D46  0E00               	movlw	0
  3830   001D48  6E06               	movwf	UART1_SendString@i^0,c
  3831   001D4A  EFB4  F00E         	goto	l2085
  3832   001D4E                     l2081:
  3833                           
  3834                           ;OBCII_PIC18F46K22.c: 171:         UART1_SendChar(string[i]);
  3835   001D4E  5004               	movf	UART1_SendString@string^0,w,c
  3836   001D50  2406               	addwf	UART1_SendString@i^0,w,c
  3837   001D52  6E05               	movwf	??_UART1_SendString^0,c
  3838   001D54  C005  FFF6         	movff	??_UART1_SendString,tblptrl
  3839   001D58                     	if	1	;There is more than 1 active tblptr byte
  3840   001D58  0E10               	movlw	high __smallconst
  3841   001D5A  6EF7               	movwf	tblptrh,c
  3842   001D5C                     	endif
  3843   001D5C                     	if	0	;tblptru may be non-zero
  3844   001D5C                     	endif
  3845   001D5C                     	if	0	;tblptru may be non-zero
  3846   001D5C                     	endif
  3847   001D5C  0008               	tblrd		*
  3848   001D5E  50F5               	movf	tablat,w,c
  3849   001D60  ECFB  F00F         	call	_UART1_SendChar
  3850   001D64                     
  3851                           ;OBCII_PIC18F46K22.c: 172:     }
  3852   001D64  4A06               	infsnz	UART1_SendString@i^0,f,c
  3853   001D66  2A07               	incf	(UART1_SendString@i+1)^0,f,c
  3854   001D68                     l2085:
  3855   001D68  5004               	movf	UART1_SendString@string^0,w,c
  3856   001D6A  2406               	addwf	UART1_SendString@i^0,w,c
  3857   001D6C  6E05               	movwf	??_UART1_SendString^0,c
  3858   001D6E  C005  FFF6         	movff	??_UART1_SendString,tblptrl
  3859   001D72                     	if	1	;There is more than 1 active tblptr byte
  3860   001D72  0E10               	movlw	high __smallconst
  3861   001D74  6EF7               	movwf	tblptrh,c
  3862   001D76                     	endif
  3863   001D76                     	if	0	;tblptru may be non-zero
  3864   001D76                     	endif
  3865   001D76                     	if	0	;tblptru may be non-zero
  3866   001D76                     	endif
  3867   001D76  0008               	tblrd		*
  3868   001D78  50F5               	movf	tablat,w,c
  3869   001D7A  0900               	iorlw	0
  3870   001D7C  A4D8               	btfss	status,2,c
  3871   001D7E  EFC3  F00E         	goto	u1151
  3872   001D82  EFC5  F00E         	goto	u1150
  3873   001D86                     u1151:
  3874   001D86  EFA7  F00E         	goto	l2081
  3875   001D8A                     u1150:
  3876   001D8A  0012               	return		;funcret
  3877   001D8C                     __end_of_UART1_SendString:
  3878                           	callstack 0
  3879                           
  3880 ;; *************** function _UART1_SendChar *****************
  3881 ;; Defined at:
  3882 ;;		line 175 in file "OBCII_PIC18F46K22.c"
  3883 ;; Parameters:    Size  Location     Type
  3884 ;;  c               1    wreg     unsigned char 
  3885 ;; Auto vars:     Size  Location     Type
  3886 ;;  c               1    2[COMRAM] unsigned char 
  3887 ;; Return value:  Size  Location     Type
  3888 ;;                  1    wreg      void 
  3889 ;; Registers used:
  3890 ;;		wreg
  3891 ;; Tracked objects:
  3892 ;;		On entry : 0/0
  3893 ;;		On exit  : 0/0
  3894 ;;		Unchanged: 0/0
  3895 ;; Data sizes:     COMRAM   BANK0   BANK1   BANK2   BANK3   BANK4   BANK5   BANK6   BANK7   BANK8   BANK9  BANK10  BANK1
      +1  BANK12  BANK13  BANK14  BANK15
  3896 ;;      Params:         0       0       0       0       0       0       0       0       0       0       0       0       
      +0       0       0       0       0
  3897 ;;      Locals:         1       0       0       0       0       0       0       0       0       0       0       0       
      +0       0       0       0       0
  3898 ;;      Temps:          0       0       0       0       0       0       0       0       0       0       0       0       
      +0       0       0       0       0
  3899 ;;      Totals:         1       0       0       0       0       0       0       0       0       0       0       0       
      +0       0       0       0       0
  3900 ;;Total ram usage:        1 bytes
  3901 ;; Hardware stack levels used: 1
  3902 ;; Hardware stack levels required when called: 1
  3903 ;; This function calls:
  3904 ;;		Nothing
  3905 ;; This function is called by:
  3906 ;;		_UART1_SendString
  3907 ;; This function uses a non-reentrant model
  3908 ;;
  3909                           
  3910                           	psect	text23
  3911   001FF6                     __ptext23:
  3912                           	callstack 0
  3913   001FF6                     _UART1_SendChar:
  3914                           	callstack 27
  3915                           
  3916                           ;incstack = 0
  3917                           ;UART1_SendChar@c stored from wreg
  3918   001FF6  6E03               	movwf	UART1_SendChar@c^0,c
  3919   001FF8                     l157:
  3920   001FF8  A2AC               	btfss	172,1,c	;volatile
  3921   001FFA  EF01  F010         	goto	u1071
  3922   001FFE  EF03  F010         	goto	u1070
  3923   002002                     u1071:
  3924   002002  EFFC  F00F         	goto	l157
  3925   002006                     u1070:
  3926   002006                     
  3927                           ;OBCII_PIC18F46K22.c: 177:         TXREG = c;
  3928   002006  C003  FFAD         	movff	UART1_SendChar@c,4013	;volatile
  3929   00200A  0012               	return		;funcret
  3930   00200C                     __end_of_UART1_SendChar:
  3931                           	callstack 0
  3932                           
  3933 ;; *************** function _display_mm *****************
  3934 ;; Defined at:
  3935 ;;		line 247 in file "OBCII_PIC18F46K22.c"
  3936 ;; Parameters:    Size  Location     Type
  3937 ;;		None
  3938 ;; Auto vars:     Size  Location     Type
  3939 ;;		None
  3940 ;; Return value:  Size  Location     Type
  3941 ;;                  1    wreg      void 
  3942 ;; Registers used:
  3943 ;;		wreg, fsr0l, fsr0h, status,2, status,0, tblptrl, tblptrh, tblptru, cstack
  3944 ;; Tracked objects:
  3945 ;;		On entry : 0/0
  3946 ;;		On exit  : 0/0
  3947 ;;		Unchanged: 0/0
  3948 ;; Data sizes:     COMRAM   BANK0   BANK1   BANK2   BANK3   BANK4   BANK5   BANK6   BANK7   BANK8   BANK9  BANK10  BANK1
      +1  BANK12  BANK13  BANK14  BANK15
  3949 ;;      Params:         0       0       0       0       0       0       0       0       0       0       0       0       
      +0       0       0       0       0
  3950 ;;      Locals:         0       0       0       0       0       0       0       0       0       0       0       0       
      +0       0       0       0       0
  3951 ;;      Temps:          0       0       0       0       0       0       0       0       0       0       0       0       
      +0       0       0       0       0
  3952 ;;      Totals:         0       0       0       0       0       0       0       0       0       0       0       0       
      +0       0       0       0       0
  3953 ;;Total ram usage:        0 bytes
  3954 ;; Hardware stack levels used: 1
  3955 ;; Hardware stack levels required when called: 4
  3956 ;; This function calls:
  3957 ;;		_LCD_cursor_set
  3958 ;;		_LCD_write_string
  3959 ;; This function is called by:
  3960 ;;		_main_menu
  3961 ;; This function uses a non-reentrant model
  3962 ;;
  3963                           
  3964                           	psect	text24
  3965   001EFC                     __ptext24:
  3966                           	callstack 0
  3967   001EFC                     _display_mm:
  3968                           	callstack 25
  3969   001EFC                     
  3970                           ;OBCII_PIC18F46K22.c: 248:     LCD_cursor_set(1,1);
  3971   001EFC  0E01               	movlw	1
  3972   001EFE  6E06               	movwf	LCD_cursor_set@column^0,c
  3973   001F00  0E01               	movlw	1
  3974   001F02  EC71  F00E         	call	_LCD_cursor_set
  3975   001F06                     
  3976                           ;OBCII_PIC18F46K22.c: 249:     LCD_write_string("MENU<<OBDIIPIC>>");
  3977   001F06  0E34               	movlw	low STR_6
  3978   001F08  6E06               	movwf	LCD_write_string@string^0,c
  3979   001F0A  5006               	movf	LCD_write_string@string^0,w,c
  3980   001F0C  A4D8               	btfss	status,2,c
  3981   001F0E  0E10               	movlw	high __smallconst
  3982   001F10  6E07               	movwf	(LCD_write_string@string+1)^0,c
  3983   001F12  EC97  F00D         	call	_LCD_write_string	;wreg free
  3984   001F16                     
  3985                           ;OBCII_PIC18F46K22.c: 250:     LCD_cursor_set(2,1);
  3986   001F16  0E01               	movlw	1
  3987   001F18  6E06               	movwf	LCD_cursor_set@column^0,c
  3988   001F1A  0E02               	movlw	2
  3989   001F1C  EC71  F00E         	call	_LCD_cursor_set
  3990                           
  3991                           ;OBCII_PIC18F46K22.c: 251:     LCD_write_string("LRM RDC CDC DSI");
  3992   001F20  0E45               	movlw	low STR_7
  3993   001F22  6E06               	movwf	LCD_write_string@string^0,c
  3994   001F24  5006               	movf	LCD_write_string@string^0,w,c
  3995   001F26  A4D8               	btfss	status,2,c
  3996   001F28  0E10               	movlw	high __smallconst
  3997   001F2A  6E07               	movwf	(LCD_write_string@string+1)^0,c
  3998   001F2C  EC97  F00D         	call	_LCD_write_string	;wreg free
  3999   001F30  0012               	return		;funcret
  4000   001F32                     __end_of_display_mm:
  4001                           	callstack 0
  4002                           
  4003 ;; *************** function _LCD_write_string *****************
  4004 ;; Defined at:
  4005 ;;		line 362 in file "LCD.c"
  4006 ;; Parameters:    Size  Location     Type
  4007 ;;  string          2    5[COMRAM] PTR unsigned char 
  4008 ;;		 -> STR_24(6), STR_22(6), STR_20(2), STR_19(4), 
  4009 ;;		 -> air_intake_string(16), STR_17(4), STR_15(4), STR_14(6), 
  4010 ;;		 -> STR_13(6), STR_11(4), STR_10(6), rpm_string(16), 
  4011 ;;		 -> STR_7(16), STR_6(17), STR_5(17), STR_3(17), 
  4012 ;;		 -> STR_2(17), buffer(32), 
  4013 ;; Auto vars:     Size  Location     Type
  4014 ;;  i               1    9[COMRAM] unsigned char 
  4015 ;; Return value:  Size  Location     Type
  4016 ;;                  1    wreg      void 
  4017 ;; Registers used:
  4018 ;;		wreg, fsr0l, fsr0h, status,2, status,0, tblptrl, tblptrh, tblptru, cstack
  4019 ;; Tracked objects:
  4020 ;;		On entry : 0/0
  4021 ;;		On exit  : 0/0
  4022 ;;		Unchanged: 0/0
  4023 ;; Data sizes:     COMRAM   BANK0   BANK1   BANK2   BANK3   BANK4   BANK5   BANK6   BANK7   BANK8   BANK9  BANK10  BANK1
      +1  BANK12  BANK13  BANK14  BANK15
  4024 ;;      Params:         2       0       0       0       0       0       0       0       0       0       0       0       
      +0       0       0       0       0
  4025 ;;      Locals:         1       0       0       0       0       0       0       0       0       0       0       0       
      +0       0       0       0       0
  4026 ;;      Temps:          2       0       0       0       0       0       0       0       0       0       0       0       
      +0       0       0       0       0
  4027 ;;      Totals:         5       0       0       0       0       0       0       0       0       0       0       0       
      +0       0       0       0       0
  4028 ;;Total ram usage:        5 bytes
  4029 ;; Hardware stack levels used: 1
  4030 ;; Hardware stack levels required when called: 3
  4031 ;; This function calls:
  4032 ;;		_LCD_write_data
  4033 ;; This function is called by:
  4034 ;;		_welcome_splash
  4035 ;;		_display_mm
  4036 ;;		_print_RPM
  4037 ;;		_print_Vbatt
  4038 ;;		_print_AI_Temp
  4039 ;;		_print_ELMVer
  4040 ;;		_print_SAEVer
  4041 ;; This function uses a non-reentrant model
  4042 ;;
  4043                           
  4044                           	psect	text25
  4045   001B2E                     __ptext25:
  4046                           	callstack 0
  4047   001B2E                     _LCD_write_string:
  4048                           	callstack 26
  4049   001B2E                     
  4050                           ;LCD.c: 365:     for(uint8_t i=0 ; string[i] != '\0' ; i++){
  4051   001B2E  6A0A               	clrf	LCD_write_string@i^0,c
  4052   001B30  EFB4  F00D         	goto	l2105
  4053   001B34                     l2101:
  4054                           
  4055                           ;LCD.c: 366:         LCD_write_data(string[i]);
  4056   001B34  500A               	movf	LCD_write_string@i^0,w,c
  4057   001B36  2406               	addwf	LCD_write_string@string^0,w,c
  4058   001B38  6E08               	movwf	??_LCD_write_string^0,c
  4059   001B3A  0E00               	movlw	0
  4060   001B3C  2007               	addwfc	(LCD_write_string@string+1)^0,w,c
  4061   001B3E  6E09               	movwf	(??_LCD_write_string+1)^0,c
  4062   001B40  C008  FFF6         	movff	??_LCD_write_string,tblptrl
  4063   001B44  C009  FFF7         	movff	??_LCD_write_string+1,tblptrh
  4064   001B48  0E00               	movlw	low (__smallconst shr (0+16))
  4065   001B4A  6EF8               	movwf	tblptru,c
  4066   001B4C  0E0F               	movlw	(high __ramtop+-1)
  4067   001B4E  64F7               	cpfsgt	tblptrh,c
  4068   001B50  D003               	bra	u1207
  4069   001B52  0008               	tblrd		*
  4070   001B54  50F5               	movf	tablat,w,c
  4071   001B56  D005               	bra	u1200
  4072   001B58                     u1207:
  4073   001B58  CFF6 FFE9          	movff	tblptrl,fsr0l
  4074   001B5C  CFF7 FFEA          	movff	tblptrh,fsr0h
  4075   001B60  50EF               	movf	indf0,w,c
  4076   001B62                     u1200:
  4077   001B62  ECAA  F00A         	call	_LCD_write_data
  4078   001B66                     
  4079                           ;LCD.c: 367:     }
  4080   001B66  2A0A               	incf	LCD_write_string@i^0,f,c
  4081   001B68                     l2105:
  4082   001B68  500A               	movf	LCD_write_string@i^0,w,c
  4083   001B6A  2406               	addwf	LCD_write_string@string^0,w,c
  4084   001B6C  6E08               	movwf	??_LCD_write_string^0,c
  4085   001B6E  0E00               	movlw	0
  4086   001B70  2007               	addwfc	(LCD_write_string@string+1)^0,w,c
  4087   001B72  6E09               	movwf	(??_LCD_write_string+1)^0,c
  4088   001B74  C008  FFF6         	movff	??_LCD_write_string,tblptrl
  4089   001B78  C009  FFF7         	movff	??_LCD_write_string+1,tblptrh
  4090   001B7C  0E00               	movlw	low (__smallconst shr (0+16))
  4091   001B7E  6EF8               	movwf	tblptru,c
  4092   001B80  0E0F               	movlw	(high __ramtop+-1)
  4093   001B82  64F7               	cpfsgt	tblptrh,c
  4094   001B84  D003               	bra	u1217
  4095   001B86  0008               	tblrd		*
  4096   001B88  50F5               	movf	tablat,w,c
  4097   001B8A  D005               	bra	u1210
  4098   001B8C                     u1217:
  4099   001B8C  CFF6 FFE9          	movff	tblptrl,fsr0l
  4100   001B90  CFF7 FFEA          	movff	tblptrh,fsr0h
  4101   001B94  50EF               	movf	indf0,w,c
  4102   001B96                     u1210:
  4103   001B96  0900               	iorlw	0
  4104   001B98  A4D8               	btfss	status,2,c
  4105   001B9A  EFD1  F00D         	goto	u1221
  4106   001B9E  EFD3  F00D         	goto	u1220
  4107   001BA2                     u1221:
  4108   001BA2  EF9A  F00D         	goto	l2101
  4109   001BA6                     u1220:
  4110   001BA6  0012               	return		;funcret
  4111   001BA8                     __end_of_LCD_write_string:
  4112                           	callstack 0
  4113                           
  4114 ;; *************** function _LCD_write_data *****************
  4115 ;; Defined at:
  4116 ;;		line 74 in file "LCD.c"
  4117 ;; Parameters:    Size  Location     Type
  4118 ;;  data            1    wreg     unsigned char 
  4119 ;; Auto vars:     Size  Location     Type
  4120 ;;  data            1    4[COMRAM] unsigned char 
  4121 ;; Return value:  Size  Location     Type
  4122 ;;                  1    wreg      void 
  4123 ;; Registers used:
  4124 ;;		wreg, status,2, status,0, cstack
  4125 ;; Tracked objects:
  4126 ;;		On entry : 0/0
  4127 ;;		On exit  : 0/0
  4128 ;;		Unchanged: 0/0
  4129 ;; Data sizes:     COMRAM   BANK0   BANK1   BANK2   BANK3   BANK4   BANK5   BANK6   BANK7   BANK8   BANK9  BANK10  BANK1
      +1  BANK12  BANK13  BANK14  BANK15
  4130 ;;      Params:         0       0       0       0       0       0       0       0       0       0       0       0       
      +0       0       0       0       0
  4131 ;;      Locals:         1       0       0       0       0       0       0       0       0       0       0       0       
      +0       0       0       0       0
  4132 ;;      Temps:          2       0       0       0       0       0       0       0       0       0       0       0       
      +0       0       0       0       0
  4133 ;;      Totals:         3       0       0       0       0       0       0       0       0       0       0       0       
      +0       0       0       0       0
  4134 ;;Total ram usage:        3 bytes
  4135 ;; Hardware stack levels used: 1
  4136 ;; Hardware stack levels required when called: 2
  4137 ;; This function calls:
  4138 ;;		_LCD_pulse_clock
  4139 ;; This function is called by:
  4140 ;;		_LCD_write_string
  4141 ;;		_LCD_add_character
  4142 ;;		_LCD_write_char
  4143 ;;		_LCD_write_variable
  4144 ;;		_LCD_write_float
  4145 ;; This function uses a non-reentrant model
  4146 ;;
  4147                           
  4148                           	psect	text26
  4149   001554                     __ptext26:
  4150                           	callstack 0
  4151   001554                     _LCD_write_data:
  4152                           	callstack 26
  4153                           
  4154                           ;incstack = 0
  4155                           ;LCD_write_data@data stored from wreg
  4156   001554  6E05               	movwf	LCD_write_data@data^0,c
  4157   001556                     
  4158                           ;LCD.c: 76:     LATDbits.LATD2 = 1;
  4159   001556  848C               	bsf	140,2,c	;volatile
  4160   001558                     
  4161                           ;LCD.c: 79:     LATDbits.LATD7 = (data & 0b10000000) >> 7;
  4162   001558  6A03               	clrf	??_LCD_write_data^0,c
  4163   00155A  AE05               	btfss	LCD_write_data@data^0,7,c
  4164   00155C  D001               	bra	u1115
  4165   00155E  2A03               	incf	??_LCD_write_data^0,f,c
  4166   001560                     u1115:
  4167   001560  0E01               	movlw	1
  4168   001562  1603               	andwf	??_LCD_write_data^0,f,c
  4169   001564  3203               	rrcf	??_LCD_write_data^0,f,c
  4170   001566  3203               	rrcf	??_LCD_write_data^0,f,c
  4171   001568  508C               	movf	140,w,c	;volatile
  4172   00156A  1803               	xorwf	??_LCD_write_data^0,w,c
  4173   00156C  0B7F               	andlw	-129
  4174   00156E  1803               	xorwf	??_LCD_write_data^0,w,c
  4175   001570  6E8C               	movwf	140,c	;volatile
  4176                           
  4177                           ;LCD.c: 80:     LATDbits.LATD6 = (data & 0b01000000) >> 6;
  4178   001572  C005  F003         	movff	LCD_write_data@data,??_LCD_write_data
  4179   001576  0E06               	movlw	6
  4180   001578  6E04               	movwf	(??_LCD_write_data+1)^0,c
  4181   00157A                     u1125:
  4182   00157A  90D8               	bcf	status,0,c
  4183   00157C  3203               	rrcf	??_LCD_write_data^0,f,c
  4184   00157E  2E04               	decfsz	(??_LCD_write_data+1)^0,f,c
  4185   001580  EFBD  F00A         	goto	u1125
  4186   001584  0E01               	movlw	1
  4187   001586  1603               	andwf	??_LCD_write_data^0,f,c
  4188   001588  3A03               	swapf	??_LCD_write_data^0,f,c
  4189   00158A  4603               	rlncf	??_LCD_write_data^0,f,c
  4190   00158C  4603               	rlncf	??_LCD_write_data^0,f,c
  4191   00158E  508C               	movf	140,w,c	;volatile
  4192   001590  1803               	xorwf	??_LCD_write_data^0,w,c
  4193   001592  0BBF               	andlw	-65
  4194   001594  1803               	xorwf	??_LCD_write_data^0,w,c
  4195   001596  6E8C               	movwf	140,c	;volatile
  4196                           
  4197                           ;LCD.c: 81:     LATDbits.LATD5 = (data & 0b00100000) >> 5;
  4198   001598  C005  F003         	movff	LCD_write_data@data,??_LCD_write_data
  4199   00159C  0E05               	movlw	5
  4200   00159E  6E04               	movwf	(??_LCD_write_data+1)^0,c
  4201   0015A0                     u1135:
  4202   0015A0  90D8               	bcf	status,0,c
  4203   0015A2  3203               	rrcf	??_LCD_write_data^0,f,c
  4204   0015A4  2E04               	decfsz	(??_LCD_write_data+1)^0,f,c
  4205   0015A6  EFD0  F00A         	goto	u1135
  4206   0015AA  0E01               	movlw	1
  4207   0015AC  1603               	andwf	??_LCD_write_data^0,f,c
  4208   0015AE  3A03               	swapf	??_LCD_write_data^0,f,c
  4209   0015B0  4603               	rlncf	??_LCD_write_data^0,f,c
  4210   0015B2  508C               	movf	140,w,c	;volatile
  4211   0015B4  1803               	xorwf	??_LCD_write_data^0,w,c
  4212   0015B6  0BDF               	andlw	-33
  4213   0015B8  1803               	xorwf	??_LCD_write_data^0,w,c
  4214   0015BA  6E8C               	movwf	140,c	;volatile
  4215                           
  4216                           ;LCD.c: 82:     LATDbits.LATD4 = (data & 0b00010000) >> 4;
  4217   0015BC  C005  F003         	movff	LCD_write_data@data,??_LCD_write_data
  4218   0015C0  3A03               	swapf	??_LCD_write_data^0,f,c
  4219   0015C2  0E0F               	movlw	15
  4220   0015C4  1603               	andwf	??_LCD_write_data^0,f,c
  4221   0015C6  0E01               	movlw	1
  4222   0015C8  1603               	andwf	??_LCD_write_data^0,f,c
  4223   0015CA  3A03               	swapf	??_LCD_write_data^0,f,c
  4224   0015CC  508C               	movf	140,w,c	;volatile
  4225   0015CE  1803               	xorwf	??_LCD_write_data^0,w,c
  4226   0015D0  0BEF               	andlw	-17
  4227   0015D2  1803               	xorwf	??_LCD_write_data^0,w,c
  4228   0015D4  6E8C               	movwf	140,c	;volatile
  4229   0015D6                     
  4230                           ;LCD.c: 85:     LCD_pulse_clock();
  4231   0015D6  EC1F  F010         	call	_LCD_pulse_clock	;wreg free
  4232   0015DA                     
  4233                           ;LCD.c: 88:     LATDbits.LATD7 = (data & 0b00001000) >> 3;
  4234   0015DA  C005  F003         	movff	LCD_write_data@data,??_LCD_write_data
  4235   0015DE  90D8               	bcf	status,0,c
  4236   0015E0  3203               	rrcf	??_LCD_write_data^0,f,c
  4237   0015E2  90D8               	bcf	status,0,c
  4238   0015E4  3203               	rrcf	??_LCD_write_data^0,f,c
  4239   0015E6  90D8               	bcf	status,0,c
  4240   0015E8  3203               	rrcf	??_LCD_write_data^0,f,c
  4241   0015EA  0E01               	movlw	1
  4242   0015EC  1603               	andwf	??_LCD_write_data^0,f,c
  4243   0015EE  3203               	rrcf	??_LCD_write_data^0,f,c
  4244   0015F0  3203               	rrcf	??_LCD_write_data^0,f,c
  4245   0015F2  508C               	movf	140,w,c	;volatile
  4246   0015F4  1803               	xorwf	??_LCD_write_data^0,w,c
  4247   0015F6  0B7F               	andlw	-129
  4248   0015F8  1803               	xorwf	??_LCD_write_data^0,w,c
  4249   0015FA  6E8C               	movwf	140,c	;volatile
  4250   0015FC                     
  4251                           ;LCD.c: 89:     LATDbits.LATD6 = (data & 0b00000100) >> 2;
  4252   0015FC  C005  F003         	movff	LCD_write_data@data,??_LCD_write_data
  4253   001600  90D8               	bcf	status,0,c
  4254   001602  3203               	rrcf	??_LCD_write_data^0,f,c
  4255   001604  90D8               	bcf	status,0,c
  4256   001606  3203               	rrcf	??_LCD_write_data^0,f,c
  4257   001608  0E01               	movlw	1
  4258   00160A  1603               	andwf	??_LCD_write_data^0,f,c
  4259   00160C  3A03               	swapf	??_LCD_write_data^0,f,c
  4260   00160E  4603               	rlncf	??_LCD_write_data^0,f,c
  4261   001610  4603               	rlncf	??_LCD_write_data^0,f,c
  4262   001612  508C               	movf	140,w,c	;volatile
  4263   001614  1803               	xorwf	??_LCD_write_data^0,w,c
  4264   001616  0BBF               	andlw	-65
  4265   001618  1803               	xorwf	??_LCD_write_data^0,w,c
  4266   00161A  6E8C               	movwf	140,c	;volatile
  4267   00161C                     
  4268                           ;LCD.c: 90:     LATDbits.LATD5 = (data & 0b00000010) >> 1;
  4269   00161C  C005  F003         	movff	LCD_write_data@data,??_LCD_write_data
  4270   001620  90D8               	bcf	status,0,c
  4271   001622  3203               	rrcf	??_LCD_write_data^0,f,c
  4272   001624  0E01               	movlw	1
  4273   001626  1603               	andwf	??_LCD_write_data^0,f,c
  4274   001628  3A03               	swapf	??_LCD_write_data^0,f,c
  4275   00162A  4603               	rlncf	??_LCD_write_data^0,f,c
  4276   00162C  508C               	movf	140,w,c	;volatile
  4277   00162E  1803               	xorwf	??_LCD_write_data^0,w,c
  4278   001630  0BDF               	andlw	-33
  4279   001632  1803               	xorwf	??_LCD_write_data^0,w,c
  4280   001634  6E8C               	movwf	140,c	;volatile
  4281   001636                     
  4282                           ;LCD.c: 91:     LATDbits.LATD4 = (data & 0b00000001) ;
  4283   001636  C005  F003         	movff	LCD_write_data@data,??_LCD_write_data
  4284   00163A  0E01               	movlw	1
  4285   00163C  1603               	andwf	??_LCD_write_data^0,f,c
  4286   00163E  3A03               	swapf	??_LCD_write_data^0,f,c
  4287   001640  508C               	movf	140,w,c	;volatile
  4288   001642  1803               	xorwf	??_LCD_write_data^0,w,c
  4289   001644  0BEF               	andlw	-17
  4290   001646  1803               	xorwf	??_LCD_write_data^0,w,c
  4291   001648  6E8C               	movwf	140,c	;volatile
  4292   00164A                     
  4293                           ;LCD.c: 94:     LCD_pulse_clock();
  4294   00164A  EC1F  F010         	call	_LCD_pulse_clock	;wreg free
  4295   00164E  0012               	return		;funcret
  4296   001650                     __end_of_LCD_write_data:
  4297                           	callstack 0
  4298                           
  4299 ;; *************** function _LCD_cursor_set *****************
  4300 ;; Defined at:
  4301 ;;		line 159 in file "LCD.c"
  4302 ;; Parameters:    Size  Location     Type
  4303 ;;  row             1    wreg     unsigned char 
  4304 ;;  column          1    5[COMRAM] unsigned char 
  4305 ;; Auto vars:     Size  Location     Type
  4306 ;;  row             1    6[COMRAM] unsigned char 
  4307 ;; Return value:  Size  Location     Type
  4308 ;;                  1    wreg      void 
  4309 ;; Registers used:
  4310 ;;		wreg, status,2, status,0, cstack
  4311 ;; Tracked objects:
  4312 ;;		On entry : 0/0
  4313 ;;		On exit  : 0/0
  4314 ;;		Unchanged: 0/0
  4315 ;; Data sizes:     COMRAM   BANK0   BANK1   BANK2   BANK3   BANK4   BANK5   BANK6   BANK7   BANK8   BANK9  BANK10  BANK1
      +1  BANK12  BANK13  BANK14  BANK15
  4316 ;;      Params:         1       0       0       0       0       0       0       0       0       0       0       0       
      +0       0       0       0       0
  4317 ;;      Locals:         1       0       0       0       0       0       0       0       0       0       0       0       
      +0       0       0       0       0
  4318 ;;      Temps:          0       0       0       0       0       0       0       0       0       0       0       0       
      +0       0       0       0       0
  4319 ;;      Totals:         2       0       0       0       0       0       0       0       0       0       0       0       
      +0       0       0       0       0
  4320 ;;Total ram usage:        2 bytes
  4321 ;; Hardware stack levels used: 1
  4322 ;; Hardware stack levels required when called: 3
  4323 ;; This function calls:
  4324 ;;		_LCD_write_command
  4325 ;; This function is called by:
  4326 ;;		_welcome_splash
  4327 ;;		_display_mm
  4328 ;;		_main_menu
  4329 ;;		_print_RPM
  4330 ;;		_print_Vbatt
  4331 ;;		_print_AI_Temp
  4332 ;;		_print_ELMVer
  4333 ;;		_print_SAEVer
  4334 ;;		_LCD_add_character
  4335 ;; This function uses a non-reentrant model
  4336 ;;
  4337                           
  4338                           	psect	text27
  4339   001CE2                     __ptext27:
  4340                           	callstack 0
  4341   001CE2                     _LCD_cursor_set:
  4342                           	callstack 26
  4343                           
  4344                           ;incstack = 0
  4345                           ;LCD_cursor_set@row stored from wreg
  4346   001CE2  6E07               	movwf	LCD_cursor_set@row^0,c
  4347   001CE4                     
  4348                           ;LCD.c: 162:     if(row == 1) column += (0x80-1);
  4349   001CE4  0407               	decf	LCD_cursor_set@row^0,w,c
  4350   001CE6  A4D8               	btfss	status,2,c
  4351   001CE8  EF78  F00E         	goto	u1161
  4352   001CEC  EF7A  F00E         	goto	u1160
  4353   001CF0                     u1161:
  4354   001CF0  EF7C  F00E         	goto	l307
  4355   001CF4                     u1160:
  4356   001CF4  0E7F               	movlw	127
  4357   001CF6  2606               	addwf	LCD_cursor_set@column^0,f,c
  4358   001CF8                     l307:
  4359                           
  4360                           ;LCD.c: 163:     if(row == 2) column += (0xC0-1);
  4361   001CF8  0E02               	movlw	2
  4362   001CFA  1807               	xorwf	LCD_cursor_set@row^0,w,c
  4363   001CFC  A4D8               	btfss	status,2,c
  4364   001CFE  EF83  F00E         	goto	u1171
  4365   001D02  EF85  F00E         	goto	u1170
  4366   001D06                     u1171:
  4367   001D06  EF87  F00E         	goto	l308
  4368   001D0A                     u1170:
  4369   001D0A  0EBF               	movlw	191
  4370   001D0C  2606               	addwf	LCD_cursor_set@column^0,f,c
  4371   001D0E                     l308:
  4372                           
  4373                           ;LCD.c: 164:     if(row == 3) column += (0x80+19);
  4374   001D0E  0E03               	movlw	3
  4375   001D10  1807               	xorwf	LCD_cursor_set@row^0,w,c
  4376   001D12  A4D8               	btfss	status,2,c
  4377   001D14  EF8E  F00E         	goto	u1181
  4378   001D18  EF90  F00E         	goto	u1180
  4379   001D1C                     u1181:
  4380   001D1C  EF92  F00E         	goto	l309
  4381   001D20                     u1180:
  4382   001D20  0E93               	movlw	147
  4383   001D22  2606               	addwf	LCD_cursor_set@column^0,f,c
  4384   001D24                     l309:
  4385                           
  4386                           ;LCD.c: 165:     if(row == 4) column += (0xC0+19);
  4387   001D24  0E04               	movlw	4
  4388   001D26  1807               	xorwf	LCD_cursor_set@row^0,w,c
  4389   001D28  A4D8               	btfss	status,2,c
  4390   001D2A  EF99  F00E         	goto	u1191
  4391   001D2E  EF9B  F00E         	goto	u1190
  4392   001D32                     u1191:
  4393   001D32  EF9D  F00E         	goto	l2097
  4394   001D36                     u1190:
  4395   001D36  0ED3               	movlw	211
  4396   001D38  2606               	addwf	LCD_cursor_set@column^0,f,c
  4397   001D3A                     l2097:
  4398                           
  4399                           ;LCD.c: 168:    LCD_write_command(column);
  4400   001D3A  5006               	movf	LCD_cursor_set@column^0,w,c
  4401   001D3C  EC28  F00B         	call	_LCD_write_command
  4402   001D40  0012               	return		;funcret
  4403   001D42                     __end_of_LCD_cursor_set:
  4404                           	callstack 0
  4405                           
  4406 ;; *************** function _LCD_configure_cursor_blink *****************
  4407 ;; Defined at:
  4408 ;;		line 231 in file "LCD.c"
  4409 ;; Parameters:    Size  Location     Type
  4410 ;;  state           1    wreg     unsigned char 
  4411 ;; Auto vars:     Size  Location     Type
  4412 ;;  state           1    5[COMRAM] unsigned char 
  4413 ;; Return value:  Size  Location     Type
  4414 ;;                  1    wreg      void 
  4415 ;; Registers used:
  4416 ;;		wreg, status,2, status,0, cstack
  4417 ;; Tracked objects:
  4418 ;;		On entry : 0/0
  4419 ;;		On exit  : 0/0
  4420 ;;		Unchanged: 0/0
  4421 ;; Data sizes:     COMRAM   BANK0   BANK1   BANK2   BANK3   BANK4   BANK5   BANK6   BANK7   BANK8   BANK9  BANK10  BANK1
      +1  BANK12  BANK13  BANK14  BANK15
  4422 ;;      Params:         0       0       0       0       0       0       0       0       0       0       0       0       
      +0       0       0       0       0
  4423 ;;      Locals:         1       0       0       0       0       0       0       0       0       0       0       0       
      +0       0       0       0       0
  4424 ;;      Temps:          0       0       0       0       0       0       0       0       0       0       0       0       
      +0       0       0       0       0
  4425 ;;      Totals:         1       0       0       0       0       0       0       0       0       0       0       0       
      +0       0       0       0       0
  4426 ;;Total ram usage:        1 bytes
  4427 ;; Hardware stack levels used: 1
  4428 ;; Hardware stack levels required when called: 3
  4429 ;; This function calls:
  4430 ;;		_LCD_write_command
  4431 ;; This function is called by:
  4432 ;;		_main_menu
  4433 ;; This function uses a non-reentrant model
  4434 ;;
  4435                           
  4436                           	psect	text28
  4437   001FB8                     __ptext28:
  4438                           	callstack 0
  4439   001FB8                     _LCD_configure_cursor_blink:
  4440                           	callstack 26
  4441                           
  4442                           ;incstack = 0
  4443                           ;LCD_configure_cursor_blink@state stored from wreg
  4444   001FB8  6E06               	movwf	LCD_configure_cursor_blink@state^0,c
  4445   001FBA                     
  4446                           ;LCD.c: 234:     if(state){
  4447   001FBA  5006               	movf	LCD_configure_cursor_blink@state^0,w,c
  4448   001FBC  B4D8               	btfsc	status,2,c
  4449   001FBE  EFE3  F00F         	goto	u1381
  4450   001FC2  EFE5  F00F         	goto	u1380
  4451   001FC6                     u1381:
  4452   001FC6  EFE8  F00F         	goto	l2289
  4453   001FCA                     u1380:
  4454   001FCA                     
  4455                           ;LCD.c: 235:         LCD_display_control |= 0b00000001;
  4456   001FCA  805B               	bsf	_LCD_display_control^0,0,c
  4457                           
  4458                           ;LCD.c: 236:     }
  4459   001FCC  EFE9  F00F         	goto	l2291
  4460   001FD0                     l2289:
  4461                           
  4462                           ;LCD.c: 238:         LCD_display_control &= 0b11111110;
  4463   001FD0  905B               	bcf	_LCD_display_control^0,0,c
  4464   001FD2                     l2291:
  4465                           
  4466                           ;LCD.c: 242:     LCD_write_command(LCD_display_control);
  4467   001FD2  505B               	movf	_LCD_display_control^0,w,c
  4468   001FD4  EC28  F00B         	call	_LCD_write_command
  4469   001FD8  0012               	return		;funcret
  4470   001FDA                     __end_of_LCD_configure_cursor_blink:
  4471                           	callstack 0
  4472                           
  4473 ;; *************** function _input_init *****************
  4474 ;; Defined at:
  4475 ;;		line 88 in file "OBCII_PIC18F46K22.c"
  4476 ;; Parameters:    Size  Location     Type
  4477 ;;		None
  4478 ;; Auto vars:     Size  Location     Type
  4479 ;;		None
  4480 ;; Return value:  Size  Location     Type
  4481 ;;                  1    wreg      void 
  4482 ;; Registers used:
  4483 ;;		None
  4484 ;; Tracked objects:
  4485 ;;		On entry : 0/0
  4486 ;;		On exit  : 0/0
  4487 ;;		Unchanged: 0/0
  4488 ;; Data sizes:     COMRAM   BANK0   BANK1   BANK2   BANK3   BANK4   BANK5   BANK6   BANK7   BANK8   BANK9  BANK10  BANK1
      +1  BANK12  BANK13  BANK14  BANK15
  4489 ;;      Params:         0       0       0       0       0       0       0       0       0       0       0       0       
      +0       0       0       0       0
  4490 ;;      Locals:         0       0       0       0       0       0       0       0       0       0       0       0       
      +0       0       0       0       0
  4491 ;;      Temps:          0       0       0       0       0       0       0       0       0       0       0       0       
      +0       0       0       0       0
  4492 ;;      Totals:         0       0       0       0       0       0       0       0       0       0       0       0       
      +0       0       0       0       0
  4493 ;;Total ram usage:        0 bytes
  4494 ;; Hardware stack levels used: 1
  4495 ;; Hardware stack levels required when called: 1
  4496 ;; This function calls:
  4497 ;;		Nothing
  4498 ;; This function is called by:
  4499 ;;		_main
  4500 ;; This function uses a non-reentrant model
  4501 ;;
  4502                           
  4503                           	psect	text29
  4504   00202E                     __ptext29:
  4505                           	callstack 0
  4506   00202E                     _input_init:
  4507                           	callstack 29
  4508   00202E                     
  4509                           ;OBCII_PIC18F46K22.c: 91:     TRISBbits.TRISB4 = 1;
  4510   00202E  8893               	bsf	147,4,c	;volatile
  4511                           
  4512                           ;OBCII_PIC18F46K22.c: 92:     ANSELBbits.ANSB4 = 0;
  4513   002030  010F               	movlb	15	; () banked
  4514   002032  9939               	bcf	57,4,b	;volatile
  4515                           
  4516                           ;OBCII_PIC18F46K22.c: 94:     TRISCbits.TRISC5 = 1;
  4517   002034  8A94               	bsf	148,5,c	;volatile
  4518                           
  4519                           ;OBCII_PIC18F46K22.c: 95:     ANSELCbits.ANSC5 = 0;
  4520   002036  9B3A               	bcf	58,5,b	;volatile
  4521                           
  4522                           ;OBCII_PIC18F46K22.c: 97:     TRISAbits.TRISA0 = 1;
  4523   002038  8092               	bsf	146,0,c	;volatile
  4524                           
  4525                           ;OBCII_PIC18F46K22.c: 98:     ANSELAbits.ANSA0 = 1;
  4526   00203A  8138               	bsf	56,0,b	;volatile
  4527   00203C                     
  4528                           ; BSR set to: 15
  4529   00203C  0012               	return		;funcret
  4530   00203E                     __end_of_input_init:
  4531                           	callstack 0
  4532                           
  4533 ;; *************** function _UART1_Init *****************
  4534 ;; Defined at:
  4535 ;;		line 110 in file "OBCII_PIC18F46K22.c"
  4536 ;; Parameters:    Size  Location     Type
  4537 ;;		None
  4538 ;; Auto vars:     Size  Location     Type
  4539 ;;		None
  4540 ;; Return value:  Size  Location     Type
  4541 ;;                  1    wreg      void 
  4542 ;; Registers used:
  4543 ;;		wreg, status,2
  4544 ;; Tracked objects:
  4545 ;;		On entry : 0/0
  4546 ;;		On exit  : 0/0
  4547 ;;		Unchanged: 0/0
  4548 ;; Data sizes:     COMRAM   BANK0   BANK1   BANK2   BANK3   BANK4   BANK5   BANK6   BANK7   BANK8   BANK9  BANK10  BANK1
      +1  BANK12  BANK13  BANK14  BANK15
  4549 ;;      Params:         0       0       0       0       0       0       0       0       0       0       0       0       
      +0       0       0       0       0
  4550 ;;      Locals:         0       0       0       0       0       0       0       0       0       0       0       0       
      +0       0       0       0       0
  4551 ;;      Temps:          0       0       0       0       0       0       0       0       0       0       0       0       
      +0       0       0       0       0
  4552 ;;      Totals:         0       0       0       0       0       0       0       0       0       0       0       0       
      +0       0       0       0       0
  4553 ;;Total ram usage:        0 bytes
  4554 ;; Hardware stack levels used: 1
  4555 ;; Hardware stack levels required when called: 1
  4556 ;; This function calls:
  4557 ;;		Nothing
  4558 ;; This function is called by:
  4559 ;;		_main
  4560 ;; This function uses a non-reentrant model
  4561 ;;
  4562                           
  4563                           	psect	text30
  4564   001F66                     __ptext30:
  4565                           	callstack 0
  4566   001F66                     _UART1_Init:
  4567                           	callstack 29
  4568   001F66                     
  4569                           ;OBCII_PIC18F46K22.c: 111:     ANSELC = 0;
  4570   001F66  010F               	movlb	15	; () banked
  4571   001F68  6B3A               	clrf	58,b	;volatile
  4572                           
  4573                           ;OBCII_PIC18F46K22.c: 114:     TRISCbits.TRISC6 = 0;
  4574   001F6A  9C94               	bcf	148,6,c	;volatile
  4575                           
  4576                           ;OBCII_PIC18F46K22.c: 115:     TRISCbits.TRISC7 = 1;
  4577   001F6C  8E94               	bsf	148,7,c	;volatile
  4578                           
  4579                           ;OBCII_PIC18F46K22.c: 119:     TXSTA1bits.TXEN = 1;
  4580   001F6E  8AAC               	bsf	172,5,c	;volatile
  4581                           
  4582                           ;OBCII_PIC18F46K22.c: 120:     TXSTA1bits.TX9 = 0;
  4583   001F70  9CAC               	bcf	172,6,c	;volatile
  4584                           
  4585                           ;OBCII_PIC18F46K22.c: 121:     TXSTA1bits.SYNC = 0;
  4586   001F72  98AC               	bcf	172,4,c	;volatile
  4587                           
  4588                           ;OBCII_PIC18F46K22.c: 124:     TXSTA1bits.BRGH = 1;
  4589   001F74  84AC               	bsf	172,2,c	;volatile
  4590                           
  4591                           ;OBCII_PIC18F46K22.c: 125:     BAUDCON1bits.BRG16 = 1;
  4592   001F76  86B8               	bsf	184,3,c	;volatile
  4593   001F78                     
  4594                           ; BSR set to: 15
  4595                           ;OBCII_PIC18F46K22.c: 128:     SPBRGH1 = 0b00000001;
  4596   001F78  0E01               	movlw	1
  4597   001F7A  6EB0               	movwf	176,c	;volatile
  4598                           
  4599                           ;OBCII_PIC18F46K22.c: 129:     SPBRG1 = 0b10100000;
  4600   001F7C  0EA0               	movlw	160
  4601   001F7E  6EAF               	movwf	175,c	;volatile
  4602   001F80                     
  4603                           ; BSR set to: 15
  4604                           ;OBCII_PIC18F46K22.c: 132:     BAUDCON1bits.CKTXP = 0;
  4605   001F80  98B8               	bcf	184,4,c	;volatile
  4606   001F82                     
  4607                           ; BSR set to: 15
  4608                           ;OBCII_PIC18F46K22.c: 133:     BAUDCON1bits.DTRXP = 0;
  4609   001F82  9AB8               	bcf	184,5,c	;volatile
  4610   001F84                     
  4611                           ; BSR set to: 15
  4612                           ;OBCII_PIC18F46K22.c: 136:     RCSTA1bits.SPEN = 1;
  4613   001F84  8EAB               	bsf	171,7,c	;volatile
  4614   001F86                     
  4615                           ; BSR set to: 15
  4616                           ;OBCII_PIC18F46K22.c: 137:     RCSTA1bits.CREN = 1;
  4617   001F86  88AB               	bsf	171,4,c	;volatile
  4618   001F88                     
  4619                           ; BSR set to: 15
  4620                           ;OBCII_PIC18F46K22.c: 138:     RCSTA1bits.RX9 = 0;
  4621   001F88  9CAB               	bcf	171,6,c	;volatile
  4622   001F8A                     
  4623                           ; BSR set to: 15
  4624                           ;OBCII_PIC18F46K22.c: 141:     PIE1bits.RC1IE = 1;
  4625   001F8A  8A9D               	bsf	157,5,c	;volatile
  4626   001F8C                     
  4627                           ; BSR set to: 15
  4628                           ;OBCII_PIC18F46K22.c: 142:     INTCONbits.PEIE = 1;
  4629   001F8C  8CF2               	bsf	242,6,c	;volatile
  4630   001F8E                     
  4631                           ; BSR set to: 15
  4632                           ;OBCII_PIC18F46K22.c: 143:     INTCONbits.GIE = 1;
  4633   001F8E  8EF2               	bsf	242,7,c	;volatile
  4634   001F90                     
  4635                           ; BSR set to: 15
  4636   001F90  0012               	return		;funcret
  4637   001F92                     __end_of_UART1_Init:
  4638                           	callstack 0
  4639                           
  4640 ;; *************** function _LCD_init *****************
  4641 ;; Defined at:
  4642 ;;		line 106 in file "LCD.c"
  4643 ;; Parameters:    Size  Location     Type
  4644 ;;		None
  4645 ;; Auto vars:     Size  Location     Type
  4646 ;;		None
  4647 ;; Return value:  Size  Location     Type
  4648 ;;                  1    wreg      void 
  4649 ;; Registers used:
  4650 ;;		wreg, status,2, status,0, cstack
  4651 ;; Tracked objects:
  4652 ;;		On entry : 0/0
  4653 ;;		On exit  : 0/0
  4654 ;;		Unchanged: 0/0
  4655 ;; Data sizes:     COMRAM   BANK0   BANK1   BANK2   BANK3   BANK4   BANK5   BANK6   BANK7   BANK8   BANK9  BANK10  BANK1
      +1  BANK12  BANK13  BANK14  BANK15
  4656 ;;      Params:         0       0       0       0       0       0       0       0       0       0       0       0       
      +0       0       0       0       0
  4657 ;;      Locals:         0       0       0       0       0       0       0       0       0       0       0       0       
      +0       0       0       0       0
  4658 ;;      Temps:          2       0       0       0       0       0       0       0       0       0       0       0       
      +0       0       0       0       0
  4659 ;;      Totals:         2       0       0       0       0       0       0       0       0       0       0       0       
      +0       0       0       0       0
  4660 ;;Total ram usage:        2 bytes
  4661 ;; Hardware stack levels used: 1
  4662 ;; Hardware stack levels required when called: 4
  4663 ;; This function calls:
  4664 ;;		_LCD_clear
  4665 ;;		_LCD_pulse_clock
  4666 ;;		_LCD_write_command
  4667 ;; This function is called by:
  4668 ;;		_main
  4669 ;; This function uses a non-reentrant model
  4670 ;;
  4671                           
  4672                           	psect	text31
  4673   001AB2                     __ptext31:
  4674                           	callstack 0
  4675   001AB2                     _LCD_init:
  4676                           	callstack 26
  4677   001AB2                     
  4678                           ;LCD.c: 109:     TRISDbits.TRISD2 = 0; LATDbits.LATD2 = 0;
  4679   001AB2  9495               	bcf	149,2,c	;volatile
  4680   001AB4  948C               	bcf	140,2,c	;volatile
  4681                           
  4682                           ;LCD.c: 110:     TRISDbits.TRISD3 = 0; LATDbits.LATD3 = 0;
  4683   001AB6  9695               	bcf	149,3,c	;volatile
  4684   001AB8  968C               	bcf	140,3,c	;volatile
  4685                           
  4686                           ;LCD.c: 111:     TRISDbits.TRISD4 = 0; LATDbits.LATD4 = 0;
  4687   001ABA  9895               	bcf	149,4,c	;volatile
  4688   001ABC  988C               	bcf	140,4,c	;volatile
  4689                           
  4690                           ;LCD.c: 112:     TRISDbits.TRISD5 = 0; LATDbits.LATD5 = 0;
  4691   001ABE  9A95               	bcf	149,5,c	;volatile
  4692   001AC0  9A8C               	bcf	140,5,c	;volatile
  4693                           
  4694                           ;LCD.c: 113:     TRISDbits.TRISD6 = 0; LATDbits.LATD6 = 0;
  4695   001AC2  9C95               	bcf	149,6,c	;volatile
  4696   001AC4  9C8C               	bcf	140,6,c	;volatile
  4697                           
  4698                           ;LCD.c: 114:     TRISDbits.TRISD7 = 0; LATDbits.LATD7 = 0;
  4699   001AC6  9E95               	bcf	149,7,c	;volatile
  4700   001AC8  9E8C               	bcf	140,7,c	;volatile
  4701   001ACA                     
  4702                           ;LCD.c: 121:     _delay((unsigned long)((60)*(16000000/4000.0)));
  4703   001ACA  0E02               	movlw	2
  4704   001ACC  6E08               	movwf	(??_LCD_init+1)^0,c
  4705   001ACE  0E38               	movlw	56
  4706   001AD0  6E07               	movwf	??_LCD_init^0,c
  4707   001AD2  0EAD               	movlw	173
  4708   001AD4                     u1937:
  4709   001AD4  2EE8               	decfsz	wreg,f,c
  4710   001AD6  D7FE               	bra	u1937
  4711   001AD8  2E07               	decfsz	??_LCD_init^0,f,c
  4712   001ADA  D7FC               	bra	u1937
  4713   001ADC  2E08               	decfsz	(??_LCD_init+1)^0,f,c
  4714   001ADE  D7FA               	bra	u1937
  4715   001AE0  0000               	nop	
  4716   001AE2                     
  4717                           ;LCD.c: 124:     LATDbits.LATD7 = 0; LATDbits.LATD6 = 0; LATDbits.LATD5 = 1; LATDbits.LA
      +                          TD4 = 1;
  4718   001AE2  9E8C               	bcf	140,7,c	;volatile
  4719   001AE4  9C8C               	bcf	140,6,c	;volatile
  4720   001AE6  8A8C               	bsf	140,5,c	;volatile
  4721   001AE8  888C               	bsf	140,4,c	;volatile
  4722   001AEA                     
  4723                           ;LCD.c: 127:     LCD_pulse_clock();
  4724   001AEA  EC1F  F010         	call	_LCD_pulse_clock	;wreg free
  4725   001AEE                     
  4726                           ;LCD.c: 130:     _delay((unsigned long)((6)*(16000000/4000.0)));
  4727   001AEE  0E20               	movlw	32
  4728   001AF0  6E07               	movwf	??_LCD_init^0,c
  4729   001AF2  0E2A               	movlw	42
  4730   001AF4                     u1947:
  4731   001AF4  2EE8               	decfsz	wreg,f,c
  4732   001AF6  D7FE               	bra	u1947
  4733   001AF8  2E07               	decfsz	??_LCD_init^0,f,c
  4734   001AFA  D7FC               	bra	u1947
  4735                           
  4736                           ;LCD.c: 133:     LCD_pulse_clock();
  4737   001AFC  EC1F  F010         	call	_LCD_pulse_clock	;wreg free
  4738   001B00                     
  4739                           ;LCD.c: 136:     _delay((unsigned long)((150)*(16000000/4000000.0)));
  4740   001B00  0EC8               	movlw	200
  4741   001B02                     u1957:
  4742   001B02  2EE8               	decfsz	wreg,f,c
  4743   001B04  D7FE               	bra	u1957
  4744   001B06                     
  4745                           ;LCD.c: 139:     LCD_pulse_clock();
  4746   001B06  EC1F  F010         	call	_LCD_pulse_clock	;wreg free
  4747   001B0A                     
  4748                           ;LCD.c: 142:     LATDbits.LATD7 = 0; LATDbits.LATD6 = 0; LATDbits.LATD5 = 1; LATDbits.LA
      +                          TD4 = 0;
  4749   001B0A  9E8C               	bcf	140,7,c	;volatile
  4750   001B0C  9C8C               	bcf	140,6,c	;volatile
  4751   001B0E  8A8C               	bsf	140,5,c	;volatile
  4752   001B10  988C               	bcf	140,4,c	;volatile
  4753   001B12                     
  4754                           ;LCD.c: 145:     LCD_pulse_clock();
  4755   001B12  EC1F  F010         	call	_LCD_pulse_clock	;wreg free
  4756   001B16                     
  4757                           ;LCD.c: 148:     LCD_write_command(0x28);
  4758   001B16  0E28               	movlw	40
  4759   001B18  EC28  F00B         	call	_LCD_write_command
  4760   001B1C                     
  4761                           ;LCD.c: 149:     LCD_write_command(LCD_display_control);
  4762   001B1C  505B               	movf	_LCD_display_control^0,w,c
  4763   001B1E  EC28  F00B         	call	_LCD_write_command
  4764   001B22                     
  4765                           ;LCD.c: 150:     LCD_write_command(LCD_entry_mode);
  4766   001B22  505A               	movf	_LCD_entry_mode^0,w,c
  4767   001B24  EC28  F00B         	call	_LCD_write_command
  4768   001B28                     
  4769                           ;LCD.c: 151:     LCD_clear();
  4770   001B28  ECED  F00F         	call	_LCD_clear	;wreg free
  4771   001B2C  0012               	return		;funcret
  4772   001B2E                     __end_of_LCD_init:
  4773                           	callstack 0
  4774                           
  4775 ;; *************** function _LCD_clear *****************
  4776 ;; Defined at:
  4777 ;;		line 248 in file "LCD.c"
  4778 ;; Parameters:    Size  Location     Type
  4779 ;;		None
  4780 ;; Auto vars:     Size  Location     Type
  4781 ;;		None
  4782 ;; Return value:  Size  Location     Type
  4783 ;;                  1    wreg      void 
  4784 ;; Registers used:
  4785 ;;		wreg, status,2, status,0, cstack
  4786 ;; Tracked objects:
  4787 ;;		On entry : 0/0
  4788 ;;		On exit  : 0/0
  4789 ;;		Unchanged: 0/0
  4790 ;; Data sizes:     COMRAM   BANK0   BANK1   BANK2   BANK3   BANK4   BANK5   BANK6   BANK7   BANK8   BANK9  BANK10  BANK1
      +1  BANK12  BANK13  BANK14  BANK15
  4791 ;;      Params:         0       0       0       0       0       0       0       0       0       0       0       0       
      +0       0       0       0       0
  4792 ;;      Locals:         0       0       0       0       0       0       0       0       0       0       0       0       
      +0       0       0       0       0
  4793 ;;      Temps:          1       0       0       0       0       0       0       0       0       0       0       0       
      +0       0       0       0       0
  4794 ;;      Totals:         1       0       0       0       0       0       0       0       0       0       0       0       
      +0       0       0       0       0
  4795 ;;Total ram usage:        1 bytes
  4796 ;; Hardware stack levels used: 1
  4797 ;; Hardware stack levels required when called: 3
  4798 ;; This function calls:
  4799 ;;		_LCD_write_command
  4800 ;; This function is called by:
  4801 ;;		_main
  4802 ;;		_main_menu
  4803 ;;		_LCD_init
  4804 ;; This function uses a non-reentrant model
  4805 ;;
  4806                           
  4807                           	psect	text32
  4808   001FDA                     __ptext32:
  4809                           	callstack 0
  4810   001FDA                     _LCD_clear:
  4811                           	callstack 26
  4812   001FDA                     
  4813                           ;LCD.c: 251:     LCD_write_command(0x01);
  4814   001FDA  0E01               	movlw	1
  4815   001FDC  EC28  F00B         	call	_LCD_write_command
  4816   001FE0                     
  4817                           ;LCD.c: 254:     _delay((unsigned long)(((2300-60))*(16000000/4000000.0)));
  4818   001FE0  0E0C               	movlw	12
  4819   001FE2  6E06               	movwf	??_LCD_clear^0,c
  4820   001FE4  0EA2               	movlw	162
  4821   001FE6                     u1967:
  4822   001FE6  2EE8               	decfsz	wreg,f,c
  4823   001FE8  D7FE               	bra	u1967
  4824   001FEA  2E06               	decfsz	??_LCD_clear^0,f,c
  4825   001FEC  D7FC               	bra	u1967
  4826   001FEE                     
  4827                           ;LCD.c: 257:     LCD_write_command(LCD_entry_mode);
  4828   001FEE  505A               	movf	_LCD_entry_mode^0,w,c
  4829   001FF0  EC28  F00B         	call	_LCD_write_command
  4830   001FF4  0012               	return		;funcret
  4831   001FF6                     __end_of_LCD_clear:
  4832                           	callstack 0
  4833                           
  4834 ;; *************** function _LCD_write_command *****************
  4835 ;; Defined at:
  4836 ;;		line 46 in file "LCD.c"
  4837 ;; Parameters:    Size  Location     Type
  4838 ;;  command         1    wreg     unsigned char 
  4839 ;; Auto vars:     Size  Location     Type
  4840 ;;  command         1    4[COMRAM] unsigned char 
  4841 ;; Return value:  Size  Location     Type
  4842 ;;                  1    wreg      void 
  4843 ;; Registers used:
  4844 ;;		wreg, status,2, status,0, cstack
  4845 ;; Tracked objects:
  4846 ;;		On entry : 0/0
  4847 ;;		On exit  : 0/0
  4848 ;;		Unchanged: 0/0
  4849 ;; Data sizes:     COMRAM   BANK0   BANK1   BANK2   BANK3   BANK4   BANK5   BANK6   BANK7   BANK8   BANK9  BANK10  BANK1
      +1  BANK12  BANK13  BANK14  BANK15
  4850 ;;      Params:         0       0       0       0       0       0       0       0       0       0       0       0       
      +0       0       0       0       0
  4851 ;;      Locals:         1       0       0       0       0       0       0       0       0       0       0       0       
      +0       0       0       0       0
  4852 ;;      Temps:          2       0       0       0       0       0       0       0       0       0       0       0       
      +0       0       0       0       0
  4853 ;;      Totals:         3       0       0       0       0       0       0       0       0       0       0       0       
      +0       0       0       0       0
  4854 ;;Total ram usage:        3 bytes
  4855 ;; Hardware stack levels used: 1
  4856 ;; Hardware stack levels required when called: 2
  4857 ;; This function calls:
  4858 ;;		_LCD_pulse_clock
  4859 ;; This function is called by:
  4860 ;;		_LCD_init
  4861 ;;		_LCD_cursor_set
  4862 ;;		_LCD_configure_cursor_blink
  4863 ;;		_LCD_clear
  4864 ;;		_LCD_cursor_increment
  4865 ;;		_LCD_cursor_decrement
  4866 ;;		_LCD_configure_lcd_display
  4867 ;;		_LCD_configure_cursor_display
  4868 ;;		_LCD_shift_reset
  4869 ;;		_LCD_shift_left
  4870 ;;		_LCD_shift_right
  4871 ;;		_LCD_configure_entry_id
  4872 ;;		_LCD_configure_entry_shift
  4873 ;;		_LCD_add_character
  4874 ;; This function uses a non-reentrant model
  4875 ;;
  4876                           
  4877                           	psect	text33
  4878   001650                     __ptext33:
  4879                           	callstack 0
  4880   001650                     _LCD_write_command:
  4881                           	callstack 26
  4882                           
  4883                           ;incstack = 0
  4884                           ;LCD_write_command@command stored from wreg
  4885   001650  6E05               	movwf	LCD_write_command@command^0,c
  4886   001652                     
  4887                           ;LCD.c: 48:     LATDbits.LATD2 = 0;
  4888   001652  948C               	bcf	140,2,c	;volatile
  4889   001654                     
  4890                           ;LCD.c: 51:     LATDbits.LATD7 = (command & 0b10000000) >> 7;
  4891   001654  6A03               	clrf	??_LCD_write_command^0,c
  4892   001656  AE05               	btfss	LCD_write_command@command^0,7,c
  4893   001658  D001               	bra	u1085
  4894   00165A  2A03               	incf	??_LCD_write_command^0,f,c
  4895   00165C                     u1085:
  4896   00165C  0E01               	movlw	1
  4897   00165E  1603               	andwf	??_LCD_write_command^0,f,c
  4898   001660  3203               	rrcf	??_LCD_write_command^0,f,c
  4899   001662  3203               	rrcf	??_LCD_write_command^0,f,c
  4900   001664  508C               	movf	140,w,c	;volatile
  4901   001666  1803               	xorwf	??_LCD_write_command^0,w,c
  4902   001668  0B7F               	andlw	-129
  4903   00166A  1803               	xorwf	??_LCD_write_command^0,w,c
  4904   00166C  6E8C               	movwf	140,c	;volatile
  4905                           
  4906                           ;LCD.c: 52:     LATDbits.LATD6 = (command & 0b01000000) >> 6;
  4907   00166E  C005  F003         	movff	LCD_write_command@command,??_LCD_write_command
  4908   001672  0E06               	movlw	6
  4909   001674  6E04               	movwf	(??_LCD_write_command+1)^0,c
  4910   001676                     u1095:
  4911   001676  90D8               	bcf	status,0,c
  4912   001678  3203               	rrcf	??_LCD_write_command^0,f,c
  4913   00167A  2E04               	decfsz	(??_LCD_write_command+1)^0,f,c
  4914   00167C  EF3B  F00B         	goto	u1095
  4915   001680  0E01               	movlw	1
  4916   001682  1603               	andwf	??_LCD_write_command^0,f,c
  4917   001684  3A03               	swapf	??_LCD_write_command^0,f,c
  4918   001686  4603               	rlncf	??_LCD_write_command^0,f,c
  4919   001688  4603               	rlncf	??_LCD_write_command^0,f,c
  4920   00168A  508C               	movf	140,w,c	;volatile
  4921   00168C  1803               	xorwf	??_LCD_write_command^0,w,c
  4922   00168E  0BBF               	andlw	-65
  4923   001690  1803               	xorwf	??_LCD_write_command^0,w,c
  4924   001692  6E8C               	movwf	140,c	;volatile
  4925                           
  4926                           ;LCD.c: 53:     LATDbits.LATD5 = (command & 0b00100000) >> 5;
  4927   001694  C005  F003         	movff	LCD_write_command@command,??_LCD_write_command
  4928   001698  0E05               	movlw	5
  4929   00169A  6E04               	movwf	(??_LCD_write_command+1)^0,c
  4930   00169C                     u1105:
  4931   00169C  90D8               	bcf	status,0,c
  4932   00169E  3203               	rrcf	??_LCD_write_command^0,f,c
  4933   0016A0  2E04               	decfsz	(??_LCD_write_command+1)^0,f,c
  4934   0016A2  EF4E  F00B         	goto	u1105
  4935   0016A6  0E01               	movlw	1
  4936   0016A8  1603               	andwf	??_LCD_write_command^0,f,c
  4937   0016AA  3A03               	swapf	??_LCD_write_command^0,f,c
  4938   0016AC  4603               	rlncf	??_LCD_write_command^0,f,c
  4939   0016AE  508C               	movf	140,w,c	;volatile
  4940   0016B0  1803               	xorwf	??_LCD_write_command^0,w,c
  4941   0016B2  0BDF               	andlw	-33
  4942   0016B4  1803               	xorwf	??_LCD_write_command^0,w,c
  4943   0016B6  6E8C               	movwf	140,c	;volatile
  4944                           
  4945                           ;LCD.c: 54:     LATDbits.LATD4 = (command & 0b00010000) >> 4;
  4946   0016B8  C005  F003         	movff	LCD_write_command@command,??_LCD_write_command
  4947   0016BC  3A03               	swapf	??_LCD_write_command^0,f,c
  4948   0016BE  0E0F               	movlw	15
  4949   0016C0  1603               	andwf	??_LCD_write_command^0,f,c
  4950   0016C2  0E01               	movlw	1
  4951   0016C4  1603               	andwf	??_LCD_write_command^0,f,c
  4952   0016C6  3A03               	swapf	??_LCD_write_command^0,f,c
  4953   0016C8  508C               	movf	140,w,c	;volatile
  4954   0016CA  1803               	xorwf	??_LCD_write_command^0,w,c
  4955   0016CC  0BEF               	andlw	-17
  4956   0016CE  1803               	xorwf	??_LCD_write_command^0,w,c
  4957   0016D0  6E8C               	movwf	140,c	;volatile
  4958   0016D2                     
  4959                           ;LCD.c: 57:     LCD_pulse_clock();
  4960   0016D2  EC1F  F010         	call	_LCD_pulse_clock	;wreg free
  4961   0016D6                     
  4962                           ;LCD.c: 60:     LATDbits.LATD7 = (command & 0b00001000) >> 3;
  4963   0016D6  C005  F003         	movff	LCD_write_command@command,??_LCD_write_command
  4964   0016DA  90D8               	bcf	status,0,c
  4965   0016DC  3203               	rrcf	??_LCD_write_command^0,f,c
  4966   0016DE  90D8               	bcf	status,0,c
  4967   0016E0  3203               	rrcf	??_LCD_write_command^0,f,c
  4968   0016E2  90D8               	bcf	status,0,c
  4969   0016E4  3203               	rrcf	??_LCD_write_command^0,f,c
  4970   0016E6  0E01               	movlw	1
  4971   0016E8  1603               	andwf	??_LCD_write_command^0,f,c
  4972   0016EA  3203               	rrcf	??_LCD_write_command^0,f,c
  4973   0016EC  3203               	rrcf	??_LCD_write_command^0,f,c
  4974   0016EE  508C               	movf	140,w,c	;volatile
  4975   0016F0  1803               	xorwf	??_LCD_write_command^0,w,c
  4976   0016F2  0B7F               	andlw	-129
  4977   0016F4  1803               	xorwf	??_LCD_write_command^0,w,c
  4978   0016F6  6E8C               	movwf	140,c	;volatile
  4979   0016F8                     
  4980                           ;LCD.c: 61:     LATDbits.LATD6 = (command & 0b00000100) >> 2;
  4981   0016F8  C005  F003         	movff	LCD_write_command@command,??_LCD_write_command
  4982   0016FC  90D8               	bcf	status,0,c
  4983   0016FE  3203               	rrcf	??_LCD_write_command^0,f,c
  4984   001700  90D8               	bcf	status,0,c
  4985   001702  3203               	rrcf	??_LCD_write_command^0,f,c
  4986   001704  0E01               	movlw	1
  4987   001706  1603               	andwf	??_LCD_write_command^0,f,c
  4988   001708  3A03               	swapf	??_LCD_write_command^0,f,c
  4989   00170A  4603               	rlncf	??_LCD_write_command^0,f,c
  4990   00170C  4603               	rlncf	??_LCD_write_command^0,f,c
  4991   00170E  508C               	movf	140,w,c	;volatile
  4992   001710  1803               	xorwf	??_LCD_write_command^0,w,c
  4993   001712  0BBF               	andlw	-65
  4994   001714  1803               	xorwf	??_LCD_write_command^0,w,c
  4995   001716  6E8C               	movwf	140,c	;volatile
  4996   001718                     
  4997                           ;LCD.c: 62:     LATDbits.LATD5 = (command & 0b00000010) >> 1;
  4998   001718  C005  F003         	movff	LCD_write_command@command,??_LCD_write_command
  4999   00171C  90D8               	bcf	status,0,c
  5000   00171E  3203               	rrcf	??_LCD_write_command^0,f,c
  5001   001720  0E01               	movlw	1
  5002   001722  1603               	andwf	??_LCD_write_command^0,f,c
  5003   001724  3A03               	swapf	??_LCD_write_command^0,f,c
  5004   001726  4603               	rlncf	??_LCD_write_command^0,f,c
  5005   001728  508C               	movf	140,w,c	;volatile
  5006   00172A  1803               	xorwf	??_LCD_write_command^0,w,c
  5007   00172C  0BDF               	andlw	-33
  5008   00172E  1803               	xorwf	??_LCD_write_command^0,w,c
  5009   001730  6E8C               	movwf	140,c	;volatile
  5010   001732                     
  5011                           ;LCD.c: 63:     LATDbits.LATD4 = (command & 0b00000001) ;
  5012   001732  C005  F003         	movff	LCD_write_command@command,??_LCD_write_command
  5013   001736  0E01               	movlw	1
  5014   001738  1603               	andwf	??_LCD_write_command^0,f,c
  5015   00173A  3A03               	swapf	??_LCD_write_command^0,f,c
  5016   00173C  508C               	movf	140,w,c	;volatile
  5017   00173E  1803               	xorwf	??_LCD_write_command^0,w,c
  5018   001740  0BEF               	andlw	-17
  5019   001742  1803               	xorwf	??_LCD_write_command^0,w,c
  5020   001744  6E8C               	movwf	140,c	;volatile
  5021   001746                     
  5022                           ;LCD.c: 66:     LCD_pulse_clock();
  5023   001746  EC1F  F010         	call	_LCD_pulse_clock	;wreg free
  5024   00174A  0012               	return		;funcret
  5025   00174C                     __end_of_LCD_write_command:
  5026                           	callstack 0
  5027                           
  5028 ;; *************** function _LCD_pulse_clock *****************
  5029 ;; Defined at:
  5030 ;;		line 34 in file "LCD.c"
  5031 ;; Parameters:    Size  Location     Type
  5032 ;;		None
  5033 ;; Auto vars:     Size  Location     Type
  5034 ;;		None
  5035 ;; Return value:  Size  Location     Type
  5036 ;;                  1    wreg      void 
  5037 ;; Registers used:
  5038 ;;		wreg
  5039 ;; Tracked objects:
  5040 ;;		On entry : 0/0
  5041 ;;		On exit  : 0/0
  5042 ;;		Unchanged: 0/0
  5043 ;; Data sizes:     COMRAM   BANK0   BANK1   BANK2   BANK3   BANK4   BANK5   BANK6   BANK7   BANK8   BANK9  BANK10  BANK1
      +1  BANK12  BANK13  BANK14  BANK15
  5044 ;;      Params:         0       0       0       0       0       0       0       0       0       0       0       0       
      +0       0       0       0       0
  5045 ;;      Locals:         0       0       0       0       0       0       0       0       0       0       0       0       
      +0       0       0       0       0
  5046 ;;      Temps:          0       0       0       0       0       0       0       0       0       0       0       0       
      +0       0       0       0       0
  5047 ;;      Totals:         0       0       0       0       0       0       0       0       0       0       0       0       
      +0       0       0       0       0
  5048 ;;Total ram usage:        0 bytes
  5049 ;; Hardware stack levels used: 1
  5050 ;; Hardware stack levels required when called: 1
  5051 ;; This function calls:
  5052 ;;		Nothing
  5053 ;; This function is called by:
  5054 ;;		_LCD_write_command
  5055 ;;		_LCD_write_data
  5056 ;;		_LCD_init
  5057 ;; This function uses a non-reentrant model
  5058 ;;
  5059                           
  5060                           	psect	text34
  5061   00203E                     __ptext34:
  5062                           	callstack 0
  5063   00203E                     _LCD_pulse_clock:
  5064                           	callstack 26
  5065   00203E                     
  5066                           ;LCD.c: 36:   LATDbits.LATD3 = 1;
  5067   00203E  868C               	bsf	140,3,c	;volatile
  5068   002040                     
  5069                           ;LCD.c: 37:   _delay((unsigned long)((60)*(16000000/4000000.0)));
  5070   002040  0E50               	movlw	80
  5071   002042                     u1977:
  5072   002042  2EE8               	decfsz	wreg,f,c
  5073   002044  D7FE               	bra	u1977
  5074   002046                     
  5075                           ;LCD.c: 38:   LATDbits.LATD3 = 0;
  5076   002046  968C               	bcf	140,3,c	;volatile
  5077   002048  0012               	return		;funcret
  5078   00204A                     __end_of_LCD_pulse_clock:
  5079                           	callstack 0
  5080                           
  5081 ;; *************** function _ADC_init *****************
  5082 ;; Defined at:
  5083 ;;		line 102 in file "OBCII_PIC18F46K22.c"
  5084 ;; Parameters:    Size  Location     Type
  5085 ;;		None
  5086 ;; Auto vars:     Size  Location     Type
  5087 ;;		None
  5088 ;; Return value:  Size  Location     Type
  5089 ;;                  1    wreg      void 
  5090 ;; Registers used:
  5091 ;;		wreg, status,2
  5092 ;; Tracked objects:
  5093 ;;		On entry : 0/0
  5094 ;;		On exit  : 0/0
  5095 ;;		Unchanged: 0/0
  5096 ;; Data sizes:     COMRAM   BANK0   BANK1   BANK2   BANK3   BANK4   BANK5   BANK6   BANK7   BANK8   BANK9  BANK10  BANK1
      +1  BANK12  BANK13  BANK14  BANK15
  5097 ;;      Params:         0       0       0       0       0       0       0       0       0       0       0       0       
      +0       0       0       0       0
  5098 ;;      Locals:         0       0       0       0       0       0       0       0       0       0       0       0       
      +0       0       0       0       0
  5099 ;;      Temps:          0       0       0       0       0       0       0       0       0       0       0       0       
      +0       0       0       0       0
  5100 ;;      Totals:         0       0       0       0       0       0       0       0       0       0       0       0       
      +0       0       0       0       0
  5101 ;;Total ram usage:        0 bytes
  5102 ;; Hardware stack levels used: 1
  5103 ;; Hardware stack levels required when called: 1
  5104 ;; This function calls:
  5105 ;;		Nothing
  5106 ;; This function is called by:
  5107 ;;		_main
  5108 ;; This function uses a non-reentrant model
  5109 ;;
  5110                           
  5111                           	psect	text35
  5112   00204A                     __ptext35:
  5113                           	callstack 0
  5114   00204A                     _ADC_init:
  5115                           	callstack 29
  5116   00204A                     
  5117                           ;OBCII_PIC18F46K22.c: 104:     ADCON0 = 0b00000001;
  5118   00204A  0E01               	movlw	1
  5119   00204C  6EC2               	movwf	194,c	;volatile
  5120   00204E                     
  5121                           ;OBCII_PIC18F46K22.c: 105:     ADCON1 = 0b00000000;
  5122   00204E  6AC1               	clrf	193,c	;volatile
  5123                           
  5124                           ;OBCII_PIC18F46K22.c: 106:     ADCON2 = 0b10101010;
  5125   002050  0EAA               	movlw	170
  5126   002052  6EC0               	movwf	192,c	;volatile
  5127   002054  0012               	return		;funcret
  5128   002056                     __end_of_ADC_init:
  5129                           	callstack 0
  5130                           
  5131 ;; *************** function _UART_ISR *****************
  5132 ;; Defined at:
  5133 ;;		line 146 in file "OBCII_PIC18F46K22.c"
  5134 ;; Parameters:    Size  Location     Type
  5135 ;;		None
  5136 ;; Auto vars:     Size  Location     Type
  5137 ;;		None
  5138 ;; Return value:  Size  Location     Type
  5139 ;;                  1    wreg      void 
  5140 ;; Registers used:
  5141 ;;		wreg, fsr2l, fsr2h, status,2, status,0
  5142 ;; Tracked objects:
  5143 ;;		On entry : 0/0
  5144 ;;		On exit  : 0/0
  5145 ;;		Unchanged: 0/0
  5146 ;; Data sizes:     COMRAM   BANK0   BANK1   BANK2   BANK3   BANK4   BANK5   BANK6   BANK7   BANK8   BANK9  BANK10  BANK1
      +1  BANK12  BANK13  BANK14  BANK15
  5147 ;;      Params:         0       0       0       0       0       0       0       0       0       0       0       0       
      +0       0       0       0       0
  5148 ;;      Locals:         0       0       0       0       0       0       0       0       0       0       0       0       
      +0       0       0       0       0
  5149 ;;      Temps:          2       0       0       0       0       0       0       0       0       0       0       0       
      +0       0       0       0       0
  5150 ;;      Totals:         2       0       0       0       0       0       0       0       0       0       0       0       
      +0       0       0       0       0
  5151 ;;Total ram usage:        2 bytes
  5152 ;; Hardware stack levels used: 1
  5153 ;; This function calls:
  5154 ;;		Nothing
  5155 ;; This function is called by:
  5156 ;;		Interrupt level 2
  5157 ;; This function uses a non-reentrant model
  5158 ;;
  5159                           
  5160                           	psect	intcode
  5161   000008                     __pintcode:
  5162                           	callstack 0
  5163   000008                     _UART_ISR:
  5164                           	callstack 22
  5165                           
  5166                           ;incstack = 0
  5167   000008  825C               	bsf	int$flags,1,c	;set compiler interrupt flag (level 2)
  5168   00000A  CFD9 F001          	movff	fsr2l,??_UART_ISR
  5169   00000E  CFDA F002          	movff	fsr2h,??_UART_ISR+1
  5170   000012                     
  5171                           ;OBCII_PIC18F46K22.c: 147:     if (PIE1bits.RC1IE && PIR1bits.RC1IF) {
  5172   000012  AA9D               	btfss	157,5,c	;volatile
  5173   000014  EF0E  F000         	goto	i2u165_41
  5174   000018  EF10  F000         	goto	i2u165_40
  5175   00001C                     i2u165_41:
  5176   00001C  EF63  F000         	goto	i2l148
  5177   000020                     i2u165_40:
  5178   000020  AA9E               	btfss	158,5,c	;volatile
  5179   000022  EF15  F000         	goto	i2u166_41
  5180   000026  EF17  F000         	goto	i2u166_40
  5181   00002A                     i2u166_41:
  5182   00002A  EF63  F000         	goto	i2l148
  5183   00002E                     i2u166_40:
  5184   00002E                     
  5185                           ;OBCII_PIC18F46K22.c: 148:         RX_char = RCREG1;
  5186   00002E  CFAE F048          	movff	4014,_RX_char	;volatile
  5187                           
  5188                           ;OBCII_PIC18F46K22.c: 151:         if (RCSTAbits.OERR) {
  5189   000032  A2AB               	btfss	171,1,c	;volatile
  5190   000034  EF1E  F000         	goto	i2u167_41
  5191   000038  EF20  F000         	goto	i2u167_40
  5192   00003C                     i2u167_41:
  5193   00003C  EF22  F000         	goto	i2l2547
  5194   000040                     i2u167_40:
  5195   000040                     
  5196                           ;OBCII_PIC18F46K22.c: 152:             RCSTAbits.CREN = 0;
  5197   000040  98AB               	bcf	171,4,c	;volatile
  5198                           
  5199                           ;OBCII_PIC18F46K22.c: 153:             RCSTAbits.CREN = 1;
  5200   000042  88AB               	bsf	171,4,c	;volatile
  5201   000044                     i2l2547:
  5202                           
  5203                           ;OBCII_PIC18F46K22.c: 157:         if ((RX_char >= 32 && RX_char <= 126) && RX_char != '
      +                          >') {
  5204   000044  0E1F               	movlw	31
  5205   000046  6448               	cpfsgt	_RX_char^0,c
  5206   000048  EF28  F000         	goto	i2u168_41
  5207   00004C  EF2A  F000         	goto	i2u168_40
  5208   000050                     i2u168_41:
  5209   000050  EF42  F000         	goto	i2l2557
  5210   000054                     i2u168_40:
  5211   000054  0E7F               	movlw	127
  5212   000056  6048               	cpfslt	_RX_char^0,c
  5213   000058  EF30  F000         	goto	i2u169_41
  5214   00005C  EF32  F000         	goto	i2u169_40
  5215   000060                     i2u169_41:
  5216   000060  EF42  F000         	goto	i2l2557
  5217   000064                     i2u169_40:
  5218   000064  0E3E               	movlw	62
  5219   000066  1848               	xorwf	_RX_char^0,w,c
  5220   000068  B4D8               	btfsc	status,2,c
  5221   00006A  EF39  F000         	goto	i2u170_41
  5222   00006E  EF3B  F000         	goto	i2u170_40
  5223   000072                     i2u170_41:
  5224   000072  EF42  F000         	goto	i2l2557
  5225   000076                     i2u170_40:
  5226   000076                     
  5227                           ;OBCII_PIC18F46K22.c: 158:             buffer[buffer_count] = RX_char;
  5228   000076  5049               	movf	_buffer_count^0,w,c
  5229   000078  0F80               	addlw	low _buffer
  5230   00007A  6ED9               	movwf	fsr2l,c
  5231   00007C  6ADA               	clrf	fsr2h,c
  5232   00007E  C048  FFDF         	movff	_RX_char,indf2
  5233   000082                     
  5234                           ;OBCII_PIC18F46K22.c: 159:             buffer_count++;
  5235   000082  2A49               	incf	_buffer_count^0,f,c
  5236   000084                     i2l2557:
  5237                           
  5238                           ;OBCII_PIC18F46K22.c: 162:         if (RX_char == '>' || RX_char == '\n' || buffer_count
      +                           >= 32 -1) {
  5239   000084  0E3E               	movlw	62
  5240   000086  1848               	xorwf	_RX_char^0,w,c
  5241   000088  B4D8               	btfsc	status,2,c
  5242   00008A  EF49  F000         	goto	i2u171_41
  5243   00008E  EF4B  F000         	goto	i2u171_40
  5244   000092                     i2u171_41:
  5245   000092  EF5C  F000         	goto	i2l2563
  5246   000096                     i2u171_40:
  5247   000096  0E0A               	movlw	10
  5248   000098  1848               	xorwf	_RX_char^0,w,c
  5249   00009A  B4D8               	btfsc	status,2,c
  5250   00009C  EF52  F000         	goto	i2u172_41
  5251   0000A0  EF54  F000         	goto	i2u172_40
  5252   0000A4                     i2u172_41:
  5253   0000A4  EF5C  F000         	goto	i2l2563
  5254   0000A8                     i2u172_40:
  5255   0000A8  0E1E               	movlw	30
  5256   0000AA  6449               	cpfsgt	_buffer_count^0,c
  5257   0000AC  EF5A  F000         	goto	i2u173_41
  5258   0000B0  EF5C  F000         	goto	i2u173_40
  5259   0000B4                     i2u173_41:
  5260   0000B4  EF63  F000         	goto	i2l148
  5261   0000B8                     i2u173_40:
  5262   0000B8                     i2l2563:
  5263                           
  5264                           ;OBCII_PIC18F46K22.c: 163:             buffer[buffer_count] = '\0';
  5265   0000B8  5049               	movf	_buffer_count^0,w,c
  5266   0000BA  0F80               	addlw	low _buffer
  5267   0000BC  6ED9               	movwf	fsr2l,c
  5268   0000BE  6ADA               	clrf	fsr2h,c
  5269   0000C0  6ADF               	clrf	indf2,c
  5270   0000C2                     
  5271                           ;OBCII_PIC18F46K22.c: 164:             message_complete = 1;
  5272   0000C2  0E01               	movlw	1
  5273   0000C4  6E47               	movwf	_message_complete^0,c	;volatile
  5274   0000C6                     i2l148:
  5275   0000C6  C002  FFDA         	movff	??_UART_ISR+1,fsr2h
  5276   0000CA  C001  FFD9         	movff	??_UART_ISR,fsr2l
  5277   0000CE  925C               	bcf	int$flags,1,c	;clear compiler interrupt flag (level 2)
  5278   0000D0  0011               	retfie		f
  5279   0000D2                     __end_of_UART_ISR:
  5280                           	callstack 0
  5281                           
  5282                           	psect	rparam
  5283   000001                     ___rparam_used  equ	1
  5284   000000                     ___param_bank   equ	0
  5285   000000                     __Lparam        equ	__Lrparam
  5286   000000                     __Hparam        equ	__Hrparam
  5287                           
  5288                           	psect	temp
  5289   00005C                     btemp:
  5290                           	callstack 0
  5291   00005C                     	ds	1
  5292   00005C                     int$flags       set	btemp
  5293   00005D                     wtemp8          set	btemp+1
  5294   00005D                     ttemp5          set	btemp+1
  5295   000060                     ttemp6          set	btemp+4
  5296   000064                     ttemp7          set	btemp+8
  5297                           
  5298                           	psect	config
  5299                           
  5300                           ; Padding undefined space
  5301   300000                     	org	3145728
  5302   300000  FF                 	db	255
  5303                           
  5304                           ;Config register CONFIG1H @ 0x300001
  5305                           ;	Oscillator Selection bits
  5306                           ;	FOSC = INTIO67, Internal oscillator block
  5307                           ;	4X PLL Enable
  5308                           ;	PLLCFG = ON, Oscillator multiplied by 4
  5309                           ;	Primary clock enable bit
  5310                           ;	PRICLKEN = ON, Primary clock is always enabled
  5311                           ;	Fail-Safe Clock Monitor Enable bit
  5312                           ;	FCMEN = OFF, Fail-Safe Clock Monitor disabled
  5313                           ;	Internal/External Oscillator Switchover bit
  5314                           ;	IESO = OFF, Oscillator Switchover mode disabled
  5315   300001                     	org	3145729
  5316   300001  38                 	db	56
  5317                           
  5318                           ;Config register CONFIG2L @ 0x300002
  5319                           ;	Power-up Timer Enable bit
  5320                           ;	PWRTEN = ON, Power up timer enabled
  5321                           ;	Brown-out Reset Enable bits
  5322                           ;	BOREN = SBORDIS, Brown-out Reset enabled in hardware only (SBOREN is disabled)
  5323                           ;	Brown Out Reset Voltage bits
  5324                           ;	BORV = 250, VBOR set to 2.50 V nominal
  5325   300002                     	org	3145730
  5326   300002  0E                 	db	14
  5327                           
  5328                           ;Config register CONFIG2H @ 0x300003
  5329                           ;	Watchdog Timer Enable bits
  5330                           ;	WDTEN = OFF, Watch dog timer is always disabled. SWDTEN has no effect.
  5331                           ;	Watchdog Timer Postscale Select bits
  5332                           ;	WDTPS = 32768, 1:32768
  5333   300003                     	org	3145731
  5334   300003  3C                 	db	60
  5335                           
  5336                           ; Padding undefined space
  5337   300004                     	org	3145732
  5338   300004  FF                 	db	255
  5339                           
  5340                           ;Config register CONFIG3H @ 0x300005
  5341                           ;	CCP2 MUX bit
  5342                           ;	CCP2MX = PORTC1, CCP2 input/output is multiplexed with RC1
  5343                           ;	PORTB A/D Enable bit
  5344                           ;	PBADEN = ON, PORTB<5:0> pins are configured as analog input channels on Reset
  5345                           ;	P3A/CCP3 Mux bit
  5346                           ;	CCP3MX = PORTB5, P3A/CCP3 input/output is multiplexed with RB5
  5347                           ;	HFINTOSC Fast Start-up
  5348                           ;	HFOFST = ON, HFINTOSC output and ready status are not delayed by the oscillator stable
      +                           status
  5349                           ;	Timer3 Clock input mux bit
  5350                           ;	T3CMX = PORTC0, T3CKI is on RC0
  5351                           ;	ECCP2 B output mux bit
  5352                           ;	P2BMX = PORTD2, P2B is on RD2
  5353                           ;	MCLR Pin Enable bit
  5354                           ;	MCLRE = EXTMCLR, MCLR pin enabled, RE3 input pin disabled
  5355   300005                     	org	3145733
  5356   300005  BF                 	db	191
  5357                           
  5358                           ;Config register CONFIG4L @ 0x300006
  5359                           ;	Stack Full/Underflow Reset Enable bit
  5360                           ;	STVREN = ON, Stack full/underflow will cause Reset
  5361                           ;	Single-Supply ICSP Enable bit
  5362                           ;	LVP = ON, Single-Supply ICSP enabled if MCLRE is also 1
  5363                           ;	Extended Instruction Set Enable bit
  5364                           ;	XINST = OFF, Instruction set extension and Indexed Addressing mode disabled (Legacy mo
      +                          de)
  5365                           ;	Background Debug
  5366                           ;	DEBUG = 0x1, unprogrammed default
  5367   300006                     	org	3145734
  5368   300006  85                 	db	133
  5369                           
  5370                           ; Padding undefined space
  5371   300007                     	org	3145735
  5372   300007  FF                 	db	255
  5373                           
  5374                           ;Config register CONFIG5L @ 0x300008
  5375                           ;	Code Protection Block 0
  5376                           ;	CP0 = OFF, Block 0 (000800-003FFFh) not code-protected
  5377                           ;	Code Protection Block 1
  5378                           ;	CP1 = OFF, Block 1 (004000-007FFFh) not code-protected
  5379                           ;	Code Protection Block 2
  5380                           ;	CP2 = OFF, Block 2 (008000-00BFFFh) not code-protected
  5381                           ;	Code Protection Block 3
  5382                           ;	CP3 = OFF, Block 3 (00C000-00FFFFh) not code-protected
  5383   300008                     	org	3145736
  5384   300008  0F                 	db	15
  5385                           
  5386                           ;Config register CONFIG5H @ 0x300009
  5387                           ;	Boot Block Code Protection bit
  5388                           ;	CPB = OFF, Boot block (000000-0007FFh) not code-protected
  5389                           ;	Data EEPROM Code Protection bit
  5390                           ;	CPD = OFF, Data EEPROM not code-protected
  5391   300009                     	org	3145737
  5392   300009  C0                 	db	192
  5393                           
  5394                           ;Config register CONFIG6L @ 0x30000A
  5395                           ;	Write Protection Block 0
  5396                           ;	WRT0 = OFF, Block 0 (000800-003FFFh) not write-protected
  5397                           ;	Write Protection Block 1
  5398                           ;	WRT1 = OFF, Block 1 (004000-007FFFh) not write-protected
  5399                           ;	Write Protection Block 2
  5400                           ;	WRT2 = OFF, Block 2 (008000-00BFFFh) not write-protected
  5401                           ;	Write Protection Block 3
  5402                           ;	WRT3 = OFF, Block 3 (00C000-00FFFFh) not write-protected
  5403   30000A                     	org	3145738
  5404   30000A  0F                 	db	15
  5405                           
  5406                           ;Config register CONFIG6H @ 0x30000B
  5407                           ;	Configuration Register Write Protection bit
  5408                           ;	WRTC = OFF, Configuration registers (300000-3000FFh) not write-protected
  5409                           ;	Boot Block Write Protection bit
  5410                           ;	WRTB = OFF, Boot Block (000000-0007FFh) not write-protected
  5411                           ;	Data EEPROM Write Protection bit
  5412                           ;	WRTD = OFF, Data EEPROM not write-protected
  5413   30000B                     	org	3145739
  5414   30000B  E0                 	db	224
  5415                           
  5416                           ;Config register CONFIG7L @ 0x30000C
  5417                           ;	Table Read Protection Block 0
  5418                           ;	EBTR0 = OFF, Block 0 (000800-003FFFh) not protected from table reads executed in other
      +                           blocks
  5419                           ;	Table Read Protection Block 1
  5420                           ;	EBTR1 = OFF, Block 1 (004000-007FFFh) not protected from table reads executed in other
      +                           blocks
  5421                           ;	Table Read Protection Block 2
  5422                           ;	EBTR2 = OFF, Block 2 (008000-00BFFFh) not protected from table reads executed in other
      +                           blocks
  5423                           ;	Table Read Protection Block 3
  5424                           ;	EBTR3 = OFF, Block 3 (00C000-00FFFFh) not protected from table reads executed in other
      +                           blocks
  5425   30000C                     	org	3145740
  5426   30000C  0F                 	db	15
  5427                           
  5428                           ;Config register CONFIG7H @ 0x30000D
  5429                           ;	Boot Block Table Read Protection bit
  5430                           ;	EBTRB = OFF, Boot Block (000000-0007FFh) not protected from table reads executed in ot
      +                          her blocks
  5431   30000D                     	org	3145741
  5432   30000D  40                 	db	64
  5433                           tosu	equ	0xFFF
  5434                           tosh	equ	0xFFE
  5435                           tosl	equ	0xFFD
  5436                           stkptr	equ	0xFFC
  5437                           pclatu	equ	0xFFB
  5438                           pclath	equ	0xFFA
  5439                           pcl	equ	0xFF9
  5440                           tblptru	equ	0xFF8
  5441                           tblptrh	equ	0xFF7
  5442                           tblptrl	equ	0xFF6
  5443                           tablat	equ	0xFF5
  5444                           prodh	equ	0xFF4
  5445                           prodl	equ	0xFF3
  5446                           indf0	equ	0xFEF
  5447                           postinc0	equ	0xFEE
  5448                           postdec0	equ	0xFED
  5449                           preinc0	equ	0xFEC
  5450                           plusw0	equ	0xFEB
  5451                           fsr0h	equ	0xFEA
  5452                           fsr0l	equ	0xFE9
  5453                           wreg	equ	0xFE8
  5454                           indf1	equ	0xFE7
  5455                           postinc1	equ	0xFE6
  5456                           postdec1	equ	0xFE5
  5457                           preinc1	equ	0xFE4
  5458                           plusw1	equ	0xFE3
  5459                           fsr1h	equ	0xFE2
  5460                           fsr1l	equ	0xFE1
  5461                           bsr	equ	0xFE0
  5462                           indf2	equ	0xFDF
  5463                           postinc2	equ	0xFDE
  5464                           postdec2	equ	0xFDD
  5465                           preinc2	equ	0xFDC
  5466                           plusw2	equ	0xFDB
  5467                           fsr2h	equ	0xFDA
  5468                           fsr2l	equ	0xFD9
  5469                           status	equ	0xFD8

Data Sizes:
    Strings     160
    Constant    0
    Data        2
    BSS         118
    Persistent  0
    Stack       0

Auto Spaces:
    Space          Size  Autos    Used
    COMRAM           94     51      91
    BANK0           160      2      82
    BANK1           256      0       0
    BANK2           256      0       0
    BANK3           256      0       0
    BANK4           256      0       0
    BANK5           256      0       0
    BANK6           256      0       0
    BANK7           256      0       0
    BANK8           256      0       0
    BANK9           256      0       0
    BANK10          256      0       0
    BANK11          256      0       0
    BANK12          256      0       0
    BANK13          256      0       0
    BANK14          256      0       0
    BANK15           56      0       0

Pointer List with Targets:

    f$.$buffer	PTR unsigned char  size(1) Largest target is 16
		 -> air_intake_string(BANK0[16]), rpm_string(COMRAM[16]), 

    f$.$source	PTR const unsigned char  size(2) Largest target is 0

    fputc@fp	PTR struct _IO_FILE size(1) Largest target is 11
		 -> sprintf@f(COMRAM[11]), 

    fputc@fp$.$buffer	PTR unsigned char  size(1) Largest target is 16
		 -> air_intake_string(BANK0[16]), rpm_string(COMRAM[16]), 

    fputc@fp$.$source	PTR const unsigned char  size(2) Largest target is 0

    LCD_write_string@string	PTR unsigned char  size(2) Largest target is 32
		 -> air_intake_string(BANK0[16]), buffer(BANK0[32]), rpm_string(COMRAM[16]), STR_10(CODE[6]), 
		 -> STR_11(CODE[4]), STR_13(CODE[6]), STR_14(CODE[6]), STR_15(CODE[4]), 
		 -> STR_17(CODE[4]), STR_19(CODE[4]), STR_2(CODE[17]), STR_20(CODE[2]), 
		 -> STR_22(CODE[6]), STR_24(CODE[6]), STR_3(CODE[17]), STR_5(CODE[17]), 
		 -> STR_6(CODE[17]), STR_7(CODE[16]), 

    S1960$buffer	PTR unsigned char  size(1) Largest target is 16
		 -> air_intake_string(BANK0[16]), rpm_string(COMRAM[16]), 

    S1960$source	PTR const unsigned char  size(2) Largest target is 0

    sp__strchr	PTR unsigned char  size(1) Largest target is 32
		 -> buffer(BANK0[32]), NULL(NULL[0]), 

    sprintf@ap	PTR void [1] size(1) Largest target is 2
		 -> ?_sprintf(COMRAM[2]), 

    sprintf@fmt	PTR const unsigned char  size(1) Largest target is 3
		 -> STR_18(CODE[3]), STR_9(CODE[3]), 

    sprintf@s	PTR unsigned char  size(1) Largest target is 16
		 -> air_intake_string(BANK0[16]), rpm_string(COMRAM[16]), 

    strchr@s	PTR const unsigned char  size(1) Largest target is 32
		 -> buffer(BANK0[32]), 

    UART1_SendString@string	PTR unsigned char  size(1) Largest target is 6
		 -> STR_1(CODE[6]), STR_12(CODE[6]), STR_16(CODE[6]), STR_21(CODE[5]), 
		 -> STR_23(CODE[6]), STR_25(CODE[6]), STR_4(CODE[5]), STR_8(CODE[6]), 

    vfpfcnvrt@ap	PTR PTR void  size(1) Largest target is 1
		 -> sprintf@ap(COMRAM[1]), 

    vfpfcnvrt@cp	PTR unsigned char  size(1) Largest target is 3
		 -> STR_18(CODE[3]), STR_9(CODE[3]), 

    vfpfcnvrt@fmt	PTR PTR unsigned char  size(1) Largest target is 1
		 -> vfprintf@cfmt(COMRAM[1]), 

    vfpfcnvrt@fp	PTR struct _IO_FILE size(1) Largest target is 11
		 -> sprintf@f(COMRAM[11]), 

    vfprintf@ap	PTR PTR void  size(1) Largest target is 1
		 -> sprintf@ap(COMRAM[1]), 

    vfprintf@cfmt	PTR unsigned char  size(1) Largest target is 3
		 -> STR_18(CODE[3]), STR_9(CODE[3]), 

    vfprintf@fmt	PTR const unsigned char  size(1) Largest target is 3
		 -> STR_18(CODE[3]), STR_9(CODE[3]), 

    vfprintf@fp	PTR struct _IO_FILE size(1) Largest target is 11
		 -> sprintf@f(COMRAM[11]), 


Critical Paths under _main in COMRAM

    _main->_main_menu
    _welcome_splash->_LCD_write_string
    _main_menu->_live_reading_mode
    _live_reading_mode->_print_AI_Temp
    _live_reading_mode->_print_RPM
    _print_Vbatt->_LCD_write_string
    _print_RPM->_sprintf
    _print_AI_Temp->_sprintf
    _sprintf->_vfprintf
    _vfprintf->_vfpfcnvrt
    _vfpfcnvrt->_fputc
    _print_SAEVer->_LCD_write_string
    _print_ELMVer->_LCD_write_string
    _UART1_SendString->_UART1_SendChar
    _display_mm->_LCD_write_string
    _LCD_write_string->_LCD_write_data
    _LCD_cursor_set->_LCD_write_command
    _LCD_configure_cursor_blink->_LCD_write_command
    _LCD_init->_LCD_clear
    _LCD_clear->_LCD_write_command

Critical Paths under _UART_ISR in COMRAM

    None.

Critical Paths under _main in BANK0

    None.

Critical Paths under _UART_ISR in BANK0

    None.

Critical Paths under _main in BANK1

    None.

Critical Paths under _UART_ISR in BANK1

    None.

Critical Paths under _main in BANK2

    None.

Critical Paths under _UART_ISR in BANK2

    None.

Critical Paths under _main in BANK3

    None.

Critical Paths under _UART_ISR in BANK3

    None.

Critical Paths under _main in BANK4

    None.

Critical Paths under _UART_ISR in BANK4

    None.

Critical Paths under _main in BANK5

    None.

Critical Paths under _UART_ISR in BANK5

    None.

Critical Paths under _main in BANK6

    None.

Critical Paths under _UART_ISR in BANK6

    None.

Critical Paths under _main in BANK7

    None.

Critical Paths under _UART_ISR in BANK7

    None.

Critical Paths under _main in BANK8

    None.

Critical Paths under _UART_ISR in BANK8

    None.

Critical Paths under _main in BANK9

    None.

Critical Paths under _UART_ISR in BANK9

    None.

Critical Paths under _main in BANK10

    None.

Critical Paths under _UART_ISR in BANK10

    None.

Critical Paths under _main in BANK11

    None.

Critical Paths under _UART_ISR in BANK11

    None.

Critical Paths under _main in BANK12

    None.

Critical Paths under _UART_ISR in BANK12

    None.

Critical Paths under _main in BANK13

    None.

Critical Paths under _UART_ISR in BANK13

    None.

Critical Paths under _main in BANK14

    None.

Critical Paths under _UART_ISR in BANK14

    None.

Critical Paths under _main in BANK15

    None.

Critical Paths under _UART_ISR in BANK15

    None.

Call Graph Tables:

 ---------------------------------------------------------------------------------
 (Depth) Function   	        Calls       Base Space   Used Autos Params    Refs
 ---------------------------------------------------------------------------------
 (0) _main                                                 2     2      0   11148
                                              0 BANK0      2     2      0
                           _ADC_init
                          _LCD_clear
                           _LCD_init
                         _UART1_Init
                   _UART1_SendString
                         _input_init
                          _main_menu
                     _welcome_splash
 ---------------------------------------------------------------------------------
 (1) _welcome_splash                                       4     4      0     913
                                             10 COMRAM     4     4      0
                     _LCD_cursor_set
                   _LCD_write_string
                   _UART1_SendString
                          _ccp1_init
                          _tmr1_init
 ---------------------------------------------------------------------------------
 (2) _tmr1_init                                            0     0      0       0
 ---------------------------------------------------------------------------------
 (2) _ccp1_init                                            0     0      0       0
 ---------------------------------------------------------------------------------
 (1) _main_menu                                            6     6      0    9412
                                             45 COMRAM     6     6      0
                          _LCD_clear
         _LCD_configure_cursor_blink
                     _LCD_cursor_set
                         _display_mm
                _display_system_info
                  _live_reading_mode
                            _readADC
 ---------------------------------------------------------------------------------
 (2) _readADC                                              4     2      2       0
                                              2 COMRAM     4     2      2
 ---------------------------------------------------------------------------------
 (2) _live_reading_mode                                    2     2      0    5869
                                             43 COMRAM     2     2      0
                      _print_AI_Temp
                          _print_RPM
                        _print_Vbatt
 ---------------------------------------------------------------------------------
 (3) _print_Vbatt                                          0     0      0     955
                     _LCD_cursor_set
                   _LCD_write_string
                   _UART1_SendString
                             _strchr
 ---------------------------------------------------------------------------------
 (4) _strchr                                               4     1      3      90
                                              2 COMRAM     4     1      3
 ---------------------------------------------------------------------------------
 (3) _print_RPM                                            3     3      0    2457
                                             40 COMRAM     3     3      0
                     _LCD_cursor_set
                   _LCD_write_string
                   _UART1_SendString
                  _hex_char_to_value
                            _sprintf
 ---------------------------------------------------------------------------------
 (3) _print_AI_Temp                                        3     3      0    2457
                                             40 COMRAM     3     3      0
                     _LCD_cursor_set
                   _LCD_write_string
                   _UART1_SendString
                  _hex_char_to_value
                            _sprintf
 ---------------------------------------------------------------------------------
 (4) _sprintf                                             18    14      4    1331
                                             24 COMRAM    16    12      4
                           _vfprintf
 ---------------------------------------------------------------------------------
 (5) _vfprintf                                             4     1      3    1128
                                             20 COMRAM     4     1      3
                          _vfpfcnvrt
 ---------------------------------------------------------------------------------
 (6) _vfpfcnvrt                                           11     8      3    1003
                                             10 COMRAM    10     7      3
                            ___lwdiv
                            ___lwmod
                              _fputc
 ---------------------------------------------------------------------------------
 (7) _fputc                                                8     5      3     230
                                              2 COMRAM     8     5      3
                              _putch
 ---------------------------------------------------------------------------------
 (8) _putch                                                1     1      0       0
 ---------------------------------------------------------------------------------
 (7) ___lwmod                                              5     1      4     161
                                              2 COMRAM     5     1      4
 ---------------------------------------------------------------------------------
 (7) ___lwdiv                                              7     3      4     164
                                              2 COMRAM     7     3      4
 ---------------------------------------------------------------------------------
 (4) _hex_char_to_value                                    1     1      0     261
                                              2 COMRAM     1     1      0
 ---------------------------------------------------------------------------------
 (2) _display_system_info                                  0     0      0    1730
                       _print_ELMVer
                       _print_SAEVer
 ---------------------------------------------------------------------------------
 (3) _print_SAEVer                                         0     0      0     865
                     _LCD_cursor_set
                   _LCD_write_string
                   _UART1_SendString
 ---------------------------------------------------------------------------------
 (3) _print_ELMVer                                         0     0      0     865
                     _LCD_cursor_set
                   _LCD_write_string
                   _UART1_SendString
 ---------------------------------------------------------------------------------
 (2) _UART1_SendString                                     4     3      1     127
                                              3 COMRAM     4     3      1
                     _UART1_SendChar
 ---------------------------------------------------------------------------------
 (3) _UART1_SendChar                                       1     1      0      29
                                              2 COMRAM     1     1      0
 ---------------------------------------------------------------------------------
 (2) _display_mm                                           0     0      0     738
                     _LCD_cursor_set
                   _LCD_write_string
 ---------------------------------------------------------------------------------
 (2) _LCD_write_string                                     5     3      2     342
                                              5 COMRAM     5     3      2
                     _LCD_write_data
 ---------------------------------------------------------------------------------
 (3) _LCD_write_data                                       3     3      0     232
                                              2 COMRAM     3     3      0
                    _LCD_pulse_clock
 ---------------------------------------------------------------------------------
 (2) _LCD_cursor_set                                       2     1      1     396
                                              5 COMRAM     2     1      1
                  _LCD_write_command
 ---------------------------------------------------------------------------------
 (2) _LCD_configure_cursor_blink                           1     1      0     261
                                              5 COMRAM     1     1      0
                  _LCD_write_command
 ---------------------------------------------------------------------------------
 (1) _input_init                                           0     0      0       0
 ---------------------------------------------------------------------------------
 (1) _UART1_Init                                           0     0      0       0
 ---------------------------------------------------------------------------------
 (1) _LCD_init                                             2     2      0     464
                                              6 COMRAM     2     2      0
                          _LCD_clear
                    _LCD_pulse_clock
                  _LCD_write_command
 ---------------------------------------------------------------------------------
 (2) _LCD_clear                                            1     1      0     232
                                              5 COMRAM     1     1      0
                  _LCD_write_command
 ---------------------------------------------------------------------------------
 (3) _LCD_write_command                                    3     3      0     232
                                              2 COMRAM     3     3      0
                    _LCD_pulse_clock
 ---------------------------------------------------------------------------------
 (4) _LCD_pulse_clock                                      0     0      0       0
 ---------------------------------------------------------------------------------
 (1) _ADC_init                                             0     0      0       0
 ---------------------------------------------------------------------------------
 Estimated maximum stack depth 8
 ---------------------------------------------------------------------------------
 (Depth) Function   	        Calls       Base Space   Used Autos Params    Refs
 ---------------------------------------------------------------------------------
 (9) _UART_ISR                                             2     2      0       0
                                              0 COMRAM     2     2      0
 ---------------------------------------------------------------------------------
 Estimated maximum stack depth 9
 ---------------------------------------------------------------------------------

 Call Graph Graphs:

 _main (ROOT)
   _ADC_init
   _LCD_clear
     _LCD_write_command
       _LCD_pulse_clock
   _LCD_init
     _LCD_clear
     _LCD_pulse_clock
     _LCD_write_command
   _UART1_Init
   _UART1_SendString
     _UART1_SendChar
   _input_init
   _main_menu
     _LCD_clear
     _LCD_configure_cursor_blink
       _LCD_write_command
     _LCD_cursor_set
       _LCD_write_command
     _display_mm
       _LCD_cursor_set
       _LCD_write_string
         _LCD_write_data
           _LCD_pulse_clock
     _display_system_info
       _print_ELMVer
         _LCD_cursor_set
         _LCD_write_string
         _UART1_SendString
       _print_SAEVer
         _LCD_cursor_set
         _LCD_write_string
         _UART1_SendString
     _live_reading_mode
       _print_AI_Temp
         _LCD_cursor_set
         _LCD_write_string
         _UART1_SendString
         _hex_char_to_value
         _sprintf
           _vfprintf
             _vfpfcnvrt
               ___lwdiv
               ___lwmod
               _fputc
                 _putch
       _print_RPM
         _LCD_cursor_set
         _LCD_write_string
         _UART1_SendString
         _hex_char_to_value
         _sprintf
       _print_Vbatt
         _LCD_cursor_set
         _LCD_write_string
         _UART1_SendString
         _strchr
     _readADC
   _welcome_splash
     _LCD_cursor_set
     _LCD_write_string
     _UART1_SendString
     _ccp1_init
     _tmr1_init

 _UART_ISR (ROOT)

Address spaces:
Name               Size   Autos  Total    Usage
BIGRAM            3895      0       0      0.0%
BITBANK14          256      0       0      0.0%
BANK14             256      0       0      0.0%
BITBANK13          256      0       0      0.0%
BANK13             256      0       0      0.0%
BITBANK12          256      0       0      0.0%
BANK12             256      0       0      0.0%
BITBANK11          256      0       0      0.0%
BANK11             256      0       0      0.0%
BITBANK10          256      0       0      0.0%
BANK10             256      0       0      0.0%
BITBANK9           256      0       0      0.0%
BANK9              256      0       0      0.0%
BITBANK8           256      0       0      0.0%
BANK8              256      0       0      0.0%
BITBANK7           256      0       0      0.0%
BANK7              256      0       0      0.0%
BITBANK6           256      0       0      0.0%
BANK6              256      0       0      0.0%
BITBANK5           256      0       0      0.0%
BANK5              256      0       0      0.0%
BITBANK4           256      0       0      0.0%
BANK4              256      0       0      0.0%
BITBANK3           256      0       0      0.0%
BANK3              256      0       0      0.0%
BITBANK2           256      0       0      0.0%
BANK2              256      0       0      0.0%
BITBANK1           256      0       0      0.0%
BANK1              256      0       0      0.0%
BITBANK0           160      0       0      0.0%
BANK0              160      2      82     51.2%
BITCOMRAM           94      0       0      0.0%
COMRAM              94     51      91     96.8%
BITBIGSFRh          82      0       0      0.0%
BITBIGSFRllh        70      0       0      0.0%
BITBANK15           56      0       0      0.0%
BANK15              56      0       0      0.0%
BITBIGSFRlh         43      0       0      0.0%
STACK                0      0       0      0.0%
DATA                 0      0     173      0.0%


Microchip Technology PIC18 Macro Assembler V3.00 build 20241204225717 
Symbol Table                                                                                   Mon Apr 28 16:53:03 2025

                               l131 203C                                 l301 164E  
                               l134 2054                                 l214 122C  
                               l311 1D40                                 l304 1B2C  
                               l160 200A                                 l232 1AB0  
                               l240 1552                                 l208 11FC  
                               l137 1F90                                 l154 1D8A  
                               l170 179C                                 l307 1CF8  
                               l163 201C                                 l332 1FD8  
                               l308 1D0E                                 l180 181C  
                               l309 1D24                                 l157 1FF8  
                               l254 18EE                                 l166 202C  
                               l335 1FF4                                 l263 1E0E  
                               l183 1EC8                                 l272 205E  
                               l248 1A32                                 l257 1FB6  
                               l186 1EFA                                 l365 1BA6  
                               l189 1F30                                 l269 1DCC  
                               l198 12CC                                 l295 2048  
                               l298 174A                                 l900 1C76  
                               l907 1C7E                                 l890 1C12  
                               l897 1C1A                                 u920 1BC2  
                               u921 1BBE                                 u930 1BE0  
                               u931 1BDC                                 u940 1BFC  
                               u941 1BF8                                 u950 1C2E  
                               u951 1C2A                                 u960 1C4C  
                               u961 1C48                                 u970 1C62  
                               u971 1C5E                                 u980 1900  
                               u981 18FC                                 _RPM 0040  
                               u990 1910                                 u991 190C  
                               wreg 0FE8                          _TXSTA1bits 0FAC  
                              l2001 1362                                l1130 1E8A  
                              l1123 1452                                l2011 13C6  
                              l2003 1370                                l2101 1B34  
                              l2013 13DA                                l2005 1374  
                              l2021 140C                                l1142 1998  
                              l2103 1B66                                l2111 1A56  
                              l2015 13F4                                l2007 1398  
                              l2023 1424                                l2041 16D2  
                              l2105 1B68                                l2033 1FF8  
                              l1153 2062                                l2017 13F6  
                              l2009 13B4                                l2201 1A24  
                              l2051 1746                                l2043 16D6  
                              l2035 2006                                l2131 1AAE  
                              l2123 1A86                                l2115 1A5E  
                              l2107 1A36                                l2027 1430  
                              l2211 1836                                l2203 1A2E  
                              l1156 1E8C                                l2045 16F8  
                              l2037 1652                                l2061 15FC  
                              l2053 1556                                l2301 2056  
                              l2125 1A96                                l2117 1A6E  
                              l2109 1A46                                l2141 1F4A  
                              l2221 18A2                                l2213 1840  
                              l2205 1A30                                l1086 1F64  
                              l1158 1EC4                                l2047 1718  
                              l2039 1654                                l2311 1AE6  
                              l2303 1AB2                                l2063 161C  
                              l2055 1558                                l2127 1AA6  
                              l2119 1A7E                                l2071 1E56  
                              l2143 1F5A                                l2135 1F32  
                              l2231 18DA                                l2223 18AC  
                              l2215 1850                                l2207 181E  
                              l1503 200C                                l2049 1732  
                              l2321 1B06                                l2313 1AE8  
                              l2305 1ACA                                l2065 1636  
                              l2057 15D6                                l2081 1D4E  
                              l2241 1DE6                                l2073 1E66  
                              l2137 1F3A                                l2233 18EA  
                              l2225 18BC                                l2217 1882  
                              l2209 1826                                l2161 145C  
                              l2153 1EAA                                l2401 113C  
                              l1505 2014                                l2331 1B12  
                              l2323 1B0A                                l2315 1AEA  
                              l2307 1AE2                                l2091 1D0A  
                              l2067 164A                                l2059 15DA  
                              l2083 1D64                                l2243 1DF0  
                              l2251 1D8C                                l2075 1E82  
                              l2139 1F42                                l2235 18EC  
                              l2227 18C6                                l2219 188E  
                              l2171 1510                                l2163 146C  
                              l2155 1EC2                                l2147 1E8C  
                              l2411 117C                                l2403 1146  
                              l1507 201E                                l2333 1B16  
                              l2325 1B0C                                l2317 1AEE  
                              l2309 1AE4                                l2093 1D20  
                              l2085 1D68                                l2245 1E00  
                              l2237 1DCE                                l2261 1DC8  
                              l2253 1D94                                l2069 1E4E  
                              l2229 18D0                                l2181 154E  
                              l2173 1520                                l2165 14D0  
                              l2149 1EA4                                l2421 11BC  
                              l2413 1182                                l2405 1158  
                              l2341 174C                                l2335 1B1C  
                              l2327 1B0E                                l2319 1B00  
                              l2095 1D36                                l2087 1CE4  
                              l2079 1D42                                l2247 1E0A  
                              l2239 1DD6                                l2263 1DCA  
                              l2255 1DA4                                l2183 1550  
                              l2175 152A                                l2167 14F2  
                              l2159 1454                                l2191 19BC  
                              l2271 1EC6                                l2431 11F0  
                              l2423 11C0                                l2415 1190  
                              l2407 116A                                l2351 1790  
                              l2343 175C                                l2265 1FDA  
                              l2337 1B22                                l2329 1B10  
                              l2097 1D3A                                l2089 1CF4  
                              l2281 1F06                                l2249 1E0C  
                              l2257 1DAE                                l2177 153A  
                              l2169 1506                                l2193 19CC  
                              l2185 199A                                l2273 1ED6  
                              l2433 11F4                                l2425 11CE  
                              l2417 11A0                                l2409 1172  
                              l2361 17C8                                l2353 17AA  
                              l2345 1766                                l2267 1FE0  
                              l2339 1B28                                l2291 1FD2  
                              l2099 1B2E                                l2283 1F16  
                              l2259 1DBE                                l2179 1544  
                              l2195 19E6                                l2187 19A2  
                              l2275 1EE4                                l2435 120A  
                              l2427 11DE                                l2419 11AE  
                              l2363 17D4                                l2371 180C  
                              l2355 17AC                                l2347 1776  
                              l2269 1FEE                                l1581 1F66  
                              l2285 1FBA                                l2197 19F0  
                              l2189 19B2                                l2293 1F92  
                              l2461 127E                                l2445 123A  
                              l2437 121A                                l2429 11EC  
                              l2381 10BA                                l2373 10A2  
                              l2365 17E0                                l2357 17B0  
                              l2349 1780                                l1591 1F86  
                              l1583 1F78                                l1575 202E  
                              l2287 1FCA                                l2279 1EFC  
                              l2199 1A10                                l2295 1F96  
                              l2455 125C                                l2447 124A  
                              l2471 1290                                l2391 10FE  
                              l2383 10CA                                l2375 10A6  
                              l2367 17EA                                l2359 17B2  
                              l1577 204A                                l1593 1F88  
                              l1585 1F80                                l2289 1FD0  
                              l2297 1F9A                                l2457 1260  
                              l2473 12CC                                l2393 1106  
                              l2385 10D2                                l2377 10AA  
                              l2369 17FA                                l1579 204E  
                              l1595 1F8A                                l1587 1F82  
                              l1931 1BB0                                l2299 1F9E  
                              l2707 12A6                                l2459 126E  
                              l2395 1110                                l2387 10DC  
                              l2379 10AE                                l1597 1F8C  
                              l1589 1F84                                l1941 1BE6  
                              l1933 1BC2                                l2397 1122  
                              l2389 10EC                                l1599 1F8E  
                              l1943 1BFC                                l1935 1BCA  
                              l1951 1C1C                                l2399 1134  
                              l2671 1C84                                l1945 1C04  
                              l1937 1BD2                                l1929 1BA8  
                              l1961 1C62                                l1953 1C2E  
                              l2681 1CB8                                l2673 1C88  
                              l1947 1C06                                l1939 1BE0  
                              l1963 1C6A                                l1955 1C36  
                              l1971 1910                                l2683 1CD2  
                              l2675 1C8C                                l1981 203E  
                              l1949 1C0C                                l1965 1C70  
                              l1957 1C3E                                l1973 191A  
                              l2685 1CD6                                l2677 1C98  
                              l2669 1C80                                l1983 2040  
                              l1959 1C4C                                l1975 1936  
                              l1967 18F0                                l1991 1314  
                              l2679 1CB0                                l1985 2046  
                              l1977 1968                                l1969 1900  
                              l1993 1320                                l1995 1324  
                              l1987 12EA                                l1997 132E  
                              l1989 130C                                l1999 134A  
                              STR_1 1055                                STR_2 1001  
                              STR_3 1012                                STR_4 108B  
                              STR_5 1023                                STR_6 1034  
                              STR_7 1045                                STR_8 1061  
                              STR_9 109C                                u1000 1936  
                              u1001 1932                                u1010 1968  
                              u1011 1964                                u1020 130C  
                              u1021 1308                                u1030 134A  
                              u1031 1346                                u1200 1B62  
                              u1040 13C6                                u1105 169C  
                              u1041 13C2                                u1210 1B96  
                              u1050 13D6                                u1115 1560  
                              u1051 13D2                                u1220 1BA6  
                              u1060 1408                                u1140 1E82  
                              u1300 1EC2                                u1125 157A  
                              u1221 1BA2                                u1061 1404  
                              u1141 1E7E                                u1301 1EBE  
                              u1070 2006                                u1150 1D8A  
                              u1230 1A46                                u1310 146C  
                              u1135 15A0                                u1207 1B58  
                              u1071 2002                                u1151 1D86  
                              u1231 1A42                                u1311 1468  
                              u1160 1CF4                                u1240 1A56  
                              u1320 19B2                                u1400 17C8  
                              u1161 1CF0                                u1217 1B8C  
                              u1241 1A52                                u1321 19AE  
                              u1401 17C4                                u1170 1D0A  
                              u1250 1A6E                                u1330 1A10  
                              u1410 180C                                u1171 1D06  
                              u1251 1A6A                                u1331 1A0C  
                              u1411 1808                                u1180 1D20  
                              u1260 1A7E                                u1340 1836  
                              u1500 1190                                u1420 181C  
                              u1085 165C                                u1181 1D1C  
                              u1261 1A7A                                u1341 1832  
                              u1501 118C                                u1421 1818  
                              u1190 1D36                                u1350 1DE6  
                              u1270 1A96                                u1510 11AE  
                              u1430 10CA                                u1095 1676  
                              u1191 1D32                                u1351 1DE2  
                              u1271 1A92                                u1511 11AA  
                              u1431 10C6                                u1360 1DA4  
                              u1280 1AA6                                u1520 11CE  
                              u1440 10EC                                u1361 1DA0  
                              u1281 1AA2                                u1521 11CA  
                              u1441 10E8                                u1290 1EA4  
                              u1370 1ED6                                u1530 11EC  
                              u1450 10FE                                u1291 1EA0  
                              u1371 1ED2                                u1531 11E8  
                              u1451 10FA                                u1380 1FCA  
                              u1540 120A                                u1460 1122  
                              u1381 1FC6                                u1541 1206  
                              u1461 111E                                u1550 1228  
                              u1470 1134                                u1390 17AA  
                              u1551 1224                                u1471 1130  
                              u1391 17A6                                u1560 123A  
                              u1480 1158                                u1561 1236  
                              u1481 1154                                u1570 1258  
                              u1490 116A                                u1571 1254  
                              u1491 1166                                u1580 126E  
                              u1581 126A                                u1590 128C  
                              u1591 1288                                u1907 12D6  
                              u1917 1EDC                                u1837 1CA4  
                              u1927 1FA8                                u1847 1CC4  
                              u1937 1AD4                                u1857 1196  
                              u1947 1AF4                                u1867 11D4  
                              u1957 1B02                                u1877 1210  
                              u1967 1FE6                                u1887 1240  
                              u1977 2042                                u1897 1274  
                    _UART1_SendChar 1FF6                   _live_reading_mode 1F92  
                 _air_intake_string 00A0                                _dbuf 0060  
                              _main 1C80                                _prec 003A  
                              fsr0h 0FEA                                fsr1h 0FE2  
                   ??_print_AI_Temp 0029                                indf0 0FEF  
                              fsr2h 0FDA                                fsr0l 0FE9  
                              indf2 0FDF                                fsr1l 0FE1  
                              fsr2l 0FD9                                btemp 005C  
                ?_live_reading_mode 0001                                start 00D2  
                  __end_of_ADC_init 2056                        ___param_bank 0000  
               ??_live_reading_mode 002C                         ?_UART1_Init 0001  
                      _BAUDCON1bits 0FB8                    __end_of_LCD_init 1B2E  
                             ?_main 0001                               STR_10 1073  
                             STR_11 1094                               STR_20 109F  
                             STR_12 106D                               STR_21 108B  
                             STR_13 1073                               STR_14 1085  
                             STR_22 107F                               STR_15 1090  
                             STR_23 105B                               STR_24 1079  
                             STR_16 1067                               STR_17 1075  
                             STR_18 109C                               STR_19 1098  
                   __end_of___lwdiv 1C1C                     __end_of___lwmod 1C80  
                             i2l148 00C6                        vfpfcnvrt@fmt 000C  
                             _TXREG 0FAD                               _A_rpm 0044  
                             _B_rpm 0042                    __end_of_UART_ISR 00D2  
                   __end_of_readADC 1EFC              __end_of_UART1_SendChar 200C  
                             _flags 0046        welcome_splash@CCP1IF_counter 000D  
                             _fputc 18F0           __end_of_live_reading_mode 1FB8  
                             _width 0038                               _putch 2062  
                             tablat 0FF5                   UART1_SendString@i 0006  
                             ttemp5 005D                               ttemp6 0060  
                             ttemp7 0064                               status 0FD8  
                             wtemp8 005D                     __end_of_sprintf 1F66  
                   __initialization 1E10                        __end_of_main 1CE2  
                 ?_LCD_write_string 0006                              ??_main 00B0  
                     __activetblptr 0002                  ??_LCD_write_string 0008  
                 __end_of_LCD_clear 1FF6                   main_menu@menu_sel 0030  
                            _ADCON0 0FC2                              _ADCON1 0FC1  
                            _ADCON2 0FC0                     ?_UART1_SendChar 0001  
                            ?_fputc 0003                              _ADRESH 0FC4  
                            _ADRESL 0FC3                              _CCPR1H 0FBF  
                            _CCPR1L 0FBE                              ?_putch 0001  
                            _ANSELC 0F3A                              i2l2541 0020  
                            i2l2551 0064                              i2l2543 002E  
                            i2l2561 00A8                              i2l2553 0076  
                            i2l2545 0040                              i2l2563 00B8  
                            i2l2555 0082                              i2l2547 0044  
                            i2l2539 0012                              i2l2565 00C2  
                            i2l2549 0054                              i2l2557 0084  
                            i2l2559 0096                              _RCREG1 0FAE  
               _display_system_info 2056              LCD_write_string@string 0006  
                            _OSCCON 0FD3                              _SPBRG1 0FAF  
                  _UART1_SendString 1D42                        vfprintf@cfmt 0018  
                         ??___lwdiv 0007        ??_LCD_configure_cursor_blink 0006  
                         ??___lwmod 0007                              _buffer 0080  
              ?_display_system_info 0001                              clear_0 1E2E  
                            clear_1 1E3A                              isa$std 0001  
                            _strchr 1E8C                           ??_readADC 0005  
                            fputc@c 0003                        __pdataCOMRAM 005A  
                  ??_welcome_splash 000B                        __mediumconst 1000  
                            tblptrh 0FF7                              tblptrl 0FF6  
                            tblptru 0FF8                           ?_ADC_init 0001  
                            putch@c 0001                    __end_of_vfprintf 1E8C  
                         ??_sprintf 001D                        ?_print_Vbatt 0001  
                        __accesstop 0060             __end_of__initialization 1E40  
                         ?_LCD_init 0001                       ___rparam_used 0001  
                   UART1_SendChar@c 0003                      __pcstackCOMRAM 0001  
                         ?_UART_ISR 0001                      _LCD_entry_mode 005A  
                 _LCD_write_command 1650                       __end_of_fputc 199A  
             ??_display_system_info 000B                       __end_of_putch 2064  
                    _LCD_cursor_set 1CE2                  ?_LCD_write_command 0001  
                 _hex_char_to_value 1A34                  ?_hex_char_to_value 0001  
               ??_LCD_write_command 0003                          ??_ADC_init 0003  
                           ??_fputc 0006                             ??_putch 0003  
                        __pbssBANK0 0060                 ??_hex_char_to_value 0003  
                        ??_LCD_init 0007           __end_of_LCD_write_command 174C  
                      ??_UART1_Init 0003                          ??_UART_ISR 0001  
            __end_of_LCD_cursor_set 1D42           __end_of_hex_char_to_value 1AB2  
                 __end_of_ccp1_init 201E                             ?_strchr 0003  
                           _SPBRGH1 0FB0                          _display_mm 1EFC  
          LCD_write_command@command 0005                  __end_of_UART1_Init 1F92  
                           _RX_char 0048               __end_of_print_AI_Temp 18F0  
                           __Hparam 0000                             __Lparam 0000  
__end_of_LCD_configure_cursor_blink 1FDA          _LCD_configure_cursor_blink 1FB8  
                  _message_complete 0047                     ?_LCD_cursor_set 0006  
                    _LCD_write_data 1554                             ___lwdiv 1BA8  
                           ___lwmod 1C1C                           ?_vfprintf 0015  
                      __psmallconst 1000                   __end_of_main_menu 12EA  
                           __pcinit 1E10                             __ramtop 1000  
                           __ptext0 1C80                             __ptext1 174C  
                           __ptext2 201E                             __ptext3 200C  
                           __ptext4 10A2                             __ptext5 1EC6  
                           __ptext6 1F92                             __ptext7 199A  
                           __ptext8 1E8C                             __ptext9 1454  
                           _readADC 1EC6                           _T1CONbits 0FCD  
                  ??_UART1_SendChar 0003            __end_of_UART1_SendString 1D8C  
                        _input_init 202E                             _sprintf 1F32  
                         _LCD_clear 1FDA                end_of_initialization 1E40  
                 __end_of_tmr1_init 202E                             fputc@fp 0005  
                     __Lmediumconst 0000                LCD_cursor_set@column 0006  
                 __end_of_print_RPM 1554                       ?_print_ELMVer 0001  
                      _buffer_count 0049                 _LCD_display_control 005B  
            __end_of_LCD_write_data 1650                   __end_of_vfpfcnvrt 1454  
                     ?_print_SAEVer 0001                           _RCSTAbits 0FAB  
                           postdec2 0FDD                             postinc0 0FEE  
                           postinc1 0FE6                             postinc2 0FDE  
                  vfpfcnvrt@convarg 000F                          ??_vfprintf 0018  
                           strchr@c 0004                             strchr@s 0003  
                         _PORTBbits 0F81                           _PORTCbits 0F82  
                 ??_LCD_pulse_clock 0003                          _rpm_string 004A  
                         _TRISAbits 0F92                           _TRISBbits 0F93  
                         _TRISCbits 0F94                           _TRISDbits 0F95  
                       ?_display_mm 0001                          ?_LCD_clear 0001  
                   _air_intake_temp 003C                         _CCP1CONbits 0FBD  
                         _TXSTAbits 0FAC                      ??_print_ELMVer 000B  
                    ??_print_SAEVer 000B                     ?_LCD_write_data 0001  
                       vfpfcnvrt@ap 000D                         vfpfcnvrt@cp 0013  
                       vfpfcnvrt@fp 000B                       __pidataCOMRAM 2060  
                    __end_of_strchr 1EC6                 start_initialization 1E10  
                       ?_input_init 0001         __end_of_display_system_info 2060  
                       vfprintf@fmt 0016                            ??_strchr 0006  
                       __pbssCOMRAM 0034                           _ccp1_init 200C  
                     __pcstackBANK0 00B0                         ??_LCD_clear 0006  
                  _LCD_write_string 1B2E                    ??_LCD_cursor_set 0007  
                  ___lwdiv@dividend 0003     LCD_configure_cursor_blink@state 0006  
                         __pintcode 0008         ?_LCD_configure_cursor_blink 0001  
                          ?___lwdiv 0003                            ?___lwmod 0003  
            UART1_SendString@string 0004                            ?_readADC 0003  
                       __smallconst 1000                           _main_menu 10A2  
                        ?_ccp1_init 0001                __end_of_print_ELMVer 1E10  
                          _ADC_init 204A                __end_of_print_SAEVer 1DCE  
                 ?_UART1_SendString 0004                    ___lwdiv@quotient 0007  
                          ?_sprintf 0019                  LCD_write_data@data 0005  
                ??_UART1_SendString 0005                            _LATDbits 0F8C  
                          _LCD_init 1AB2                            _PIE1bits 0F9D  
                         _tmr1_init 201E                            i2u170_40 0076  
                          i2u170_41 0072                            i2u171_40 0096  
                          i2u171_41 0092                            i2u172_40 00A8  
                          i2u172_41 00A4                            i2u173_40 00B8  
                          i2u165_40 0020                            i2u173_41 00B4  
                          i2u165_41 001C                            i2u166_40 002E  
                          i2u166_41 002A                            i2u167_40 0040  
                          i2u167_41 003C                            i2u168_40 0054  
                          i2u168_41 0050                            i2u169_40 0064  
                          i2u169_41 0060                            _PIR1bits 0F9E  
                   _LCD_pulse_clock 203E                            _UART_ISR 0008  
                         _print_RPM 1454                           _vfpfcnvrt 12EA  
                        _ADCON0bits 0FC2                          ?_main_menu 0001  
                      ??_display_mm 000B                          vfpfcnvrt@c 0014  
                     ??_print_Vbatt 000B                    ??_LCD_write_data 0003  
                        ?_tmr1_init 0001                            __Hrparam 0000  
                   main_menu@result 0032                           modff@F522 0034  
                        vfprintf@ap 0017                            __Lrparam 0000  
                        vfprintf@fp 0015                  hex_char_to_value@c 0003  
                 LCD_cursor_set@row 0007                          ?_print_RPM 0001  
                __end_of_display_mm 1F32                          ?_vfpfcnvrt 000B  
                        _ANSELAbits 0F38                          _ANSELBbits 0F39  
                        _ANSELCbits 0F3A                          sprintf@fmt 001A  
                       ??_ccp1_init 0003                     ___lwdiv@divisor 0005  
                   ___lwdiv@counter 0009                        ??_input_init 0003  
                          __ptext10 181E                            __ptext11 1F32  
                          __ptext20 1D8C                            __ptext12 1E4E  
                          __ptext21 1DCE                            __ptext13 12EA  
                          __ptext30 1F66                            __ptext22 1D42  
                          __ptext14 18F0                            __ptext31 1AB2  
                          __ptext23 1FF6                            __ptext15 2062  
                          __ptext32 1FDA                            __ptext24 1EFC  
                          __ptext16 1C1C                            __ptext33 1650  
                          __ptext25 1B2E                            __ptext17 1BA8  
                          __ptext34 203E                            __ptext26 1554  
                          __ptext18 1A34                            __ptext35 204A  
                          __ptext27 1CE2                            __ptext19 2056  
                          __ptext28 1FB8                            __ptext29 202E  
                    _welcome_splash 174C             __end_of_LCD_pulse_clock 204A  
               __end_of_print_Vbatt 1A34                       _print_AI_Temp 181E  
                          isa$xinst 0000                            int$flags 005C  
                          _vfprintf 1E4E                  __end_of_input_init 203E  
          __end_of_LCD_write_string 1BA8                         ??_main_menu 002E  
                        _INTCONbits 0FF2              __end_of_welcome_splash 181E  
                 LCD_write_string@i 000A                            intlevel2 0000  
                         sprintf@ap 001D                    ___lwmod@dividend 0003  
                       ??_tmr1_init 0003                          _RCSTA1bits 0FAB  
                    ?_print_AI_Temp 0001             welcome_splash@plug_flag 000B  
                      _print_ELMVer 1DCE                        _print_SAEVer 1D8C  
                        _UART1_Init 1F66                         ??_print_RPM 0029  
                       ??_vfpfcnvrt 000E                            sprintf@f 001E  
                          sprintf@s 0019                     ___lwmod@divisor 0005  
                      _A_air_intake 003E                     ___lwmod@counter 0007  
                   ?_welcome_splash 0001                         _print_Vbatt 199A  
                  ?_LCD_pulse_clock 0001  
